
FFT_conv.elf:     file format elf32-littleriscv


Disassembly of section .vectors:

00000000 <_stack_orig-0x105af0>:
   0:	00000013          	nop
   4:	00000013          	nop
   8:	00000013          	nop
   c:	00000013          	nop
  10:	00000013          	nop
  14:	00000013          	nop
  18:	00000013          	nop
  1c:	00000013          	nop
  20:	00000013          	nop
  24:	00000013          	nop
  28:	00000013          	nop
  2c:	00000013          	nop
  30:	00000013          	nop
  34:	00000013          	nop
  38:	00000013          	nop
  3c:	00000013          	nop
  40:	00000013          	nop
  44:	00000013          	nop
  48:	00000013          	nop
  4c:	00000013          	nop
  50:	00000013          	nop
  54:	00000013          	nop
  58:	00000013          	nop
  5c:	00000013          	nop
  60:	00000013          	nop
  64:	00000013          	nop
  68:	00000013          	nop
  6c:	00000013          	nop
  70:	00000013          	nop
  74:	00000013          	nop
  78:	00000013          	nop
  7c:	00000013          	nop
  80:	0040006f          	j	84 <_stext>

Disassembly of section .text:

00000084 <_stext>:
      84:	00000093          	li	ra,0
      88:	00008113          	mv	sp,ra
      8c:	00008193          	mv	gp,ra
      90:	00008213          	mv	tp,ra
      94:	00008293          	mv	t0,ra
      98:	00008313          	mv	t1,ra
      9c:	00008393          	mv	t2,ra
      a0:	00008413          	mv	s0,ra
      a4:	00008493          	mv	s1,ra
      a8:	00008513          	mv	a0,ra
      ac:	00008593          	mv	a1,ra
      b0:	00008613          	mv	a2,ra
      b4:	00008693          	mv	a3,ra
      b8:	00008713          	mv	a4,ra
      bc:	00008793          	mv	a5,ra
      c0:	00008813          	mv	a6,ra
      c4:	00008893          	mv	a7,ra
      c8:	00008913          	mv	s2,ra
      cc:	00008993          	mv	s3,ra
      d0:	00008a13          	mv	s4,ra
      d4:	00008a93          	mv	s5,ra
      d8:	00008b13          	mv	s6,ra
      dc:	00008b93          	mv	s7,ra
      e0:	00008c13          	mv	s8,ra
      e4:	00008c93          	mv	s9,ra
      e8:	00008d13          	mv	s10,ra
      ec:	00008d93          	mv	s11,ra
      f0:	00008e13          	mv	t3,ra
      f4:	00008e93          	mv	t4,ra
      f8:	00008f13          	mv	t5,ra
      fc:	00008f93          	mv	t6,ra
     100:	00106117          	auipc	sp,0x106
     104:	df010113          	add	sp,sp,-528 # 105ef0 <GPBUF_BASE>

00000108 <_start>:
     108:	00101d17          	auipc	s10,0x101
     10c:	95cd0d13          	add	s10,s10,-1700 # 100a64 <tmp_fft.0>
     110:	00103d97          	auipc	s11,0x103
     114:	e5cd8d93          	add	s11,s11,-420 # 102f6c <_bss_end>
     118:	01bd5863          	bge	s10,s11,128 <zero_loop_end>

0000011c <zero_loop>:
     11c:	000d2023          	sw	zero,0(s10)
     120:	004d0d13          	add	s10,s10,4
     124:	ffaddce3          	bge	s11,s10,11c <zero_loop>

00000128 <zero_loop_end>:
     128:	2b1040ef          	jal	4bd8 <__libc_init_array>

0000012c <main_entry>:
     12c:	00000513          	li	a0,0
     130:	00000593          	li	a1,0
     134:	25c050ef          	jal	5390 <main>

00000138 <k5_exit_loop>:
     138:	000000ef          	jal	138 <k5_exit_loop>

0000013c <_fini>:
     13c:	00008067          	ret

00000140 <modf>:
     140:	4145d793          	sra	a5,a1,0x14
     144:	ff010113          	add	sp,sp,-16
     148:	7ff7f793          	and	a5,a5,2047
     14c:	00812423          	sw	s0,8(sp)
     150:	00912223          	sw	s1,4(sp)
     154:	01212023          	sw	s2,0(sp)
     158:	00112623          	sw	ra,12(sp)
     15c:	c0178713          	add	a4,a5,-1023
     160:	01300693          	li	a3,19
     164:	00058413          	mv	s0,a1
     168:	00050493          	mv	s1,a0
     16c:	00060913          	mv	s2,a2
     170:	04e6cc63          	blt	a3,a4,1c8 <modf+0x88>
     174:	10074a63          	bltz	a4,288 <modf+0x148>
     178:	001007b7          	lui	a5,0x100
     17c:	fff78793          	add	a5,a5,-1 # fffff <IMEM_SIZE+0xebfff>
     180:	40e7d7b3          	sra	a5,a5,a4
     184:	00b7f733          	and	a4,a5,a1
     188:	00a76733          	or	a4,a4,a0
     18c:	06071a63          	bnez	a4,200 <modf+0xc0>
     190:	00040793          	mv	a5,s0
     194:	800006b7          	lui	a3,0x80000
     198:	00992023          	sw	s1,0(s2)
     19c:	0086f433          	and	s0,a3,s0
     1a0:	00f92223          	sw	a5,4(s2)
     1a4:	00000493          	li	s1,0
     1a8:	00c12083          	lw	ra,12(sp)
     1ac:	00040593          	mv	a1,s0
     1b0:	00812403          	lw	s0,8(sp)
     1b4:	00012903          	lw	s2,0(sp)
     1b8:	00048513          	mv	a0,s1
     1bc:	00412483          	lw	s1,4(sp)
     1c0:	01010113          	add	sp,sp,16
     1c4:	00008067          	ret
     1c8:	03300693          	li	a3,51
     1cc:	08e6c263          	blt	a3,a4,250 <modf+0x110>
     1d0:	fff00713          	li	a4,-1
     1d4:	bed78793          	add	a5,a5,-1043
     1d8:	00f757b3          	srl	a5,a4,a5
     1dc:	00a7f733          	and	a4,a5,a0
     1e0:	fa0708e3          	beqz	a4,190 <modf+0x50>
     1e4:	fff7c793          	not	a5,a5
     1e8:	00a7f7b3          	and	a5,a5,a0
     1ec:	00078813          	mv	a6,a5
     1f0:	00078613          	mv	a2,a5
     1f4:	00058893          	mv	a7,a1
     1f8:	00058693          	mv	a3,a1
     1fc:	0200006f          	j	21c <modf+0xdc>
     200:	fff7c793          	not	a5,a5
     204:	00000713          	li	a4,0
     208:	00b7f7b3          	and	a5,a5,a1
     20c:	00070813          	mv	a6,a4
     210:	00070613          	mv	a2,a4
     214:	00078893          	mv	a7,a5
     218:	00078693          	mv	a3,a5
     21c:	01092023          	sw	a6,0(s2)
     220:	01192223          	sw	a7,4(s2)
     224:	611030ef          	jal	4034 <__subdf3>
     228:	00058413          	mv	s0,a1
     22c:	00c12083          	lw	ra,12(sp)
     230:	00040593          	mv	a1,s0
     234:	00812403          	lw	s0,8(sp)
     238:	00050493          	mv	s1,a0
     23c:	00012903          	lw	s2,0(sp)
     240:	00048513          	mv	a0,s1
     244:	00412483          	lw	s1,4(sp)
     248:	01010113          	add	sp,sp,16
     24c:	00008067          	ret
     250:	00a92023          	sw	a0,0(s2)
     254:	00b92223          	sw	a1,4(s2)
     258:	029000ef          	jal	a80 <__fpclassifyd>
     25c:	04051e63          	bnez	a0,2b8 <modf+0x178>
     260:	00048613          	mv	a2,s1
     264:	00048513          	mv	a0,s1
     268:	00040693          	mv	a3,s0
     26c:	00040593          	mv	a1,s0
     270:	230020ef          	jal	24a0 <__adddf3>
     274:	00050493          	mv	s1,a0
     278:	00058413          	mv	s0,a1
     27c:	00a92023          	sw	a0,0(s2)
     280:	00b92223          	sw	a1,4(s2)
     284:	f25ff06f          	j	1a8 <modf+0x68>
     288:	800007b7          	lui	a5,0x80000
     28c:	00c12083          	lw	ra,12(sp)
     290:	00b7f7b3          	and	a5,a5,a1
     294:	00040593          	mv	a1,s0
     298:	00812403          	lw	s0,8(sp)
     29c:	00062023          	sw	zero,0(a2)
     2a0:	00f62223          	sw	a5,4(a2)
     2a4:	00012903          	lw	s2,0(sp)
     2a8:	00048513          	mv	a0,s1
     2ac:	00412483          	lw	s1,4(sp)
     2b0:	01010113          	add	sp,sp,16
     2b4:	00008067          	ret
     2b8:	800007b7          	lui	a5,0x80000
     2bc:	0087f433          	and	s0,a5,s0
     2c0:	00000493          	li	s1,0
     2c4:	ee5ff06f          	j	1a8 <modf+0x68>

000002c8 <cos>:
     2c8:	fe010113          	add	sp,sp,-32
     2cc:	00812c23          	sw	s0,24(sp)
     2d0:	80000437          	lui	s0,0x80000
     2d4:	fff40793          	add	a5,s0,-1 # 7fffffff <MTSSV_BASE+0x7fef8007>
     2d8:	3fe926b7          	lui	a3,0x3fe92
     2dc:	00112e23          	sw	ra,28(sp)
     2e0:	00b7f7b3          	and	a5,a5,a1
     2e4:	1fb68693          	add	a3,a3,507 # 3fe921fb <MTSSV_BASE+0x3fd8a203>
     2e8:	06f6fc63          	bgeu	a3,a5,360 <cos+0x98>
     2ec:	7ff006b7          	lui	a3,0x7ff00
     2f0:	02d7e863          	bltu	a5,a3,320 <cos+0x58>
     2f4:	00050613          	mv	a2,a0
     2f8:	00058693          	mv	a3,a1
     2fc:	539030ef          	jal	4034 <__subdf3>
     300:	00058413          	mv	s0,a1
     304:	00050793          	mv	a5,a0
     308:	01c12083          	lw	ra,28(sp)
     30c:	00040593          	mv	a1,s0
     310:	01812403          	lw	s0,24(sp)
     314:	00078513          	mv	a0,a5
     318:	02010113          	add	sp,sp,32
     31c:	00008067          	ret
     320:	00010613          	mv	a2,sp
     324:	7cc000ef          	jal	af0 <__ieee754_rem_pio2>
     328:	00357513          	and	a0,a0,3
     32c:	00100793          	li	a5,1
     330:	06f50063          	beq	a0,a5,390 <cos+0xc8>
     334:	00200793          	li	a5,2
     338:	00812603          	lw	a2,8(sp)
     33c:	00c12683          	lw	a3,12(sp)
     340:	02f50c63          	beq	a0,a5,378 <cos+0xb0>
     344:	06051863          	bnez	a0,3b4 <cos+0xec>
     348:	00012503          	lw	a0,0(sp)
     34c:	00412583          	lw	a1,4(sp)
     350:	080000ef          	jal	3d0 <__kernel_cos>
     354:	00050793          	mv	a5,a0
     358:	00058413          	mv	s0,a1
     35c:	fadff06f          	j	308 <cos+0x40>
     360:	01812403          	lw	s0,24(sp)
     364:	01c12083          	lw	ra,28(sp)
     368:	00000613          	li	a2,0
     36c:	00000693          	li	a3,0
     370:	02010113          	add	sp,sp,32
     374:	05c0006f          	j	3d0 <__kernel_cos>
     378:	00012503          	lw	a0,0(sp)
     37c:	00412583          	lw	a1,4(sp)
     380:	050000ef          	jal	3d0 <__kernel_cos>
     384:	00050793          	mv	a5,a0
     388:	00b44433          	xor	s0,s0,a1
     38c:	f7dff06f          	j	308 <cos+0x40>
     390:	00812603          	lw	a2,8(sp)
     394:	00c12683          	lw	a3,12(sp)
     398:	00012503          	lw	a0,0(sp)
     39c:	00412583          	lw	a1,4(sp)
     3a0:	00100713          	li	a4,1
     3a4:	460000ef          	jal	804 <__kernel_sin>
     3a8:	00050793          	mv	a5,a0
     3ac:	00b44433          	xor	s0,s0,a1
     3b0:	f59ff06f          	j	308 <cos+0x40>
     3b4:	00012503          	lw	a0,0(sp)
     3b8:	00412583          	lw	a1,4(sp)
     3bc:	00100713          	li	a4,1
     3c0:	444000ef          	jal	804 <__kernel_sin>
     3c4:	00050793          	mv	a5,a0
     3c8:	00058413          	mv	s0,a1
     3cc:	f3dff06f          	j	308 <cos+0x40>

000003d0 <__kernel_cos>:
     3d0:	fc010113          	add	sp,sp,-64
     3d4:	03312623          	sw	s3,44(sp)
     3d8:	00159993          	sll	s3,a1,0x1
     3dc:	03212823          	sw	s2,48(sp)
     3e0:	03412423          	sw	s4,40(sp)
     3e4:	03512223          	sw	s5,36(sp)
     3e8:	01812c23          	sw	s8,24(sp)
     3ec:	02112e23          	sw	ra,60(sp)
     3f0:	02812c23          	sw	s0,56(sp)
     3f4:	02912a23          	sw	s1,52(sp)
     3f8:	01912a23          	sw	s9,20(sp)
     3fc:	01a12823          	sw	s10,16(sp)
     400:	0019d993          	srl	s3,s3,0x1
     404:	3e4007b7          	lui	a5,0x3e400
     408:	00058913          	mv	s2,a1
     40c:	00050a13          	mv	s4,a0
     410:	00060a93          	mv	s5,a2
     414:	00068c13          	mv	s8,a3
     418:	18f9fa63          	bgeu	s3,a5,5ac <STACK_SIZE+0x1ac>
     41c:	520040ef          	jal	493c <__fixdfsi>
     420:	3c050863          	beqz	a0,7f0 <STACK_SIZE+0x3f0>
     424:	000a0613          	mv	a2,s4
     428:	00090693          	mv	a3,s2
     42c:	000a0513          	mv	a0,s4
     430:	00090593          	mv	a1,s2
     434:	470030ef          	jal	38a4 <__muldf3>
     438:	00100797          	auipc	a5,0x100
     43c:	53078793          	add	a5,a5,1328 # 100968 <__clz_tab+0x750>
     440:	0007a603          	lw	a2,0(a5)
     444:	0047a683          	lw	a3,4(a5)
     448:	00050493          	mv	s1,a0
     44c:	00058413          	mv	s0,a1
     450:	454030ef          	jal	38a4 <__muldf3>
     454:	00100797          	auipc	a5,0x100
     458:	51c78793          	add	a5,a5,1308 # 100970 <__clz_tab+0x758>
     45c:	0007a603          	lw	a2,0(a5)
     460:	0047a683          	lw	a3,4(a5)
     464:	03c020ef          	jal	24a0 <__adddf3>
     468:	00048613          	mv	a2,s1
     46c:	00040693          	mv	a3,s0
     470:	434030ef          	jal	38a4 <__muldf3>
     474:	00100797          	auipc	a5,0x100
     478:	50478793          	add	a5,a5,1284 # 100978 <__clz_tab+0x760>
     47c:	0007a603          	lw	a2,0(a5)
     480:	0047a683          	lw	a3,4(a5)
     484:	3b1030ef          	jal	4034 <__subdf3>
     488:	00048613          	mv	a2,s1
     48c:	00040693          	mv	a3,s0
     490:	414030ef          	jal	38a4 <__muldf3>
     494:	00100797          	auipc	a5,0x100
     498:	4ec78793          	add	a5,a5,1260 # 100980 <__clz_tab+0x768>
     49c:	0007a603          	lw	a2,0(a5)
     4a0:	0047a683          	lw	a3,4(a5)
     4a4:	7fd010ef          	jal	24a0 <__adddf3>
     4a8:	00048613          	mv	a2,s1
     4ac:	00040693          	mv	a3,s0
     4b0:	3f4030ef          	jal	38a4 <__muldf3>
     4b4:	00100797          	auipc	a5,0x100
     4b8:	4d478793          	add	a5,a5,1236 # 100988 <__clz_tab+0x770>
     4bc:	0007a603          	lw	a2,0(a5)
     4c0:	0047a683          	lw	a3,4(a5)
     4c4:	371030ef          	jal	4034 <__subdf3>
     4c8:	00048613          	mv	a2,s1
     4cc:	00040693          	mv	a3,s0
     4d0:	3d4030ef          	jal	38a4 <__muldf3>
     4d4:	00100797          	auipc	a5,0x100
     4d8:	4bc78793          	add	a5,a5,1212 # 100990 <__clz_tab+0x778>
     4dc:	0007a603          	lw	a2,0(a5)
     4e0:	0047a683          	lw	a3,4(a5)
     4e4:	7bd010ef          	jal	24a0 <__adddf3>
     4e8:	00048613          	mv	a2,s1
     4ec:	00040693          	mv	a3,s0
     4f0:	3b4030ef          	jal	38a4 <__muldf3>
     4f4:	00050d13          	mv	s10,a0
     4f8:	00058c93          	mv	s9,a1
     4fc:	00100797          	auipc	a5,0x100
     500:	49c78793          	add	a5,a5,1180 # 100998 <__clz_tab+0x780>
     504:	0007a603          	lw	a2,0(a5)
     508:	0047a683          	lw	a3,4(a5)
     50c:	00048513          	mv	a0,s1
     510:	00040593          	mv	a1,s0
     514:	390030ef          	jal	38a4 <__muldf3>
     518:	00050713          	mv	a4,a0
     51c:	00058793          	mv	a5,a1
     520:	000d0613          	mv	a2,s10
     524:	00048513          	mv	a0,s1
     528:	000c8693          	mv	a3,s9
     52c:	00040593          	mv	a1,s0
     530:	00070493          	mv	s1,a4
     534:	00078413          	mv	s0,a5
     538:	36c030ef          	jal	38a4 <__muldf3>
     53c:	00058793          	mv	a5,a1
     540:	00050993          	mv	s3,a0
     544:	000a8613          	mv	a2,s5
     548:	000c0693          	mv	a3,s8
     54c:	00090593          	mv	a1,s2
     550:	000a0513          	mv	a0,s4
     554:	00078913          	mv	s2,a5
     558:	34c030ef          	jal	38a4 <__muldf3>
     55c:	00050613          	mv	a2,a0
     560:	00058693          	mv	a3,a1
     564:	00098513          	mv	a0,s3
     568:	00090593          	mv	a1,s2
     56c:	2c9030ef          	jal	4034 <__subdf3>
     570:	00050613          	mv	a2,a0
     574:	00058693          	mv	a3,a1
     578:	00048513          	mv	a0,s1
     57c:	00040593          	mv	a1,s0
     580:	2b5030ef          	jal	4034 <__subdf3>
     584:	00100797          	auipc	a5,0x100
     588:	3cc78793          	add	a5,a5,972 # 100950 <__clz_tab+0x738>
     58c:	00050613          	mv	a2,a0
     590:	00058693          	mv	a3,a1
     594:	0007a503          	lw	a0,0(a5)
     598:	0047a583          	lw	a1,4(a5)
     59c:	299030ef          	jal	4034 <__subdf3>
     5a0:	00050713          	mv	a4,a0
     5a4:	00058793          	mv	a5,a1
     5a8:	1ec0006f          	j	794 <STACK_SIZE+0x394>
     5ac:	00050613          	mv	a2,a0
     5b0:	00058693          	mv	a3,a1
     5b4:	2f0030ef          	jal	38a4 <__muldf3>
     5b8:	00100797          	auipc	a5,0x100
     5bc:	3b078793          	add	a5,a5,944 # 100968 <__clz_tab+0x750>
     5c0:	0007a603          	lw	a2,0(a5)
     5c4:	0047a683          	lw	a3,4(a5)
     5c8:	00050493          	mv	s1,a0
     5cc:	00058413          	mv	s0,a1
     5d0:	2d4030ef          	jal	38a4 <__muldf3>
     5d4:	00100797          	auipc	a5,0x100
     5d8:	39c78793          	add	a5,a5,924 # 100970 <__clz_tab+0x758>
     5dc:	0007a603          	lw	a2,0(a5)
     5e0:	0047a683          	lw	a3,4(a5)
     5e4:	6bd010ef          	jal	24a0 <__adddf3>
     5e8:	00048613          	mv	a2,s1
     5ec:	00040693          	mv	a3,s0
     5f0:	2b4030ef          	jal	38a4 <__muldf3>
     5f4:	00100797          	auipc	a5,0x100
     5f8:	38478793          	add	a5,a5,900 # 100978 <__clz_tab+0x760>
     5fc:	0007a603          	lw	a2,0(a5)
     600:	0047a683          	lw	a3,4(a5)
     604:	231030ef          	jal	4034 <__subdf3>
     608:	00048613          	mv	a2,s1
     60c:	00040693          	mv	a3,s0
     610:	294030ef          	jal	38a4 <__muldf3>
     614:	00100797          	auipc	a5,0x100
     618:	36c78793          	add	a5,a5,876 # 100980 <__clz_tab+0x768>
     61c:	0007a603          	lw	a2,0(a5)
     620:	0047a683          	lw	a3,4(a5)
     624:	67d010ef          	jal	24a0 <__adddf3>
     628:	00048613          	mv	a2,s1
     62c:	00040693          	mv	a3,s0
     630:	274030ef          	jal	38a4 <__muldf3>
     634:	00100797          	auipc	a5,0x100
     638:	35478793          	add	a5,a5,852 # 100988 <__clz_tab+0x770>
     63c:	0007a603          	lw	a2,0(a5)
     640:	0047a683          	lw	a3,4(a5)
     644:	1f1030ef          	jal	4034 <__subdf3>
     648:	00048613          	mv	a2,s1
     64c:	00040693          	mv	a3,s0
     650:	254030ef          	jal	38a4 <__muldf3>
     654:	00100797          	auipc	a5,0x100
     658:	33c78793          	add	a5,a5,828 # 100990 <__clz_tab+0x778>
     65c:	0007a603          	lw	a2,0(a5)
     660:	0047a683          	lw	a3,4(a5)
     664:	63d010ef          	jal	24a0 <__adddf3>
     668:	00048613          	mv	a2,s1
     66c:	00040693          	mv	a3,s0
     670:	234030ef          	jal	38a4 <__muldf3>
     674:	3fd337b7          	lui	a5,0x3fd33
     678:	33278793          	add	a5,a5,818 # 3fd33332 <MTSSV_BASE+0x3fc2b33a>
     67c:	00050d13          	mv	s10,a0
     680:	00058c93          	mv	s9,a1
     684:	e737fce3          	bgeu	a5,s3,4fc <STACK_SIZE+0xfc>
     688:	03612023          	sw	s6,32(sp)
     68c:	01712e23          	sw	s7,28(sp)
     690:	01b12623          	sw	s11,12(sp)
     694:	3fe907b7          	lui	a5,0x3fe90
     698:	1337ea63          	bltu	a5,s3,7cc <STACK_SIZE+0x3cc>
     69c:	ffe00737          	lui	a4,0xffe00
     6a0:	00e989b3          	add	s3,s3,a4
     6a4:	00100717          	auipc	a4,0x100
     6a8:	2ac70713          	add	a4,a4,684 # 100950 <__clz_tab+0x738>
     6ac:	00072503          	lw	a0,0(a4)
     6b0:	00472583          	lw	a1,4(a4)
     6b4:	00000793          	li	a5,0
     6b8:	00098693          	mv	a3,s3
     6bc:	00078613          	mv	a2,a5
     6c0:	00078b13          	mv	s6,a5
     6c4:	171030ef          	jal	4034 <__subdf3>
     6c8:	00098b93          	mv	s7,s3
     6cc:	00050d93          	mv	s11,a0
     6d0:	00058993          	mv	s3,a1
     6d4:	00100797          	auipc	a5,0x100
     6d8:	2c478793          	add	a5,a5,708 # 100998 <__clz_tab+0x780>
     6dc:	0007a603          	lw	a2,0(a5)
     6e0:	0047a683          	lw	a3,4(a5)
     6e4:	00048513          	mv	a0,s1
     6e8:	00040593          	mv	a1,s0
     6ec:	1b8030ef          	jal	38a4 <__muldf3>
     6f0:	000b0613          	mv	a2,s6
     6f4:	000b8693          	mv	a3,s7
     6f8:	13d030ef          	jal	4034 <__subdf3>
     6fc:	00050713          	mv	a4,a0
     700:	00058793          	mv	a5,a1
     704:	000d0613          	mv	a2,s10
     708:	00048513          	mv	a0,s1
     70c:	000c8693          	mv	a3,s9
     710:	00040593          	mv	a1,s0
     714:	00070493          	mv	s1,a4
     718:	00078413          	mv	s0,a5
     71c:	188030ef          	jal	38a4 <__muldf3>
     720:	00050713          	mv	a4,a0
     724:	00058793          	mv	a5,a1
     728:	000a8613          	mv	a2,s5
     72c:	000a0513          	mv	a0,s4
     730:	000c0693          	mv	a3,s8
     734:	00090593          	mv	a1,s2
     738:	00070a13          	mv	s4,a4
     73c:	00078913          	mv	s2,a5
     740:	164030ef          	jal	38a4 <__muldf3>
     744:	00050613          	mv	a2,a0
     748:	00058693          	mv	a3,a1
     74c:	000a0513          	mv	a0,s4
     750:	00090593          	mv	a1,s2
     754:	0e1030ef          	jal	4034 <__subdf3>
     758:	00050613          	mv	a2,a0
     75c:	00058693          	mv	a3,a1
     760:	00048513          	mv	a0,s1
     764:	00040593          	mv	a1,s0
     768:	0cd030ef          	jal	4034 <__subdf3>
     76c:	00050613          	mv	a2,a0
     770:	00058693          	mv	a3,a1
     774:	000d8513          	mv	a0,s11
     778:	00098593          	mv	a1,s3
     77c:	0b9030ef          	jal	4034 <__subdf3>
     780:	02012b03          	lw	s6,32(sp)
     784:	01c12b83          	lw	s7,28(sp)
     788:	00c12d83          	lw	s11,12(sp)
     78c:	00050713          	mv	a4,a0
     790:	00058793          	mv	a5,a1
     794:	03c12083          	lw	ra,60(sp)
     798:	03812403          	lw	s0,56(sp)
     79c:	03412483          	lw	s1,52(sp)
     7a0:	03012903          	lw	s2,48(sp)
     7a4:	02c12983          	lw	s3,44(sp)
     7a8:	02812a03          	lw	s4,40(sp)
     7ac:	02412a83          	lw	s5,36(sp)
     7b0:	01812c03          	lw	s8,24(sp)
     7b4:	01412c83          	lw	s9,20(sp)
     7b8:	01012d03          	lw	s10,16(sp)
     7bc:	00070513          	mv	a0,a4
     7c0:	00078593          	mv	a1,a5
     7c4:	04010113          	add	sp,sp,64
     7c8:	00008067          	ret
     7cc:	00100797          	auipc	a5,0x100
     7d0:	18c78793          	add	a5,a5,396 # 100958 <__clz_tab+0x740>
     7d4:	0007ad83          	lw	s11,0(a5)
     7d8:	0047a983          	lw	s3,4(a5)
     7dc:	00100797          	auipc	a5,0x100
     7e0:	18478793          	add	a5,a5,388 # 100960 <__clz_tab+0x748>
     7e4:	0007ab03          	lw	s6,0(a5)
     7e8:	0047ab83          	lw	s7,4(a5)
     7ec:	ee9ff06f          	j	6d4 <STACK_SIZE+0x2d4>
     7f0:	00100797          	auipc	a5,0x100
     7f4:	16078793          	add	a5,a5,352 # 100950 <__clz_tab+0x738>
     7f8:	0007a703          	lw	a4,0(a5)
     7fc:	0047a783          	lw	a5,4(a5)
     800:	f95ff06f          	j	794 <STACK_SIZE+0x394>

00000804 <__kernel_sin>:
     804:	fd010113          	add	sp,sp,-48
     808:	00159793          	sll	a5,a1,0x1
     80c:	02812423          	sw	s0,40(sp)
     810:	01312e23          	sw	s3,28(sp)
     814:	01412c23          	sw	s4,24(sp)
     818:	01512a23          	sw	s5,20(sp)
     81c:	01612823          	sw	s6,16(sp)
     820:	02112623          	sw	ra,44(sp)
     824:	0017d793          	srl	a5,a5,0x1
     828:	3e400837          	lui	a6,0x3e400
     82c:	00058413          	mv	s0,a1
     830:	00050993          	mv	s3,a0
     834:	00060a93          	mv	s5,a2
     838:	00068a13          	mv	s4,a3
     83c:	00070b13          	mv	s6,a4
     840:	0107fa63          	bgeu	a5,a6,854 <__kernel_sin+0x50>
     844:	0f8040ef          	jal	493c <__fixdfsi>
     848:	00098813          	mv	a6,s3
     84c:	00040793          	mv	a5,s0
     850:	1c050263          	beqz	a0,a14 <__kernel_sin+0x210>
     854:	00098613          	mv	a2,s3
     858:	00040693          	mv	a3,s0
     85c:	00098513          	mv	a0,s3
     860:	00040593          	mv	a1,s0
     864:	02912223          	sw	s1,36(sp)
     868:	03212023          	sw	s2,32(sp)
     86c:	01712623          	sw	s7,12(sp)
     870:	01812423          	sw	s8,8(sp)
     874:	01912223          	sw	s9,4(sp)
     878:	01a12023          	sw	s10,0(sp)
     87c:	028030ef          	jal	38a4 <__muldf3>
     880:	00050913          	mv	s2,a0
     884:	00058493          	mv	s1,a1
     888:	00050613          	mv	a2,a0
     88c:	00058693          	mv	a3,a1
     890:	00098513          	mv	a0,s3
     894:	00040593          	mv	a1,s0
     898:	00c030ef          	jal	38a4 <__muldf3>
     89c:	00100797          	auipc	a5,0x100
     8a0:	10478793          	add	a5,a5,260 # 1009a0 <__clz_tab+0x788>
     8a4:	0007a603          	lw	a2,0(a5)
     8a8:	0047a683          	lw	a3,4(a5)
     8ac:	00050c13          	mv	s8,a0
     8b0:	00058b93          	mv	s7,a1
     8b4:	00090513          	mv	a0,s2
     8b8:	00048593          	mv	a1,s1
     8bc:	7e9020ef          	jal	38a4 <__muldf3>
     8c0:	00100797          	auipc	a5,0x100
     8c4:	0e878793          	add	a5,a5,232 # 1009a8 <__clz_tab+0x790>
     8c8:	0007a603          	lw	a2,0(a5)
     8cc:	0047a683          	lw	a3,4(a5)
     8d0:	764030ef          	jal	4034 <__subdf3>
     8d4:	00090613          	mv	a2,s2
     8d8:	00048693          	mv	a3,s1
     8dc:	7c9020ef          	jal	38a4 <__muldf3>
     8e0:	00100797          	auipc	a5,0x100
     8e4:	0d078793          	add	a5,a5,208 # 1009b0 <__clz_tab+0x798>
     8e8:	0007a603          	lw	a2,0(a5)
     8ec:	0047a683          	lw	a3,4(a5)
     8f0:	3b1010ef          	jal	24a0 <__adddf3>
     8f4:	00090613          	mv	a2,s2
     8f8:	00048693          	mv	a3,s1
     8fc:	7a9020ef          	jal	38a4 <__muldf3>
     900:	00100797          	auipc	a5,0x100
     904:	0b878793          	add	a5,a5,184 # 1009b8 <__clz_tab+0x7a0>
     908:	0007a603          	lw	a2,0(a5)
     90c:	0047a683          	lw	a3,4(a5)
     910:	724030ef          	jal	4034 <__subdf3>
     914:	00090613          	mv	a2,s2
     918:	00048693          	mv	a3,s1
     91c:	789020ef          	jal	38a4 <__muldf3>
     920:	00100797          	auipc	a5,0x100
     924:	0a078793          	add	a5,a5,160 # 1009c0 <__clz_tab+0x7a8>
     928:	0007a603          	lw	a2,0(a5)
     92c:	0047a683          	lw	a3,4(a5)
     930:	371010ef          	jal	24a0 <__adddf3>
     934:	00050d13          	mv	s10,a0
     938:	00058c93          	mv	s9,a1
     93c:	100b0063          	beqz	s6,a3c <__kernel_sin+0x238>
     940:	00100797          	auipc	a5,0x100
     944:	05878793          	add	a5,a5,88 # 100998 <__clz_tab+0x780>
     948:	0007a603          	lw	a2,0(a5)
     94c:	0047a683          	lw	a3,4(a5)
     950:	000a8513          	mv	a0,s5
     954:	000a0593          	mv	a1,s4
     958:	74d020ef          	jal	38a4 <__muldf3>
     95c:	00050793          	mv	a5,a0
     960:	000c8693          	mv	a3,s9
     964:	00058b13          	mv	s6,a1
     968:	000d0613          	mv	a2,s10
     96c:	000c0513          	mv	a0,s8
     970:	000b8593          	mv	a1,s7
     974:	00078c93          	mv	s9,a5
     978:	72d020ef          	jal	38a4 <__muldf3>
     97c:	00050613          	mv	a2,a0
     980:	00058693          	mv	a3,a1
     984:	000c8513          	mv	a0,s9
     988:	000b0593          	mv	a1,s6
     98c:	6a8030ef          	jal	4034 <__subdf3>
     990:	00090613          	mv	a2,s2
     994:	00048693          	mv	a3,s1
     998:	70d020ef          	jal	38a4 <__muldf3>
     99c:	000a8613          	mv	a2,s5
     9a0:	000a0693          	mv	a3,s4
     9a4:	690030ef          	jal	4034 <__subdf3>
     9a8:	00100797          	auipc	a5,0x100
     9ac:	02078793          	add	a5,a5,32 # 1009c8 <__clz_tab+0x7b0>
     9b0:	0007a603          	lw	a2,0(a5)
     9b4:	0047a683          	lw	a3,4(a5)
     9b8:	00050913          	mv	s2,a0
     9bc:	00058493          	mv	s1,a1
     9c0:	000c0513          	mv	a0,s8
     9c4:	000b8593          	mv	a1,s7
     9c8:	6dd020ef          	jal	38a4 <__muldf3>
     9cc:	00050613          	mv	a2,a0
     9d0:	00058693          	mv	a3,a1
     9d4:	00090513          	mv	a0,s2
     9d8:	00048593          	mv	a1,s1
     9dc:	2c5010ef          	jal	24a0 <__adddf3>
     9e0:	00050613          	mv	a2,a0
     9e4:	00058693          	mv	a3,a1
     9e8:	00098513          	mv	a0,s3
     9ec:	00040593          	mv	a1,s0
     9f0:	644030ef          	jal	4034 <__subdf3>
     9f4:	02412483          	lw	s1,36(sp)
     9f8:	02012903          	lw	s2,32(sp)
     9fc:	00c12b83          	lw	s7,12(sp)
     a00:	00812c03          	lw	s8,8(sp)
     a04:	00412c83          	lw	s9,4(sp)
     a08:	00012d03          	lw	s10,0(sp)
     a0c:	00050813          	mv	a6,a0
     a10:	00058793          	mv	a5,a1
     a14:	02c12083          	lw	ra,44(sp)
     a18:	02812403          	lw	s0,40(sp)
     a1c:	01c12983          	lw	s3,28(sp)
     a20:	01812a03          	lw	s4,24(sp)
     a24:	01412a83          	lw	s5,20(sp)
     a28:	01012b03          	lw	s6,16(sp)
     a2c:	00080513          	mv	a0,a6
     a30:	00078593          	mv	a1,a5
     a34:	03010113          	add	sp,sp,48
     a38:	00008067          	ret
     a3c:	00050613          	mv	a2,a0
     a40:	00058693          	mv	a3,a1
     a44:	00090513          	mv	a0,s2
     a48:	00048593          	mv	a1,s1
     a4c:	659020ef          	jal	38a4 <__muldf3>
     a50:	00100797          	auipc	a5,0x100
     a54:	f7878793          	add	a5,a5,-136 # 1009c8 <__clz_tab+0x7b0>
     a58:	0007a603          	lw	a2,0(a5)
     a5c:	0047a683          	lw	a3,4(a5)
     a60:	5d4030ef          	jal	4034 <__subdf3>
     a64:	000c0613          	mv	a2,s8
     a68:	000b8693          	mv	a3,s7
     a6c:	639020ef          	jal	38a4 <__muldf3>
     a70:	00098613          	mv	a2,s3
     a74:	00040693          	mv	a3,s0
     a78:	229010ef          	jal	24a0 <__adddf3>
     a7c:	f79ff06f          	j	9f4 <__kernel_sin+0x1f0>

00000a80 <__fpclassifyd>:
     a80:	00b56733          	or	a4,a0,a1
     a84:	00050793          	mv	a5,a0
     a88:	04070c63          	beqz	a4,ae0 <__fpclassifyd+0x60>
     a8c:	80000737          	lui	a4,0x80000
     a90:	04e58263          	beq	a1,a4,ad4 <__fpclassifyd+0x54>
     a94:	fff70693          	add	a3,a4,-1 # 7fffffff <MTSSV_BASE+0x7fef8007>
     a98:	00b6f6b3          	and	a3,a3,a1
     a9c:	fff00837          	lui	a6,0xfff00
     aa0:	01068833          	add	a6,a3,a6
     aa4:	7fe008b7          	lui	a7,0x7fe00
     aa8:	00400513          	li	a0,4
     aac:	03186263          	bltu	a6,a7,ad0 <__fpclassifyd+0x50>
     ab0:	00100837          	lui	a6,0x100
     ab4:	00300513          	li	a0,3
     ab8:	0105ec63          	bltu	a1,a6,ad0 <__fpclassifyd+0x50>
     abc:	00b70733          	add	a4,a4,a1
     ac0:	01076863          	bltu	a4,a6,ad0 <__fpclassifyd+0x50>
     ac4:	7ff00737          	lui	a4,0x7ff00
     ac8:	00000513          	li	a0,0
     acc:	00e68e63          	beq	a3,a4,ae8 <__fpclassifyd+0x68>
     ad0:	00008067          	ret
     ad4:	00a03533          	snez	a0,a0
     ad8:	00250513          	add	a0,a0,2
     adc:	00008067          	ret
     ae0:	00200513          	li	a0,2
     ae4:	00008067          	ret
     ae8:	0017b513          	seqz	a0,a5
     aec:	00008067          	ret

00000af0 <__ieee754_rem_pio2>:
     af0:	f9010113          	add	sp,sp,-112
     af4:	06812423          	sw	s0,104(sp)
     af8:	3fe926b7          	lui	a3,0x3fe92
     afc:	00159413          	sll	s0,a1,0x1
     b00:	07212023          	sw	s2,96(sp)
     b04:	06112623          	sw	ra,108(sp)
     b08:	06912223          	sw	s1,100(sp)
     b0c:	00145413          	srl	s0,s0,0x1
     b10:	1fb68693          	add	a3,a3,507 # 3fe921fb <MTSSV_BASE+0x3fd8a203>
     b14:	00060913          	mv	s2,a2
     b18:	1e86fa63          	bgeu	a3,s0,d0c <__ieee754_rem_pio2+0x21c>
     b1c:	4002e6b7          	lui	a3,0x4002e
     b20:	05312e23          	sw	s3,92(sp)
     b24:	97b68693          	add	a3,a3,-1669 # 4002d97b <MTSSV_BASE+0x3ff25983>
     b28:	00058993          	mv	s3,a1
     b2c:	0a86e863          	bltu	a3,s0,bdc <__ieee754_rem_pio2+0xec>
     b30:	05412c23          	sw	s4,88(sp)
     b34:	05512a23          	sw	s5,84(sp)
     b38:	00100797          	auipc	a5,0x100
     b3c:	e9878793          	add	a5,a5,-360 # 1009d0 <__clz_tab+0x7b8>
     b40:	5eb05263          	blez	a1,1124 <__ieee754_rem_pio2+0x634>
     b44:	0007a603          	lw	a2,0(a5)
     b48:	0047a683          	lw	a3,4(a5)
     b4c:	4e8030ef          	jal	4034 <__subdf3>
     b50:	3ff927b7          	lui	a5,0x3ff92
     b54:	1fb78793          	add	a5,a5,507 # 3ff921fb <MTSSV_BASE+0x3fe8a203>
     b58:	00050a13          	mv	s4,a0
     b5c:	00058993          	mv	s3,a1
     b60:	1ef40a63          	beq	s0,a5,d54 <__ieee754_rem_pio2+0x264>
     b64:	00100a97          	auipc	s5,0x100
     b68:	e74a8a93          	add	s5,s5,-396 # 1009d8 <__clz_tab+0x7c0>
     b6c:	000aa603          	lw	a2,0(s5)
     b70:	004aa683          	lw	a3,4(s5)
     b74:	4c0030ef          	jal	4034 <__subdf3>
     b78:	00050493          	mv	s1,a0
     b7c:	00050613          	mv	a2,a0
     b80:	00058693          	mv	a3,a1
     b84:	00058413          	mv	s0,a1
     b88:	000a0513          	mv	a0,s4
     b8c:	00098593          	mv	a1,s3
     b90:	4a4030ef          	jal	4034 <__subdf3>
     b94:	000aa603          	lw	a2,0(s5)
     b98:	004aa683          	lw	a3,4(s5)
     b9c:	498030ef          	jal	4034 <__subdf3>
     ba0:	05c12983          	lw	s3,92(sp)
     ba4:	05812a03          	lw	s4,88(sp)
     ba8:	05412a83          	lw	s5,84(sp)
     bac:	00992023          	sw	s1,0(s2)
     bb0:	00892223          	sw	s0,4(s2)
     bb4:	00a92423          	sw	a0,8(s2)
     bb8:	00b92623          	sw	a1,12(s2)
     bbc:	00100493          	li	s1,1
     bc0:	06c12083          	lw	ra,108(sp)
     bc4:	06812403          	lw	s0,104(sp)
     bc8:	06012903          	lw	s2,96(sp)
     bcc:	00048513          	mv	a0,s1
     bd0:	06412483          	lw	s1,100(sp)
     bd4:	07010113          	add	sp,sp,112
     bd8:	00008067          	ret
     bdc:	413926b7          	lui	a3,0x41392
     be0:	1fb68693          	add	a3,a3,507 # 413921fb <MTSSV_BASE+0x4128a203>
     be4:	1a86f063          	bgeu	a3,s0,d84 <__ieee754_rem_pio2+0x294>
     be8:	7ff006b7          	lui	a3,0x7ff00
     bec:	14d47063          	bgeu	s0,a3,d2c <__ieee754_rem_pio2+0x23c>
     bf0:	05412c23          	sw	s4,88(sp)
     bf4:	41445a13          	sra	s4,s0,0x14
     bf8:	beaa0a13          	add	s4,s4,-1046
     bfc:	014a1793          	sll	a5,s4,0x14
     c00:	40f40433          	sub	s0,s0,a5
     c04:	00040593          	mv	a1,s0
     c08:	00050493          	mv	s1,a0
     c0c:	05512a23          	sw	s5,84(sp)
     c10:	52d030ef          	jal	493c <__fixdfsi>
     c14:	5ad030ef          	jal	49c0 <__floatsidf>
     c18:	00050793          	mv	a5,a0
     c1c:	00058693          	mv	a3,a1
     c20:	00050613          	mv	a2,a0
     c24:	00040593          	mv	a1,s0
     c28:	00048513          	mv	a0,s1
     c2c:	00f12c23          	sw	a5,24(sp)
     c30:	00100a97          	auipc	s5,0x100
     c34:	dd8a8a93          	add	s5,s5,-552 # 100a08 <__clz_tab+0x7f0>
     c38:	00d12e23          	sw	a3,28(sp)
     c3c:	3f8030ef          	jal	4034 <__subdf3>
     c40:	000aa603          	lw	a2,0(s5)
     c44:	004aa683          	lw	a3,4(s5)
     c48:	45d020ef          	jal	38a4 <__muldf3>
     c4c:	00058413          	mv	s0,a1
     c50:	00050493          	mv	s1,a0
     c54:	4e9030ef          	jal	493c <__fixdfsi>
     c58:	569030ef          	jal	49c0 <__floatsidf>
     c5c:	00050793          	mv	a5,a0
     c60:	00058693          	mv	a3,a1
     c64:	00050613          	mv	a2,a0
     c68:	00040593          	mv	a1,s0
     c6c:	00048513          	mv	a0,s1
     c70:	02f12023          	sw	a5,32(sp)
     c74:	02d12223          	sw	a3,36(sp)
     c78:	3bc030ef          	jal	4034 <__subdf3>
     c7c:	000aa603          	lw	a2,0(s5)
     c80:	004aa683          	lw	a3,4(s5)
     c84:	01810493          	add	s1,sp,24
     c88:	00300413          	li	s0,3
     c8c:	419020ef          	jal	38a4 <__muldf3>
     c90:	02a12423          	sw	a0,40(sp)
     c94:	02b12623          	sw	a1,44(sp)
     c98:	0104a503          	lw	a0,16(s1)
     c9c:	0144a583          	lw	a1,20(s1)
     ca0:	00000613          	li	a2,0
     ca4:	00000693          	li	a3,0
     ca8:	00040a93          	mv	s5,s0
     cac:	ff848493          	add	s1,s1,-8
     cb0:	fff40413          	add	s0,s0,-1
     cb4:	15d020ef          	jal	3610 <__eqdf2>
     cb8:	fe0500e3          	beqz	a0,c98 <__ieee754_rem_pio2+0x1a8>
     cbc:	000ff797          	auipc	a5,0xff
     cc0:	3c478793          	add	a5,a5,964 # 100080 <two_over_pi>
     cc4:	00200713          	li	a4,2
     cc8:	000a8693          	mv	a3,s5
     ccc:	000a0613          	mv	a2,s4
     cd0:	00090593          	mv	a1,s2
     cd4:	01810513          	add	a0,sp,24
     cd8:	608000ef          	jal	12e0 <__kernel_rem_pio2>
     cdc:	00050493          	mv	s1,a0
     ce0:	4009c263          	bltz	s3,10e4 <__ieee754_rem_pio2+0x5f4>
     ce4:	06c12083          	lw	ra,108(sp)
     ce8:	06812403          	lw	s0,104(sp)
     cec:	05c12983          	lw	s3,92(sp)
     cf0:	05812a03          	lw	s4,88(sp)
     cf4:	05412a83          	lw	s5,84(sp)
     cf8:	06012903          	lw	s2,96(sp)
     cfc:	00048513          	mv	a0,s1
     d00:	06412483          	lw	s1,100(sp)
     d04:	07010113          	add	sp,sp,112
     d08:	00008067          	ret
     d0c:	00000713          	li	a4,0
     d10:	00000793          	li	a5,0
     d14:	00a92023          	sw	a0,0(s2)
     d18:	00b92223          	sw	a1,4(s2)
     d1c:	00e92423          	sw	a4,8(s2)
     d20:	00f92623          	sw	a5,12(s2)
     d24:	00000493          	li	s1,0
     d28:	e99ff06f          	j	bc0 <__ieee754_rem_pio2+0xd0>
     d2c:	00050613          	mv	a2,a0
     d30:	00058693          	mv	a3,a1
     d34:	300030ef          	jal	4034 <__subdf3>
     d38:	00a92423          	sw	a0,8(s2)
     d3c:	05c12983          	lw	s3,92(sp)
     d40:	00b92623          	sw	a1,12(s2)
     d44:	00a92023          	sw	a0,0(s2)
     d48:	00b92223          	sw	a1,4(s2)
     d4c:	00000493          	li	s1,0
     d50:	e71ff06f          	j	bc0 <__ieee754_rem_pio2+0xd0>
     d54:	00100797          	auipc	a5,0x100
     d58:	c8c78793          	add	a5,a5,-884 # 1009e0 <__clz_tab+0x7c8>
     d5c:	0007a603          	lw	a2,0(a5)
     d60:	0047a683          	lw	a3,4(a5)
     d64:	00100a97          	auipc	s5,0x100
     d68:	c84a8a93          	add	s5,s5,-892 # 1009e8 <__clz_tab+0x7d0>
     d6c:	2c8030ef          	jal	4034 <__subdf3>
     d70:	000aa603          	lw	a2,0(s5)
     d74:	004aa683          	lw	a3,4(s5)
     d78:	00050a13          	mv	s4,a0
     d7c:	00058993          	mv	s3,a1
     d80:	df5ff06f          	j	b74 <__ieee754_rem_pio2+0x84>
     d84:	05412c23          	sw	s4,88(sp)
     d88:	05512a23          	sw	s5,84(sp)
     d8c:	05612823          	sw	s6,80(sp)
     d90:	05712623          	sw	s7,76(sp)
     d94:	05812423          	sw	s8,72(sp)
     d98:	05912223          	sw	s9,68(sp)
     d9c:	05a12023          	sw	s10,64(sp)
     da0:	520010ef          	jal	22c0 <fabs>
     da4:	00100797          	auipc	a5,0x100
     da8:	c4c78793          	add	a5,a5,-948 # 1009f0 <__clz_tab+0x7d8>
     dac:	0007a603          	lw	a2,0(a5)
     db0:	0047a683          	lw	a3,4(a5)
     db4:	00050a93          	mv	s5,a0
     db8:	00058a13          	mv	s4,a1
     dbc:	2e9020ef          	jal	38a4 <__muldf3>
     dc0:	00100797          	auipc	a5,0x100
     dc4:	bd878793          	add	a5,a5,-1064 # 100998 <__clz_tab+0x780>
     dc8:	0007a603          	lw	a2,0(a5)
     dcc:	0047a683          	lw	a3,4(a5)
     dd0:	6d0010ef          	jal	24a0 <__adddf3>
     dd4:	369030ef          	jal	493c <__fixdfsi>
     dd8:	00050493          	mv	s1,a0
     ddc:	3e5030ef          	jal	49c0 <__floatsidf>
     de0:	00100797          	auipc	a5,0x100
     de4:	bf078793          	add	a5,a5,-1040 # 1009d0 <__clz_tab+0x7b8>
     de8:	0007a603          	lw	a2,0(a5)
     dec:	0047a683          	lw	a3,4(a5)
     df0:	00050c93          	mv	s9,a0
     df4:	00058c13          	mv	s8,a1
     df8:	2ad020ef          	jal	38a4 <__muldf3>
     dfc:	00050613          	mv	a2,a0
     e00:	00058693          	mv	a3,a1
     e04:	000a8513          	mv	a0,s5
     e08:	000a0593          	mv	a1,s4
     e0c:	228030ef          	jal	4034 <__subdf3>
     e10:	00100797          	auipc	a5,0x100
     e14:	bc878793          	add	a5,a5,-1080 # 1009d8 <__clz_tab+0x7c0>
     e18:	0007a603          	lw	a2,0(a5)
     e1c:	0047a683          	lw	a3,4(a5)
     e20:	00050b93          	mv	s7,a0
     e24:	00058b13          	mv	s6,a1
     e28:	000c8513          	mv	a0,s9
     e2c:	000c0593          	mv	a1,s8
     e30:	275020ef          	jal	38a4 <__muldf3>
     e34:	01f00793          	li	a5,31
     e38:	00050a93          	mv	s5,a0
     e3c:	00058a13          	mv	s4,a1
     e40:	00050613          	mv	a2,a0
     e44:	00058693          	mv	a3,a1
     e48:	000b8513          	mv	a0,s7
     e4c:	000b0593          	mv	a1,s6
     e50:	0c97c063          	blt	a5,s1,f10 <__ieee754_rem_pio2+0x420>
     e54:	fff48713          	add	a4,s1,-1
     e58:	00271713          	sll	a4,a4,0x2
     e5c:	000ff797          	auipc	a5,0xff
     e60:	1a478793          	add	a5,a5,420 # 100000 <npio2_hw>
     e64:	00e787b3          	add	a5,a5,a4
     e68:	0007a783          	lw	a5,0(a5)
     e6c:	0a878263          	beq	a5,s0,f10 <__ieee754_rem_pio2+0x420>
     e70:	1c4030ef          	jal	4034 <__subdf3>
     e74:	00050d13          	mv	s10,a0
     e78:	00058413          	mv	s0,a1
     e7c:	00050713          	mv	a4,a0
     e80:	00058793          	mv	a5,a1
     e84:	000d0613          	mv	a2,s10
     e88:	00040693          	mv	a3,s0
     e8c:	00e92023          	sw	a4,0(s2)
     e90:	00f92223          	sw	a5,4(s2)
     e94:	000b8513          	mv	a0,s7
     e98:	000b0593          	mv	a1,s6
     e9c:	198030ef          	jal	4034 <__subdf3>
     ea0:	000a8613          	mv	a2,s5
     ea4:	000a0693          	mv	a3,s4
     ea8:	18c030ef          	jal	4034 <__subdf3>
     eac:	00a92423          	sw	a0,8(s2)
     eb0:	00b92623          	sw	a1,12(s2)
     eb4:	0209d063          	bgez	s3,ed4 <__ieee754_rem_pio2+0x3e4>
     eb8:	800007b7          	lui	a5,0x80000
     ebc:	0087c433          	xor	s0,a5,s0
     ec0:	00b7c7b3          	xor	a5,a5,a1
     ec4:	01a92023          	sw	s10,0(s2)
     ec8:	00892223          	sw	s0,4(s2)
     ecc:	00f92623          	sw	a5,12(s2)
     ed0:	409004b3          	neg	s1,s1
     ed4:	06c12083          	lw	ra,108(sp)
     ed8:	06812403          	lw	s0,104(sp)
     edc:	05c12983          	lw	s3,92(sp)
     ee0:	05812a03          	lw	s4,88(sp)
     ee4:	05412a83          	lw	s5,84(sp)
     ee8:	05012b03          	lw	s6,80(sp)
     eec:	04c12b83          	lw	s7,76(sp)
     ef0:	04812c03          	lw	s8,72(sp)
     ef4:	04412c83          	lw	s9,68(sp)
     ef8:	04012d03          	lw	s10,64(sp)
     efc:	06012903          	lw	s2,96(sp)
     f00:	00048513          	mv	a0,s1
     f04:	06412483          	lw	s1,100(sp)
     f08:	07010113          	add	sp,sp,112
     f0c:	00008067          	ret
     f10:	124030ef          	jal	4034 <__subdf3>
     f14:	0145d693          	srl	a3,a1,0x14
     f18:	41445893          	sra	a7,s0,0x14
     f1c:	7ff6f693          	and	a3,a3,2047
     f20:	40d886b3          	sub	a3,a7,a3
     f24:	01112423          	sw	a7,8(sp)
     f28:	01000613          	li	a2,16
     f2c:	00058793          	mv	a5,a1
     f30:	00050713          	mv	a4,a0
     f34:	00050d13          	mv	s10,a0
     f38:	00058413          	mv	s0,a1
     f3c:	f4d654e3          	bge	a2,a3,e84 <__ieee754_rem_pio2+0x394>
     f40:	00100797          	auipc	a5,0x100
     f44:	aa078793          	add	a5,a5,-1376 # 1009e0 <__clz_tab+0x7c8>
     f48:	0007a603          	lw	a2,0(a5)
     f4c:	0047a683          	lw	a3,4(a5)
     f50:	000c8513          	mv	a0,s9
     f54:	000c0593          	mv	a1,s8
     f58:	03b12e23          	sw	s11,60(sp)
     f5c:	149020ef          	jal	38a4 <__muldf3>
     f60:	00050a13          	mv	s4,a0
     f64:	00058413          	mv	s0,a1
     f68:	00050613          	mv	a2,a0
     f6c:	00058693          	mv	a3,a1
     f70:	000b8513          	mv	a0,s7
     f74:	000b0593          	mv	a1,s6
     f78:	0bc030ef          	jal	4034 <__subdf3>
     f7c:	00050613          	mv	a2,a0
     f80:	00058693          	mv	a3,a1
     f84:	00050d93          	mv	s11,a0
     f88:	00b12623          	sw	a1,12(sp)
     f8c:	000b8513          	mv	a0,s7
     f90:	00058b93          	mv	s7,a1
     f94:	000b0593          	mv	a1,s6
     f98:	09c030ef          	jal	4034 <__subdf3>
     f9c:	000a0613          	mv	a2,s4
     fa0:	00040693          	mv	a3,s0
     fa4:	090030ef          	jal	4034 <__subdf3>
     fa8:	00100797          	auipc	a5,0x100
     fac:	a4078793          	add	a5,a5,-1472 # 1009e8 <__clz_tab+0x7d0>
     fb0:	0007a603          	lw	a2,0(a5)
     fb4:	0047a683          	lw	a3,4(a5)
     fb8:	00050a13          	mv	s4,a0
     fbc:	00058413          	mv	s0,a1
     fc0:	000c8513          	mv	a0,s9
     fc4:	000c0593          	mv	a1,s8
     fc8:	0dd020ef          	jal	38a4 <__muldf3>
     fcc:	000a0613          	mv	a2,s4
     fd0:	00040693          	mv	a3,s0
     fd4:	060030ef          	jal	4034 <__subdf3>
     fd8:	00058693          	mv	a3,a1
     fdc:	00050613          	mv	a2,a0
     fe0:	00050a93          	mv	s5,a0
     fe4:	00058a13          	mv	s4,a1
     fe8:	000d8513          	mv	a0,s11
     fec:	000b8593          	mv	a1,s7
     ff0:	044030ef          	jal	4034 <__subdf3>
     ff4:	00812883          	lw	a7,8(sp)
     ff8:	0145d693          	srl	a3,a1,0x14
     ffc:	7ff6f693          	and	a3,a3,2047
    1000:	40d888b3          	sub	a7,a7,a3
    1004:	03100693          	li	a3,49
    1008:	00058793          	mv	a5,a1
    100c:	00050713          	mv	a4,a0
    1010:	00050d13          	mv	s10,a0
    1014:	00058413          	mv	s0,a1
    1018:	0f16de63          	bge	a3,a7,1114 <__ieee754_rem_pio2+0x624>
    101c:	00100797          	auipc	a5,0x100
    1020:	9dc78793          	add	a5,a5,-1572 # 1009f8 <__clz_tab+0x7e0>
    1024:	0007a603          	lw	a2,0(a5)
    1028:	0047a683          	lw	a3,4(a5)
    102c:	000c8513          	mv	a0,s9
    1030:	000c0593          	mv	a1,s8
    1034:	071020ef          	jal	38a4 <__muldf3>
    1038:	00050a13          	mv	s4,a0
    103c:	00058413          	mv	s0,a1
    1040:	00050613          	mv	a2,a0
    1044:	00058693          	mv	a3,a1
    1048:	000d8513          	mv	a0,s11
    104c:	000b8593          	mv	a1,s7
    1050:	7e5020ef          	jal	4034 <__subdf3>
    1054:	000b8a93          	mv	s5,s7
    1058:	00050613          	mv	a2,a0
    105c:	00058693          	mv	a3,a1
    1060:	00050b93          	mv	s7,a0
    1064:	00058b13          	mv	s6,a1
    1068:	000d8513          	mv	a0,s11
    106c:	000a8593          	mv	a1,s5
    1070:	7c5020ef          	jal	4034 <__subdf3>
    1074:	000a0613          	mv	a2,s4
    1078:	00040693          	mv	a3,s0
    107c:	7b9020ef          	jal	4034 <__subdf3>
    1080:	00100797          	auipc	a5,0x100
    1084:	98078793          	add	a5,a5,-1664 # 100a00 <__clz_tab+0x7e8>
    1088:	0007a603          	lw	a2,0(a5)
    108c:	0047a683          	lw	a3,4(a5)
    1090:	00050a13          	mv	s4,a0
    1094:	00058413          	mv	s0,a1
    1098:	000c8513          	mv	a0,s9
    109c:	000c0593          	mv	a1,s8
    10a0:	005020ef          	jal	38a4 <__muldf3>
    10a4:	000a0613          	mv	a2,s4
    10a8:	00040693          	mv	a3,s0
    10ac:	789020ef          	jal	4034 <__subdf3>
    10b0:	00050613          	mv	a2,a0
    10b4:	00058693          	mv	a3,a1
    10b8:	00050a93          	mv	s5,a0
    10bc:	00058a13          	mv	s4,a1
    10c0:	000b8513          	mv	a0,s7
    10c4:	000b0593          	mv	a1,s6
    10c8:	76d020ef          	jal	4034 <__subdf3>
    10cc:	00050d13          	mv	s10,a0
    10d0:	03c12d83          	lw	s11,60(sp)
    10d4:	00058413          	mv	s0,a1
    10d8:	00050713          	mv	a4,a0
    10dc:	00058793          	mv	a5,a1
    10e0:	da5ff06f          	j	e84 <__ieee754_rem_pio2+0x394>
    10e4:	00492703          	lw	a4,4(s2)
    10e8:	00c92783          	lw	a5,12(s2)
    10ec:	800006b7          	lui	a3,0x80000
    10f0:	00d74733          	xor	a4,a4,a3
    10f4:	00d7c7b3          	xor	a5,a5,a3
    10f8:	05c12983          	lw	s3,92(sp)
    10fc:	05812a03          	lw	s4,88(sp)
    1100:	05412a83          	lw	s5,84(sp)
    1104:	00e92223          	sw	a4,4(s2)
    1108:	00f92623          	sw	a5,12(s2)
    110c:	40a004b3          	neg	s1,a0
    1110:	ab1ff06f          	j	bc0 <__ieee754_rem_pio2+0xd0>
    1114:	000d8b93          	mv	s7,s11
    1118:	00c12b03          	lw	s6,12(sp)
    111c:	03c12d83          	lw	s11,60(sp)
    1120:	d65ff06f          	j	e84 <__ieee754_rem_pio2+0x394>
    1124:	0007a603          	lw	a2,0(a5)
    1128:	0047a683          	lw	a3,4(a5)
    112c:	374010ef          	jal	24a0 <__adddf3>
    1130:	3ff927b7          	lui	a5,0x3ff92
    1134:	1fb78793          	add	a5,a5,507 # 3ff921fb <MTSSV_BASE+0x3fe8a203>
    1138:	00050993          	mv	s3,a0
    113c:	00058493          	mv	s1,a1
    1140:	06f40263          	beq	s0,a5,11a4 <__ieee754_rem_pio2+0x6b4>
    1144:	00100a17          	auipc	s4,0x100
    1148:	894a0a13          	add	s4,s4,-1900 # 1009d8 <__clz_tab+0x7c0>
    114c:	000a2603          	lw	a2,0(s4)
    1150:	004a2683          	lw	a3,4(s4)
    1154:	34c010ef          	jal	24a0 <__adddf3>
    1158:	00050a93          	mv	s5,a0
    115c:	00050613          	mv	a2,a0
    1160:	00058693          	mv	a3,a1
    1164:	00058413          	mv	s0,a1
    1168:	00098513          	mv	a0,s3
    116c:	00048593          	mv	a1,s1
    1170:	6c5020ef          	jal	4034 <__subdf3>
    1174:	000a2603          	lw	a2,0(s4)
    1178:	004a2683          	lw	a3,4(s4)
    117c:	fff00493          	li	s1,-1
    1180:	320010ef          	jal	24a0 <__adddf3>
    1184:	00a92423          	sw	a0,8(s2)
    1188:	01592023          	sw	s5,0(s2)
    118c:	05c12983          	lw	s3,92(sp)
    1190:	05812a03          	lw	s4,88(sp)
    1194:	05412a83          	lw	s5,84(sp)
    1198:	00892223          	sw	s0,4(s2)
    119c:	00b92623          	sw	a1,12(s2)
    11a0:	a21ff06f          	j	bc0 <__ieee754_rem_pio2+0xd0>
    11a4:	00100797          	auipc	a5,0x100
    11a8:	83c78793          	add	a5,a5,-1988 # 1009e0 <__clz_tab+0x7c8>
    11ac:	0007a603          	lw	a2,0(a5)
    11b0:	0047a683          	lw	a3,4(a5)
    11b4:	00100a17          	auipc	s4,0x100
    11b8:	834a0a13          	add	s4,s4,-1996 # 1009e8 <__clz_tab+0x7d0>
    11bc:	2e4010ef          	jal	24a0 <__adddf3>
    11c0:	000a2603          	lw	a2,0(s4)
    11c4:	004a2683          	lw	a3,4(s4)
    11c8:	00050993          	mv	s3,a0
    11cc:	00058493          	mv	s1,a1
    11d0:	f85ff06f          	j	1154 <__ieee754_rem_pio2+0x664>

000011d4 <sin>:
    11d4:	fe010113          	add	sp,sp,-32
    11d8:	00812c23          	sw	s0,24(sp)
    11dc:	80000437          	lui	s0,0x80000
    11e0:	fff40793          	add	a5,s0,-1 # 7fffffff <MTSSV_BASE+0x7fef8007>
    11e4:	3fe926b7          	lui	a3,0x3fe92
    11e8:	00112e23          	sw	ra,28(sp)
    11ec:	00b7f7b3          	and	a5,a5,a1
    11f0:	1fb68693          	add	a3,a3,507 # 3fe921fb <MTSSV_BASE+0x3fd8a203>
    11f4:	06f6fe63          	bgeu	a3,a5,1270 <sin+0x9c>
    11f8:	7ff006b7          	lui	a3,0x7ff00
    11fc:	02d7e863          	bltu	a5,a3,122c <sin+0x58>
    1200:	00050613          	mv	a2,a0
    1204:	00058693          	mv	a3,a1
    1208:	62d020ef          	jal	4034 <__subdf3>
    120c:	00058413          	mv	s0,a1
    1210:	00050793          	mv	a5,a0
    1214:	01c12083          	lw	ra,28(sp)
    1218:	00040593          	mv	a1,s0
    121c:	01812403          	lw	s0,24(sp)
    1220:	00078513          	mv	a0,a5
    1224:	02010113          	add	sp,sp,32
    1228:	00008067          	ret
    122c:	00010613          	mv	a2,sp
    1230:	8c1ff0ef          	jal	af0 <__ieee754_rem_pio2>
    1234:	00357513          	and	a0,a0,3
    1238:	00100793          	li	a5,1
    123c:	06f50663          	beq	a0,a5,12a8 <sin+0xd4>
    1240:	00200793          	li	a5,2
    1244:	00812603          	lw	a2,8(sp)
    1248:	00c12683          	lw	a3,12(sp)
    124c:	04f50063          	beq	a0,a5,128c <sin+0xb8>
    1250:	06051c63          	bnez	a0,12c8 <sin+0xf4>
    1254:	00012503          	lw	a0,0(sp)
    1258:	00412583          	lw	a1,4(sp)
    125c:	00100713          	li	a4,1
    1260:	da4ff0ef          	jal	804 <__kernel_sin>
    1264:	00050793          	mv	a5,a0
    1268:	00058413          	mv	s0,a1
    126c:	fa9ff06f          	j	1214 <sin+0x40>
    1270:	01812403          	lw	s0,24(sp)
    1274:	01c12083          	lw	ra,28(sp)
    1278:	00000713          	li	a4,0
    127c:	00000613          	li	a2,0
    1280:	00000693          	li	a3,0
    1284:	02010113          	add	sp,sp,32
    1288:	d7cff06f          	j	804 <__kernel_sin>
    128c:	00012503          	lw	a0,0(sp)
    1290:	00412583          	lw	a1,4(sp)
    1294:	00100713          	li	a4,1
    1298:	d6cff0ef          	jal	804 <__kernel_sin>
    129c:	00050793          	mv	a5,a0
    12a0:	00b44433          	xor	s0,s0,a1
    12a4:	f71ff06f          	j	1214 <sin+0x40>
    12a8:	00812603          	lw	a2,8(sp)
    12ac:	00c12683          	lw	a3,12(sp)
    12b0:	00012503          	lw	a0,0(sp)
    12b4:	00412583          	lw	a1,4(sp)
    12b8:	918ff0ef          	jal	3d0 <__kernel_cos>
    12bc:	00050793          	mv	a5,a0
    12c0:	00058413          	mv	s0,a1
    12c4:	f51ff06f          	j	1214 <sin+0x40>
    12c8:	00012503          	lw	a0,0(sp)
    12cc:	00412583          	lw	a1,4(sp)
    12d0:	900ff0ef          	jal	3d0 <__kernel_cos>
    12d4:	00050793          	mv	a5,a0
    12d8:	00b44433          	xor	s0,s0,a1
    12dc:	f39ff06f          	j	1214 <sin+0x40>

000012e0 <__kernel_rem_pio2>:
    12e0:	d5010113          	add	sp,sp,-688
    12e4:	00271813          	sll	a6,a4,0x2
    12e8:	29712623          	sw	s7,652(sp)
    12ec:	00070b93          	mv	s7,a4
    12f0:	000ff717          	auipc	a4,0xff
    12f4:	e9870713          	add	a4,a4,-360 # 100188 <init_jk>
    12f8:	00068893          	mv	a7,a3
    12fc:	2a812423          	sw	s0,680(sp)
    1300:	2b212023          	sw	s2,672(sp)
    1304:	29312e23          	sw	s3,668(sp)
    1308:	29812423          	sw	s8,648(sp)
    130c:	02d12223          	sw	a3,36(sp)
    1310:	01070733          	add	a4,a4,a6
    1314:	2a112623          	sw	ra,684(sp)
    1318:	2a912223          	sw	s1,676(sp)
    131c:	29412c23          	sw	s4,664(sp)
    1320:	29512a23          	sw	s5,660(sp)
    1324:	29612823          	sw	s6,656(sp)
    1328:	29912223          	sw	s9,644(sp)
    132c:	29a12023          	sw	s10,640(sp)
    1330:	27b12e23          	sw	s11,636(sp)
    1334:	fec00693          	li	a3,-20
    1338:	00a12423          	sw	a0,8(sp)
    133c:	02f12423          	sw	a5,40(sp)
    1340:	00072983          	lw	s3,0(a4)
    1344:	00060413          	mv	s0,a2
    1348:	00058913          	mv	s2,a1
    134c:	fff88c13          	add	s8,a7,-1 # 7fdfffff <MTSSV_BASE+0x7fcf8007>
    1350:	1cd64ae3          	blt	a2,a3,1d24 <__kernel_rem_pio2+0xa44>
    1354:	01800593          	li	a1,24
    1358:	ffd60513          	add	a0,a2,-3
    135c:	740030ef          	jal	4a9c <__divsi3>
    1360:	00150713          	add	a4,a0,1
    1364:	00271793          	sll	a5,a4,0x2
    1368:	40f70733          	sub	a4,a4,a5
    136c:	02a12023          	sw	a0,32(sp)
    1370:	00371693          	sll	a3,a4,0x3
    1374:	02012783          	lw	a5,32(sp)
    1378:	01898733          	add	a4,s3,s8
    137c:	00d408b3          	add	a7,s0,a3
    1380:	41878433          	sub	s0,a5,s8
    1384:	04074863          	bltz	a4,13d4 <__kernel_rem_pio2+0xf4>
    1388:	02812783          	lw	a5,40(sp)
    138c:	00241a13          	sll	s4,s0,0x2
    1390:	00170713          	add	a4,a4,1
    1394:	09010493          	add	s1,sp,144
    1398:	01478a33          	add	s4,a5,s4
    139c:	00870ab3          	add	s5,a4,s0
    13a0:	00088b13          	mv	s6,a7
    13a4:	00000513          	li	a0,0
    13a8:	00000593          	li	a1,0
    13ac:	00044663          	bltz	s0,13b8 <__kernel_rem_pio2+0xd8>
    13b0:	000a2503          	lw	a0,0(s4)
    13b4:	60c030ef          	jal	49c0 <__floatsidf>
    13b8:	00a4a023          	sw	a0,0(s1)
    13bc:	00b4a223          	sw	a1,4(s1)
    13c0:	00140413          	add	s0,s0,1
    13c4:	00848493          	add	s1,s1,8
    13c8:	004a0a13          	add	s4,s4,4
    13cc:	fd541ce3          	bne	s0,s5,13a4 <__kernel_rem_pio2+0xc4>
    13d0:	000b0893          	mv	a7,s6
    13d4:	0a09ca63          	bltz	s3,1488 <__kernel_rem_pio2+0x1a8>
    13d8:	003c1713          	sll	a4,s8,0x3
    13dc:	09010793          	add	a5,sp,144
    13e0:	00812d03          	lw	s10,8(sp)
    13e4:	00e784b3          	add	s1,a5,a4
    13e8:	02412783          	lw	a5,36(sp)
    13ec:	00870413          	add	s0,a4,8
    13f0:	1d010a93          	add	s5,sp,464
    13f4:	000c0a13          	mv	s4,s8
    13f8:	00f98b33          	add	s6,s3,a5
    13fc:	01a40433          	add	s0,s0,s10
    1400:	01312823          	sw	s3,16(sp)
    1404:	00088d93          	mv	s11,a7
    1408:	01212a23          	sw	s2,20(sp)
    140c:	01712c23          	sw	s7,24(sp)
    1410:	00048b93          	mv	s7,s1
    1414:	000d0993          	mv	s3,s10
    1418:	00000c93          	li	s9,0
    141c:	00000913          	li	s2,0
    1420:	040c4063          	bltz	s8,1460 <__kernel_rem_pio2+0x180>
    1424:	000ba603          	lw	a2,0(s7)
    1428:	004ba683          	lw	a3,4(s7)
    142c:	0009a503          	lw	a0,0(s3)
    1430:	0049a583          	lw	a1,4(s3)
    1434:	00898993          	add	s3,s3,8
    1438:	ff8b8b93          	add	s7,s7,-8
    143c:	468020ef          	jal	38a4 <__muldf3>
    1440:	00050613          	mv	a2,a0
    1444:	00058693          	mv	a3,a1
    1448:	000c8513          	mv	a0,s9
    144c:	00090593          	mv	a1,s2
    1450:	050010ef          	jal	24a0 <__adddf3>
    1454:	00050c93          	mv	s9,a0
    1458:	00058913          	mv	s2,a1
    145c:	fc8994e3          	bne	s3,s0,1424 <__kernel_rem_pio2+0x144>
    1460:	019aa023          	sw	s9,0(s5)
    1464:	012aa223          	sw	s2,4(s5)
    1468:	001a0a13          	add	s4,s4,1
    146c:	008a8a93          	add	s5,s5,8
    1470:	00848493          	add	s1,s1,8
    1474:	f96a1ee3          	bne	s4,s6,1410 <__kernel_rem_pio2+0x130>
    1478:	01012983          	lw	s3,16(sp)
    147c:	01412903          	lw	s2,20(sp)
    1480:	01812b83          	lw	s7,24(sp)
    1484:	000d8893          	mv	a7,s11
    1488:	02412783          	lw	a5,36(sp)
    148c:	00299693          	sll	a3,s3,0x2
    1490:	fff98713          	add	a4,s3,-1
    1494:	00379413          	sll	s0,a5,0x3
    1498:	03c10793          	add	a5,sp,60
    149c:	00d78cb3          	add	s9,a5,a3
    14a0:	03868793          	add	a5,a3,56 # 7ff00038 <MTSSV_BASE+0x7fdf8040>
    14a4:	002787b3          	add	a5,a5,sp
    14a8:	200006b7          	lui	a3,0x20000
    14ac:	fff68693          	add	a3,a3,-1 # 1fffffff <MTSSV_BASE+0x1fef8007>
    14b0:	00271713          	sll	a4,a4,0x2
    14b4:	02f12a23          	sw	a5,52(sp)
    14b8:	00812783          	lw	a5,8(sp)
    14bc:	02d12623          	sw	a3,44(sp)
    14c0:	23070713          	add	a4,a4,560
    14c4:	04010693          	add	a3,sp,64
    14c8:	00d70733          	add	a4,a4,a3
    14cc:	00098d93          	mv	s11,s3
    14d0:	01312e23          	sw	s3,28(sp)
    14d4:	00878433          	add	s0,a5,s0
    14d8:	02e12823          	sw	a4,48(sp)
    14dc:	01112823          	sw	a7,16(sp)
    14e0:	00078993          	mv	s3,a5
    14e4:	03212c23          	sw	s2,56(sp)
    14e8:	03712e23          	sw	s7,60(sp)
    14ec:	003d9793          	sll	a5,s11,0x3
    14f0:	23078793          	add	a5,a5,560
    14f4:	04010713          	add	a4,sp,64
    14f8:	00e787b3          	add	a5,a5,a4
    14fc:	f607aa03          	lw	s4,-160(a5)
    1500:	f647ad03          	lw	s10,-156(a5)
    1504:	0db05863          	blez	s11,15d4 <__kernel_rem_pio2+0x2f4>
    1508:	02c12783          	lw	a5,44(sp)
    150c:	000ff697          	auipc	a3,0xff
    1510:	50468693          	add	a3,a3,1284 # 100a10 <__clz_tab+0x7f8>
    1514:	0006ab03          	lw	s6,0(a3)
    1518:	0046ab83          	lw	s7,4(a3)
    151c:	000ff697          	auipc	a3,0xff
    1520:	4ec68693          	add	a3,a3,1260 # 100a08 <__clz_tab+0x7f0>
    1524:	00fd8833          	add	a6,s11,a5
    1528:	0006a703          	lw	a4,0(a3)
    152c:	0046a783          	lw	a5,4(a3)
    1530:	1d010913          	add	s2,sp,464
    1534:	00381813          	sll	a6,a6,0x3
    1538:	00e12423          	sw	a4,8(sp)
    153c:	00f12623          	sw	a5,12(sp)
    1540:	01090ab3          	add	s5,s2,a6
    1544:	04010493          	add	s1,sp,64
    1548:	00812a23          	sw	s0,20(sp)
    154c:	01312c23          	sw	s3,24(sp)
    1550:	000b0613          	mv	a2,s6
    1554:	000b8693          	mv	a3,s7
    1558:	000a0513          	mv	a0,s4
    155c:	000d0593          	mv	a1,s10
    1560:	344020ef          	jal	38a4 <__muldf3>
    1564:	3d8030ef          	jal	493c <__fixdfsi>
    1568:	458030ef          	jal	49c0 <__floatsidf>
    156c:	00812603          	lw	a2,8(sp)
    1570:	00c12683          	lw	a3,12(sp)
    1574:	00050993          	mv	s3,a0
    1578:	00058413          	mv	s0,a1
    157c:	328020ef          	jal	38a4 <__muldf3>
    1580:	00050613          	mv	a2,a0
    1584:	00058693          	mv	a3,a1
    1588:	000a0513          	mv	a0,s4
    158c:	000d0593          	mv	a1,s10
    1590:	2a5020ef          	jal	4034 <__subdf3>
    1594:	3a8030ef          	jal	493c <__fixdfsi>
    1598:	000aa603          	lw	a2,0(s5)
    159c:	004aa683          	lw	a3,4(s5)
    15a0:	00050813          	mv	a6,a0
    15a4:	0104a023          	sw	a6,0(s1)
    15a8:	00098513          	mv	a0,s3
    15ac:	00040593          	mv	a1,s0
    15b0:	6f1000ef          	jal	24a0 <__adddf3>
    15b4:	000a8793          	mv	a5,s5
    15b8:	00050a13          	mv	s4,a0
    15bc:	00058d13          	mv	s10,a1
    15c0:	00448493          	add	s1,s1,4
    15c4:	ff8a8a93          	add	s5,s5,-8
    15c8:	f8f914e3          	bne	s2,a5,1550 <__kernel_rem_pio2+0x270>
    15cc:	01412403          	lw	s0,20(sp)
    15d0:	01812983          	lw	s3,24(sp)
    15d4:	01012b83          	lw	s7,16(sp)
    15d8:	000a0513          	mv	a0,s4
    15dc:	000d0593          	mv	a1,s10
    15e0:	000b8613          	mv	a2,s7
    15e4:	4e9000ef          	jal	22cc <scalbn>
    15e8:	000ff797          	auipc	a5,0xff
    15ec:	43078793          	add	a5,a5,1072 # 100a18 <__clz_tab+0x800>
    15f0:	0007a603          	lw	a2,0(a5)
    15f4:	0047a683          	lw	a3,4(a5)
    15f8:	00050913          	mv	s2,a0
    15fc:	00058493          	mv	s1,a1
    1600:	2a4020ef          	jal	38a4 <__muldf3>
    1604:	295000ef          	jal	2098 <floor>
    1608:	000ff797          	auipc	a5,0xff
    160c:	41878793          	add	a5,a5,1048 # 100a20 <__clz_tab+0x808>
    1610:	0007a603          	lw	a2,0(a5)
    1614:	0047a683          	lw	a3,4(a5)
    1618:	28c020ef          	jal	38a4 <__muldf3>
    161c:	00050613          	mv	a2,a0
    1620:	00058693          	mv	a3,a1
    1624:	00090513          	mv	a0,s2
    1628:	00048593          	mv	a1,s1
    162c:	209020ef          	jal	4034 <__subdf3>
    1630:	00058493          	mv	s1,a1
    1634:	00050913          	mv	s2,a0
    1638:	304030ef          	jal	493c <__fixdfsi>
    163c:	00050b13          	mv	s6,a0
    1640:	380030ef          	jal	49c0 <__floatsidf>
    1644:	00050613          	mv	a2,a0
    1648:	00058693          	mv	a3,a1
    164c:	00090513          	mv	a0,s2
    1650:	00048593          	mv	a1,s1
    1654:	1e1020ef          	jal	4034 <__subdf3>
    1658:	00050a93          	mv	s5,a0
    165c:	00058a13          	mv	s4,a1
    1660:	1b705463          	blez	s7,1808 <__kernel_rem_pio2+0x528>
    1664:	fffd8793          	add	a5,s11,-1
    1668:	00279793          	sll	a5,a5,0x2
    166c:	04010713          	add	a4,sp,64
    1670:	23078793          	add	a5,a5,560
    1674:	00e787b3          	add	a5,a5,a4
    1678:	dd07a483          	lw	s1,-560(a5)
    167c:	01800713          	li	a4,24
    1680:	41770733          	sub	a4,a4,s7
    1684:	40e4d6b3          	sra	a3,s1,a4
    1688:	00e69733          	sll	a4,a3,a4
    168c:	40e484b3          	sub	s1,s1,a4
    1690:	01700713          	li	a4,23
    1694:	41770733          	sub	a4,a4,s7
    1698:	dc97a823          	sw	s1,-560(a5)
    169c:	40e4d4b3          	sra	s1,s1,a4
    16a0:	00db0b33          	add	s6,s6,a3
    16a4:	52904e63          	bgtz	s1,1be0 <__kernel_rem_pio2+0x900>
    16a8:	000a8513          	mv	a0,s5
    16ac:	000a0593          	mv	a1,s4
    16b0:	00000613          	li	a2,0
    16b4:	00000693          	li	a3,0
    16b8:	759010ef          	jal	3610 <__eqdf2>
    16bc:	28051063          	bnez	a0,193c <__kernel_rem_pio2+0x65c>
    16c0:	01c12783          	lw	a5,28(sp)
    16c4:	03b7d463          	bge	a5,s11,16ec <__kernel_rem_pio2+0x40c>
    16c8:	002d9793          	sll	a5,s11,0x2
    16cc:	03c78793          	add	a5,a5,60
    16d0:	002787b3          	add	a5,a5,sp
    16d4:	00000713          	li	a4,0
    16d8:	0007a683          	lw	a3,0(a5)
    16dc:	ffc78793          	add	a5,a5,-4
    16e0:	00d76733          	or	a4,a4,a3
    16e4:	ff979ae3          	bne	a5,s9,16d8 <__kernel_rem_pio2+0x3f8>
    16e8:	54071463          	bnez	a4,1c30 <__kernel_rem_pio2+0x950>
    16ec:	03012783          	lw	a5,48(sp)
    16f0:	dd07a783          	lw	a5,-560(a5)
    16f4:	52079663          	bnez	a5,1c20 <__kernel_rem_pio2+0x940>
    16f8:	03412783          	lw	a5,52(sp)
    16fc:	00100713          	li	a4,1
    1700:	0007a683          	lw	a3,0(a5)
    1704:	00170713          	add	a4,a4,1
    1708:	ffc78793          	add	a5,a5,-4
    170c:	fe068ae3          	beqz	a3,1700 <__kernel_rem_pio2+0x420>
    1710:	001d8793          	add	a5,s11,1
    1714:	00078a13          	mv	s4,a5
    1718:	00ed8d33          	add	s10,s11,a4
    171c:	02012703          	lw	a4,32(sp)
    1720:	00379693          	sll	a3,a5,0x3
    1724:	01912423          	sw	s9,8(sp)
    1728:	00f704b3          	add	s1,a4,a5
    172c:	02412703          	lw	a4,36(sp)
    1730:	02812783          	lw	a5,40(sp)
    1734:	00249493          	sll	s1,s1,0x2
    1738:	01b70633          	add	a2,a4,s11
    173c:	00361613          	sll	a2,a2,0x3
    1740:	009784b3          	add	s1,a5,s1
    1744:	09010793          	add	a5,sp,144
    1748:	00c78db3          	add	s11,a5,a2
    174c:	1d010793          	add	a5,sp,464
    1750:	00d78933          	add	s2,a5,a3
    1754:	000d8c93          	mv	s9,s11
    1758:	0004a503          	lw	a0,0(s1)
    175c:	264030ef          	jal	49c0 <__floatsidf>
    1760:	00aca023          	sw	a0,0(s9)
    1764:	00bca223          	sw	a1,4(s9)
    1768:	060c4c63          	bltz	s8,17e0 <__kernel_rem_pio2+0x500>
    176c:	000c8d93          	mv	s11,s9
    1770:	00098b93          	mv	s7,s3
    1774:	00000b13          	li	s6,0
    1778:	00000a93          	li	s5,0
    177c:	000da603          	lw	a2,0(s11)
    1780:	004da683          	lw	a3,4(s11)
    1784:	000ba503          	lw	a0,0(s7)
    1788:	004ba583          	lw	a1,4(s7)
    178c:	008b8b93          	add	s7,s7,8
    1790:	ff8d8d93          	add	s11,s11,-8
    1794:	110020ef          	jal	38a4 <__muldf3>
    1798:	00050613          	mv	a2,a0
    179c:	00058693          	mv	a3,a1
    17a0:	000b0513          	mv	a0,s6
    17a4:	000a8593          	mv	a1,s5
    17a8:	4f9000ef          	jal	24a0 <__adddf3>
    17ac:	00050b13          	mv	s6,a0
    17b0:	00058a93          	mv	s5,a1
    17b4:	fc8b94e3          	bne	s7,s0,177c <__kernel_rem_pio2+0x49c>
    17b8:	01692023          	sw	s6,0(s2)
    17bc:	01592223          	sw	s5,4(s2)
    17c0:	001a0a13          	add	s4,s4,1
    17c4:	00448493          	add	s1,s1,4
    17c8:	008c8c93          	add	s9,s9,8
    17cc:	00890913          	add	s2,s2,8
    17d0:	f94d54e3          	bge	s10,s4,1758 <__kernel_rem_pio2+0x478>
    17d4:	00812c83          	lw	s9,8(sp)
    17d8:	000d0d93          	mv	s11,s10
    17dc:	d11ff06f          	j	14ec <__kernel_rem_pio2+0x20c>
    17e0:	00000b13          	li	s6,0
    17e4:	00000a93          	li	s5,0
    17e8:	01692023          	sw	s6,0(s2)
    17ec:	01592223          	sw	s5,4(s2)
    17f0:	001a0a13          	add	s4,s4,1
    17f4:	00448493          	add	s1,s1,4
    17f8:	008c8c93          	add	s9,s9,8
    17fc:	00890913          	add	s2,s2,8
    1800:	f54d5ce3          	bge	s10,s4,1758 <__kernel_rem_pio2+0x478>
    1804:	fd1ff06f          	j	17d4 <__kernel_rem_pio2+0x4f4>
    1808:	01012783          	lw	a5,16(sp)
    180c:	38079263          	bnez	a5,1b90 <__kernel_rem_pio2+0x8b0>
    1810:	fffd8793          	add	a5,s11,-1
    1814:	00279793          	sll	a5,a5,0x2
    1818:	23078793          	add	a5,a5,560
    181c:	04010713          	add	a4,sp,64
    1820:	00e787b3          	add	a5,a5,a4
    1824:	dd07a483          	lw	s1,-560(a5)
    1828:	4174d493          	sra	s1,s1,0x17
    182c:	e6905ee3          	blez	s1,16a8 <__kernel_rem_pio2+0x3c8>
    1830:	001b0b13          	add	s6,s6,1
    1834:	7fb05463          	blez	s11,201c <DMEM_SHARED_SIZE+0x1c>
    1838:	04012903          	lw	s2,64(sp)
    183c:	04010793          	add	a5,sp,64
    1840:	00078693          	mv	a3,a5
    1844:	00000713          	li	a4,0
    1848:	32090863          	beqz	s2,1b78 <__kernel_rem_pio2+0x898>
    184c:	01000637          	lui	a2,0x1000
    1850:	41260933          	sub	s2,a2,s2
    1854:	0126a023          	sw	s2,0(a3)
    1858:	0180006f          	j	1870 <__kernel_rem_pio2+0x590>
    185c:	0007a683          	lw	a3,0(a5)
    1860:	01000637          	lui	a2,0x1000
    1864:	fff60613          	add	a2,a2,-1 # ffffff <MTSSV_BASE+0xef8007>
    1868:	40d606b3          	sub	a3,a2,a3
    186c:	00d7a023          	sw	a3,0(a5)
    1870:	00170713          	add	a4,a4,1
    1874:	00478793          	add	a5,a5,4
    1878:	ffb742e3          	blt	a4,s11,185c <__kernel_rem_pio2+0x57c>
    187c:	00100913          	li	s2,1
    1880:	01012783          	lw	a5,16(sp)
    1884:	02f05e63          	blez	a5,18c0 <__kernel_rem_pio2+0x5e0>
    1888:	01012703          	lw	a4,16(sp)
    188c:	00100793          	li	a5,1
    1890:	36f70463          	beq	a4,a5,1bf8 <__kernel_rem_pio2+0x918>
    1894:	00200793          	li	a5,2
    1898:	02f71463          	bne	a4,a5,18c0 <__kernel_rem_pio2+0x5e0>
    189c:	fffd8793          	add	a5,s11,-1
    18a0:	00279793          	sll	a5,a5,0x2
    18a4:	04010713          	add	a4,sp,64
    18a8:	23078793          	add	a5,a5,560
    18ac:	00e787b3          	add	a5,a5,a4
    18b0:	dd07a703          	lw	a4,-560(a5)
    18b4:	00a71713          	sll	a4,a4,0xa
    18b8:	00a75713          	srl	a4,a4,0xa
    18bc:	dce7a823          	sw	a4,-560(a5)
    18c0:	00200793          	li	a5,2
    18c4:	def492e3          	bne	s1,a5,16a8 <__kernel_rem_pio2+0x3c8>
    18c8:	000ff797          	auipc	a5,0xff
    18cc:	08878793          	add	a5,a5,136 # 100950 <__clz_tab+0x738>
    18d0:	0007a503          	lw	a0,0(a5)
    18d4:	0047a583          	lw	a1,4(a5)
    18d8:	000a8613          	mv	a2,s5
    18dc:	000a0693          	mv	a3,s4
    18e0:	754020ef          	jal	4034 <__subdf3>
    18e4:	00050a93          	mv	s5,a0
    18e8:	00058a13          	mv	s4,a1
    18ec:	da090ee3          	beqz	s2,16a8 <__kernel_rem_pio2+0x3c8>
    18f0:	000ff797          	auipc	a5,0xff
    18f4:	06078793          	add	a5,a5,96 # 100950 <__clz_tab+0x738>
    18f8:	0007a503          	lw	a0,0(a5)
    18fc:	0047a583          	lw	a1,4(a5)
    1900:	01012603          	lw	a2,16(sp)
    1904:	1c9000ef          	jal	22cc <scalbn>
    1908:	00050613          	mv	a2,a0
    190c:	00058693          	mv	a3,a1
    1910:	000a8513          	mv	a0,s5
    1914:	000a0593          	mv	a1,s4
    1918:	71c020ef          	jal	4034 <__subdf3>
    191c:	00050a93          	mv	s5,a0
    1920:	00058a13          	mv	s4,a1
    1924:	000a8513          	mv	a0,s5
    1928:	000a0593          	mv	a1,s4
    192c:	00000613          	li	a2,0
    1930:	00000693          	li	a3,0
    1934:	4dd010ef          	jal	3610 <__eqdf2>
    1938:	d80504e3          	beqz	a0,16c0 <__kernel_rem_pio2+0x3e0>
    193c:	01012883          	lw	a7,16(sp)
    1940:	000a8513          	mv	a0,s5
    1944:	000a0593          	mv	a1,s4
    1948:	41100633          	neg	a2,a7
    194c:	01112423          	sw	a7,8(sp)
    1950:	01c12983          	lw	s3,28(sp)
    1954:	03812903          	lw	s2,56(sp)
    1958:	03c12b83          	lw	s7,60(sp)
    195c:	171000ef          	jal	22cc <scalbn>
    1960:	000ff717          	auipc	a4,0xff
    1964:	0a870713          	add	a4,a4,168 # 100a08 <__clz_tab+0x7f0>
    1968:	00072a03          	lw	s4,0(a4)
    196c:	00472a83          	lw	s5,4(a4)
    1970:	00050c13          	mv	s8,a0
    1974:	000a0613          	mv	a2,s4
    1978:	000a8693          	mv	a3,s5
    197c:	00058413          	mv	s0,a1
    1980:	51d010ef          	jal	369c <__gedf2>
    1984:	00812883          	lw	a7,8(sp)
    1988:	5c054a63          	bltz	a0,1f5c <__kernel_rem_pio2+0xc7c>
    198c:	000ff697          	auipc	a3,0xff
    1990:	08468693          	add	a3,a3,132 # 100a10 <__clz_tab+0x7f8>
    1994:	0006a603          	lw	a2,0(a3)
    1998:	0046a683          	lw	a3,4(a3)
    199c:	000c0513          	mv	a0,s8
    19a0:	00040593          	mv	a1,s0
    19a4:	701010ef          	jal	38a4 <__muldf3>
    19a8:	795020ef          	jal	493c <__fixdfsi>
    19ac:	002d9d13          	sll	s10,s11,0x2
    19b0:	230d0793          	add	a5,s10,560
    19b4:	04010713          	add	a4,sp,64
    19b8:	00e78d33          	add	s10,a5,a4
    19bc:	00050c93          	mv	s9,a0
    19c0:	000030ef          	jal	49c0 <__floatsidf>
    19c4:	000a0613          	mv	a2,s4
    19c8:	000a8693          	mv	a3,s5
    19cc:	6d9010ef          	jal	38a4 <__muldf3>
    19d0:	00058693          	mv	a3,a1
    19d4:	00050613          	mv	a2,a0
    19d8:	00040593          	mv	a1,s0
    19dc:	000c0513          	mv	a0,s8
    19e0:	654020ef          	jal	4034 <__subdf3>
    19e4:	759020ef          	jal	493c <__fixdfsi>
    19e8:	001d8713          	add	a4,s11,1
    19ec:	00271693          	sll	a3,a4,0x2
    19f0:	00812883          	lw	a7,8(sp)
    19f4:	23068793          	add	a5,a3,560
    19f8:	04010693          	add	a3,sp,64
    19fc:	dcad2823          	sw	a0,-560(s10)
    1a00:	00d786b3          	add	a3,a5,a3
    1a04:	01888893          	add	a7,a7,24
    1a08:	dd96a823          	sw	s9,-560(a3)
    1a0c:	000ff797          	auipc	a5,0xff
    1a10:	f4478793          	add	a5,a5,-188 # 100950 <__clz_tab+0x738>
    1a14:	0007a503          	lw	a0,0(a5)
    1a18:	0047a583          	lw	a1,4(a5)
    1a1c:	00088613          	mv	a2,a7
    1a20:	00e12423          	sw	a4,8(sp)
    1a24:	0a9000ef          	jal	22cc <scalbn>
    1a28:	00812703          	lw	a4,8(sp)
    1a2c:	00050413          	mv	s0,a0
    1a30:	00058c93          	mv	s9,a1
    1a34:	5e074a63          	bltz	a4,2028 <DMEM_SHARED_SIZE+0x28>
    1a38:	000ff697          	auipc	a3,0xff
    1a3c:	fd868693          	add	a3,a3,-40 # 100a10 <__clz_tab+0x7f8>
    1a40:	0006a603          	lw	a2,0(a3)
    1a44:	0046a683          	lw	a3,4(a3)
    1a48:	00371793          	sll	a5,a4,0x3
    1a4c:	00271313          	sll	t1,a4,0x2
    1a50:	00d12623          	sw	a3,12(sp)
    1a54:	1d010693          	add	a3,sp,464
    1a58:	00f68c33          	add	s8,a3,a5
    1a5c:	04030693          	add	a3,t1,64
    1a60:	00c12423          	sw	a2,8(sp)
    1a64:	00268a33          	add	s4,a3,sp
    1a68:	000c0d13          	mv	s10,s8
    1a6c:	00070a93          	mv	s5,a4
    1a70:	00078d93          	mv	s11,a5
    1a74:	000a2503          	lw	a0,0(s4)
    1a78:	ff8d0d13          	add	s10,s10,-8
    1a7c:	745020ef          	jal	49c0 <__floatsidf>
    1a80:	00040613          	mv	a2,s0
    1a84:	000c8693          	mv	a3,s9
    1a88:	61d010ef          	jal	38a4 <__muldf3>
    1a8c:	00812603          	lw	a2,8(sp)
    1a90:	00c12683          	lw	a3,12(sp)
    1a94:	00050713          	mv	a4,a0
    1a98:	00058793          	mv	a5,a1
    1a9c:	00ed2423          	sw	a4,8(s10)
    1aa0:	00fd2623          	sw	a5,12(s10)
    1aa4:	00040513          	mv	a0,s0
    1aa8:	000c8593          	mv	a1,s9
    1aac:	5f9010ef          	jal	38a4 <__muldf3>
    1ab0:	000a0793          	mv	a5,s4
    1ab4:	04010713          	add	a4,sp,64
    1ab8:	00050413          	mv	s0,a0
    1abc:	00058c93          	mv	s9,a1
    1ac0:	ffca0a13          	add	s4,s4,-4
    1ac4:	faf718e3          	bne	a4,a5,1a74 <__kernel_rem_pio2+0x794>
    1ac8:	000a8713          	mv	a4,s5
    1acc:	13010d13          	add	s10,sp,304
    1ad0:	01612423          	sw	s6,8(sp)
    1ad4:	00912823          	sw	s1,16(sp)
    1ad8:	01212a23          	sw	s2,20(sp)
    1adc:	01712c23          	sw	s7,24(sp)
    1ae0:	000d0c93          	mv	s9,s10
    1ae4:	00000a93          	li	s5,0
    1ae8:	00070a13          	mv	s4,a4
    1aec:	2409c263          	bltz	s3,1d30 <__kernel_rem_pio2+0xa50>
    1af0:	2c0ac863          	bltz	s5,1dc0 <__kernel_rem_pio2+0xae0>
    1af4:	000feb97          	auipc	s7,0xfe
    1af8:	6a4b8b93          	add	s7,s7,1700 # 100198 <PIo2>
    1afc:	000c0b13          	mv	s6,s8
    1b00:	00000493          	li	s1,0
    1b04:	00000413          	li	s0,0
    1b08:	00000913          	li	s2,0
    1b0c:	0100006f          	j	1b1c <__kernel_rem_pio2+0x83c>
    1b10:	008b8b93          	add	s7,s7,8
    1b14:	008b0b13          	add	s6,s6,8
    1b18:	032ace63          	blt	s5,s2,1b54 <__kernel_rem_pio2+0x874>
    1b1c:	000b2603          	lw	a2,0(s6)
    1b20:	004b2683          	lw	a3,4(s6)
    1b24:	000ba503          	lw	a0,0(s7)
    1b28:	004ba583          	lw	a1,4(s7)
    1b2c:	00190913          	add	s2,s2,1
    1b30:	575010ef          	jal	38a4 <__muldf3>
    1b34:	00050613          	mv	a2,a0
    1b38:	00058693          	mv	a3,a1
    1b3c:	00048513          	mv	a0,s1
    1b40:	00040593          	mv	a1,s0
    1b44:	15d000ef          	jal	24a0 <__adddf3>
    1b48:	00050493          	mv	s1,a0
    1b4c:	00058413          	mv	s0,a1
    1b50:	fd29d0e3          	bge	s3,s2,1b10 <__kernel_rem_pio2+0x830>
    1b54:	009ca023          	sw	s1,0(s9)
    1b58:	008ca223          	sw	s0,4(s9)
    1b5c:	001a8793          	add	a5,s5,1
    1b60:	008c8c93          	add	s9,s9,8
    1b64:	ff8c0c13          	add	s8,s8,-8
    1b68:	114a8e63          	beq	s5,s4,1c84 <__kernel_rem_pio2+0x9a4>
    1b6c:	00078a93          	mv	s5,a5
    1b70:	f809d0e3          	bgez	s3,1af0 <__kernel_rem_pio2+0x810>
    1b74:	1bc0006f          	j	1d30 <__kernel_rem_pio2+0xa50>
    1b78:	00170713          	add	a4,a4,1
    1b7c:	00478793          	add	a5,a5,4
    1b80:	d1b750e3          	bge	a4,s11,1880 <__kernel_rem_pio2+0x5a0>
    1b84:	0007a903          	lw	s2,0(a5)
    1b88:	00078693          	mv	a3,a5
    1b8c:	cbdff06f          	j	1848 <__kernel_rem_pio2+0x568>
    1b90:	000ff797          	auipc	a5,0xff
    1b94:	e0878793          	add	a5,a5,-504 # 100998 <__clz_tab+0x780>
    1b98:	0007a603          	lw	a2,0(a5)
    1b9c:	0047a683          	lw	a3,4(a5)
    1ba0:	00000493          	li	s1,0
    1ba4:	2f9010ef          	jal	369c <__gedf2>
    1ba8:	b00540e3          	bltz	a0,16a8 <__kernel_rem_pio2+0x3c8>
    1bac:	001b0b13          	add	s6,s6,1
    1bb0:	00200493          	li	s1,2
    1bb4:	c9b042e3          	bgtz	s11,1838 <__kernel_rem_pio2+0x558>
    1bb8:	000ff797          	auipc	a5,0xff
    1bbc:	d9878793          	add	a5,a5,-616 # 100950 <__clz_tab+0x738>
    1bc0:	0007a503          	lw	a0,0(a5)
    1bc4:	0047a583          	lw	a1,4(a5)
    1bc8:	000a8613          	mv	a2,s5
    1bcc:	000a0693          	mv	a3,s4
    1bd0:	464020ef          	jal	4034 <__subdf3>
    1bd4:	00050a93          	mv	s5,a0
    1bd8:	00058a13          	mv	s4,a1
    1bdc:	acdff06f          	j	16a8 <__kernel_rem_pio2+0x3c8>
    1be0:	001b0b13          	add	s6,s6,1
    1be4:	00000913          	li	s2,0
    1be8:	c5b048e3          	bgtz	s11,1838 <__kernel_rem_pio2+0x558>
    1bec:	01012703          	lw	a4,16(sp)
    1bf0:	00100793          	li	a5,1
    1bf4:	caf710e3          	bne	a4,a5,1894 <__kernel_rem_pio2+0x5b4>
    1bf8:	fffd8793          	add	a5,s11,-1
    1bfc:	00279793          	sll	a5,a5,0x2
    1c00:	04010713          	add	a4,sp,64
    1c04:	23078793          	add	a5,a5,560
    1c08:	00e787b3          	add	a5,a5,a4
    1c0c:	dd07a703          	lw	a4,-560(a5)
    1c10:	00971713          	sll	a4,a4,0x9
    1c14:	00975713          	srl	a4,a4,0x9
    1c18:	dce7a823          	sw	a4,-560(a5)
    1c1c:	ca5ff06f          	j	18c0 <__kernel_rem_pio2+0x5e0>
    1c20:	001d8793          	add	a5,s11,1
    1c24:	00078a13          	mv	s4,a5
    1c28:	00078d13          	mv	s10,a5
    1c2c:	af1ff06f          	j	171c <__kernel_rem_pio2+0x43c>
    1c30:	fffd8713          	add	a4,s11,-1
    1c34:	00271693          	sll	a3,a4,0x2
    1c38:	23068793          	add	a5,a3,560
    1c3c:	04010693          	add	a3,sp,64
    1c40:	00d786b3          	add	a3,a5,a3
    1c44:	01012883          	lw	a7,16(sp)
    1c48:	dd06a683          	lw	a3,-560(a3)
    1c4c:	01c12983          	lw	s3,28(sp)
    1c50:	03812903          	lw	s2,56(sp)
    1c54:	03c12b83          	lw	s7,60(sp)
    1c58:	fe888893          	add	a7,a7,-24
    1c5c:	da0698e3          	bnez	a3,1a0c <__kernel_rem_pio2+0x72c>
    1c60:	002d9693          	sll	a3,s11,0x2
    1c64:	03868793          	add	a5,a3,56
    1c68:	002786b3          	add	a3,a5,sp
    1c6c:	0006a783          	lw	a5,0(a3)
    1c70:	fff70713          	add	a4,a4,-1
    1c74:	ffc68693          	add	a3,a3,-4
    1c78:	fe888893          	add	a7,a7,-24
    1c7c:	fe0788e3          	beqz	a5,1c6c <__kernel_rem_pio2+0x98c>
    1c80:	d8dff06f          	j	1a0c <__kernel_rem_pio2+0x72c>
    1c84:	01812b83          	lw	s7,24(sp)
    1c88:	00200693          	li	a3,2
    1c8c:	00812b03          	lw	s6,8(sp)
    1c90:	01012483          	lw	s1,16(sp)
    1c94:	01412903          	lw	s2,20(sp)
    1c98:	1576c463          	blt	a3,s7,1de0 <__kernel_rem_pio2+0xb00>
    1c9c:	0b704063          	bgtz	s7,1d3c <__kernel_rem_pio2+0xa5c>
    1ca0:	040b9263          	bnez	s7,1ce4 <__kernel_rem_pio2+0xa04>
    1ca4:	00000693          	li	a3,0
    1ca8:	01bd0433          	add	s0,s10,s11
    1cac:	00000713          	li	a4,0
    1cb0:	00068513          	mv	a0,a3
    1cb4:	00042603          	lw	a2,0(s0)
    1cb8:	00442683          	lw	a3,4(s0)
    1cbc:	00070593          	mv	a1,a4
    1cc0:	7e0000ef          	jal	24a0 <__adddf3>
    1cc4:	00040793          	mv	a5,s0
    1cc8:	00058713          	mv	a4,a1
    1ccc:	ff840413          	add	s0,s0,-8
    1cd0:	fefd12e3          	bne	s10,a5,1cb4 <__kernel_rem_pio2+0x9d4>
    1cd4:	00050693          	mv	a3,a0
    1cd8:	32049c63          	bnez	s1,2010 <DMEM_SHARED_SIZE+0x10>
    1cdc:	00d92023          	sw	a3,0(s2)
    1ce0:	00e92223          	sw	a4,4(s2)
    1ce4:	2ac12083          	lw	ra,684(sp)
    1ce8:	2a812403          	lw	s0,680(sp)
    1cec:	2a412483          	lw	s1,676(sp)
    1cf0:	2a012903          	lw	s2,672(sp)
    1cf4:	29c12983          	lw	s3,668(sp)
    1cf8:	29812a03          	lw	s4,664(sp)
    1cfc:	29412a83          	lw	s5,660(sp)
    1d00:	28c12b83          	lw	s7,652(sp)
    1d04:	28812c03          	lw	s8,648(sp)
    1d08:	28412c83          	lw	s9,644(sp)
    1d0c:	28012d03          	lw	s10,640(sp)
    1d10:	27c12d83          	lw	s11,636(sp)
    1d14:	007b7513          	and	a0,s6,7
    1d18:	29012b03          	lw	s6,656(sp)
    1d1c:	2b010113          	add	sp,sp,688
    1d20:	00008067          	ret
    1d24:	fe800693          	li	a3,-24
    1d28:	02012023          	sw	zero,32(sp)
    1d2c:	e48ff06f          	j	1374 <__kernel_rem_pio2+0x94>
    1d30:	00000493          	li	s1,0
    1d34:	00000413          	li	s0,0
    1d38:	e1dff06f          	j	1b54 <__kernel_rem_pio2+0x874>
    1d3c:	00000613          	li	a2,0
    1d40:	00000693          	li	a3,0
    1d44:	01bd09b3          	add	s3,s10,s11
    1d48:	00060793          	mv	a5,a2
    1d4c:	00068713          	mv	a4,a3
    1d50:	0049a683          	lw	a3,4(s3)
    1d54:	0009a603          	lw	a2,0(s3)
    1d58:	00078513          	mv	a0,a5
    1d5c:	00070593          	mv	a1,a4
    1d60:	740000ef          	jal	24a0 <__adddf3>
    1d64:	00098693          	mv	a3,s3
    1d68:	00050793          	mv	a5,a0
    1d6c:	00058713          	mv	a4,a1
    1d70:	ff898993          	add	s3,s3,-8
    1d74:	fcdd1ee3          	bne	s10,a3,1d50 <__kernel_rem_pio2+0xa70>
    1d78:	01412423          	sw	s4,8(sp)
    1d7c:	00058413          	mv	s0,a1
    1d80:	00050a13          	mv	s4,a0
    1d84:	13412583          	lw	a1,308(sp)
    1d88:	13012503          	lw	a0,304(sp)
    1d8c:	00040693          	mv	a3,s0
    1d90:	000a0613          	mv	a2,s4
    1d94:	2a0020ef          	jal	4034 <__subdf3>
    1d98:	00812703          	lw	a4,8(sp)
    1d9c:	00050693          	mv	a3,a0
    1da0:	00058793          	mv	a5,a1
    1da4:	20048a63          	beqz	s1,1fb8 <__kernel_rem_pio2+0xcd8>
    1da8:	80000637          	lui	a2,0x80000
    1dac:	00864633          	xor	a2,a2,s0
    1db0:	01492023          	sw	s4,0(s2)
    1db4:	00c92223          	sw	a2,4(s2)
    1db8:	20071663          	bnez	a4,1fc4 <__kernel_rem_pio2+0xce4>
    1dbc:	2400006f          	j	1ffc <__kernel_rem_pio2+0xd1c>
    1dc0:	00000713          	li	a4,0
    1dc4:	00000793          	li	a5,0
    1dc8:	00eca023          	sw	a4,0(s9)
    1dcc:	00fca223          	sw	a5,4(s9)
    1dd0:	001a8a93          	add	s5,s5,1
    1dd4:	008c8c93          	add	s9,s9,8
    1dd8:	ff8c0c13          	add	s8,s8,-8
    1ddc:	d15ff06f          	j	1af0 <__kernel_rem_pio2+0x810>
    1de0:	00300693          	li	a3,3
    1de4:	f0db90e3          	bne	s7,a3,1ce4 <__kernel_rem_pio2+0xa04>
    1de8:	260a0463          	beqz	s4,2050 <DMEM_SHARED_SIZE+0x50>
    1dec:	01bd0c33          	add	s8,s10,s11
    1df0:	ff8d8793          	add	a5,s11,-8
    1df4:	000c2983          	lw	s3,0(s8)
    1df8:	004c2403          	lw	s0,4(s8)
    1dfc:	00fd0bb3          	add	s7,s10,a5
    1e00:	000b8c93          	mv	s9,s7
    1e04:	01612423          	sw	s6,8(sp)
    1e08:	00912823          	sw	s1,16(sp)
    1e0c:	000a0d93          	mv	s11,s4
    1e10:	01212a23          	sw	s2,20(sp)
    1e14:	000caa03          	lw	s4,0(s9)
    1e18:	004caa83          	lw	s5,4(s9)
    1e1c:	00098513          	mv	a0,s3
    1e20:	00040593          	mv	a1,s0
    1e24:	000a0613          	mv	a2,s4
    1e28:	000a8693          	mv	a3,s5
    1e2c:	674000ef          	jal	24a0 <__adddf3>
    1e30:	00050613          	mv	a2,a0
    1e34:	00058693          	mv	a3,a1
    1e38:	00098b13          	mv	s6,s3
    1e3c:	00040913          	mv	s2,s0
    1e40:	00050993          	mv	s3,a0
    1e44:	00058413          	mv	s0,a1
    1e48:	000a0513          	mv	a0,s4
    1e4c:	000a8593          	mv	a1,s5
    1e50:	1e4020ef          	jal	4034 <__subdf3>
    1e54:	000b0613          	mv	a2,s6
    1e58:	00090693          	mv	a3,s2
    1e5c:	644000ef          	jal	24a0 <__adddf3>
    1e60:	000c8493          	mv	s1,s9
    1e64:	00aca423          	sw	a0,8(s9)
    1e68:	00bca623          	sw	a1,12(s9)
    1e6c:	013ca023          	sw	s3,0(s9)
    1e70:	008ca223          	sw	s0,4(s9)
    1e74:	ff8c8c93          	add	s9,s9,-8
    1e78:	f9a49ee3          	bne	s1,s10,1e14 <__kernel_rem_pio2+0xb34>
    1e7c:	00100793          	li	a5,1
    1e80:	00812b03          	lw	s6,8(sp)
    1e84:	01012483          	lw	s1,16(sp)
    1e88:	01412903          	lw	s2,20(sp)
    1e8c:	1cfd8263          	beq	s11,a5,2050 <DMEM_SHARED_SIZE+0x50>
    1e90:	000c2983          	lw	s3,0(s8)
    1e94:	004c2403          	lw	s0,4(s8)
    1e98:	000baa03          	lw	s4,0(s7)
    1e9c:	004baa83          	lw	s5,4(s7)
    1ea0:	00098513          	mv	a0,s3
    1ea4:	00040593          	mv	a1,s0
    1ea8:	000a0613          	mv	a2,s4
    1eac:	000a8693          	mv	a3,s5
    1eb0:	5f0000ef          	jal	24a0 <__adddf3>
    1eb4:	00050613          	mv	a2,a0
    1eb8:	00058693          	mv	a3,a1
    1ebc:	00098d93          	mv	s11,s3
    1ec0:	00040c93          	mv	s9,s0
    1ec4:	00050993          	mv	s3,a0
    1ec8:	00058413          	mv	s0,a1
    1ecc:	000a0513          	mv	a0,s4
    1ed0:	000a8593          	mv	a1,s5
    1ed4:	160020ef          	jal	4034 <__subdf3>
    1ed8:	000d8613          	mv	a2,s11
    1edc:	000c8693          	mv	a3,s9
    1ee0:	5c0000ef          	jal	24a0 <__adddf3>
    1ee4:	00aba423          	sw	a0,8(s7)
    1ee8:	00bba623          	sw	a1,12(s7)
    1eec:	013ba023          	sw	s3,0(s7)
    1ef0:	008ba223          	sw	s0,4(s7)
    1ef4:	ff8b8b93          	add	s7,s7,-8
    1ef8:	fb7d10e3          	bne	s10,s7,1e98 <__kernel_rem_pio2+0xbb8>
    1efc:	00000793          	li	a5,0
    1f00:	008d0d13          	add	s10,s10,8
    1f04:	00000713          	li	a4,0
    1f08:	00078513          	mv	a0,a5
    1f0c:	000c2603          	lw	a2,0(s8)
    1f10:	004c2683          	lw	a3,4(s8)
    1f14:	00070593          	mv	a1,a4
    1f18:	ff8c0c13          	add	s8,s8,-8
    1f1c:	584000ef          	jal	24a0 <__adddf3>
    1f20:	00058713          	mv	a4,a1
    1f24:	ff8d14e3          	bne	s10,s8,1f0c <__kernel_rem_pio2+0xc2c>
    1f28:	00050793          	mv	a5,a0
    1f2c:	13012803          	lw	a6,304(sp)
    1f30:	13412603          	lw	a2,308(sp)
    1f34:	13812503          	lw	a0,312(sp)
    1f38:	13c12683          	lw	a3,316(sp)
    1f3c:	04049863          	bnez	s1,1f8c <__kernel_rem_pio2+0xcac>
    1f40:	01092023          	sw	a6,0(s2)
    1f44:	00c92223          	sw	a2,4(s2)
    1f48:	00a92423          	sw	a0,8(s2)
    1f4c:	00d92623          	sw	a3,12(s2)
    1f50:	00f92823          	sw	a5,16(s2)
    1f54:	00e92a23          	sw	a4,20(s2)
    1f58:	d8dff06f          	j	1ce4 <__kernel_rem_pio2+0xa04>
    1f5c:	00040593          	mv	a1,s0
    1f60:	002d9413          	sll	s0,s11,0x2
    1f64:	04010713          	add	a4,sp,64
    1f68:	23040793          	add	a5,s0,560
    1f6c:	000c0513          	mv	a0,s8
    1f70:	00e78433          	add	s0,a5,a4
    1f74:	01112423          	sw	a7,8(sp)
    1f78:	1c5020ef          	jal	493c <__fixdfsi>
    1f7c:	00812883          	lw	a7,8(sp)
    1f80:	dca42823          	sw	a0,-560(s0)
    1f84:	000d8713          	mv	a4,s11
    1f88:	a85ff06f          	j	1a0c <__kernel_rem_pio2+0x72c>
    1f8c:	800005b7          	lui	a1,0x80000
    1f90:	00c5c633          	xor	a2,a1,a2
    1f94:	00d5c6b3          	xor	a3,a1,a3
    1f98:	00e5c5b3          	xor	a1,a1,a4
    1f9c:	01092023          	sw	a6,0(s2)
    1fa0:	00c92223          	sw	a2,4(s2)
    1fa4:	00a92423          	sw	a0,8(s2)
    1fa8:	00d92623          	sw	a3,12(s2)
    1fac:	00f92823          	sw	a5,16(s2)
    1fb0:	00b92a23          	sw	a1,20(s2)
    1fb4:	d31ff06f          	j	1ce4 <__kernel_rem_pio2+0xa04>
    1fb8:	01492023          	sw	s4,0(s2)
    1fbc:	00892223          	sw	s0,4(s2)
    1fc0:	04070263          	beqz	a4,2004 <DMEM_SHARED_SIZE+0x4>
    1fc4:	13810993          	add	s3,sp,312
    1fc8:	00100413          	li	s0,1
    1fcc:	00070a13          	mv	s4,a4
    1fd0:	00068513          	mv	a0,a3
    1fd4:	0009a603          	lw	a2,0(s3)
    1fd8:	0049a683          	lw	a3,4(s3)
    1fdc:	00078593          	mv	a1,a5
    1fe0:	00140413          	add	s0,s0,1
    1fe4:	4bc000ef          	jal	24a0 <__adddf3>
    1fe8:	00058793          	mv	a5,a1
    1fec:	00898993          	add	s3,s3,8
    1ff0:	fe8a52e3          	bge	s4,s0,1fd4 <__kernel_rem_pio2+0xcf4>
    1ff4:	00050693          	mv	a3,a0
    1ff8:	00048663          	beqz	s1,2004 <DMEM_SHARED_SIZE+0x4>
    1ffc:	80000737          	lui	a4,0x80000
    2000:	00f747b3          	xor	a5,a4,a5
    2004:	00d92423          	sw	a3,8(s2)
    2008:	00f92623          	sw	a5,12(s2)
    200c:	cd9ff06f          	j	1ce4 <__kernel_rem_pio2+0xa04>
    2010:	800007b7          	lui	a5,0x80000
    2014:	00e7c733          	xor	a4,a5,a4
    2018:	cc5ff06f          	j	1cdc <__kernel_rem_pio2+0x9fc>
    201c:	00200793          	li	a5,2
    2020:	e8f49463          	bne	s1,a5,16a8 <__kernel_rem_pio2+0x3c8>
    2024:	b95ff06f          	j	1bb8 <__kernel_rem_pio2+0x8d8>
    2028:	00200793          	li	a5,2
    202c:	0177ce63          	blt	a5,s7,2048 <DMEM_SHARED_SIZE+0x48>
    2030:	03704663          	bgtz	s7,205c <DMEM_SHARED_SIZE+0x5c>
    2034:	00000693          	li	a3,0
    2038:	00000713          	li	a4,0
    203c:	ca0b94e3          	bnez	s7,1ce4 <__kernel_rem_pio2+0xa04>
    2040:	c8048ee3          	beqz	s1,1cdc <__kernel_rem_pio2+0x9fc>
    2044:	fcdff06f          	j	2010 <DMEM_SHARED_SIZE+0x10>
    2048:	00300793          	li	a5,3
    204c:	c8fb9ce3          	bne	s7,a5,1ce4 <__kernel_rem_pio2+0xa04>
    2050:	00000793          	li	a5,0
    2054:	00000713          	li	a4,0
    2058:	ed5ff06f          	j	1f2c <__kernel_rem_pio2+0xc4c>
    205c:	13012683          	lw	a3,304(sp)
    2060:	13412783          	lw	a5,308(sp)
    2064:	02048063          	beqz	s1,2084 <DMEM_SHARED_SIZE+0x84>
    2068:	000ff717          	auipc	a4,0xff
    206c:	9c070713          	add	a4,a4,-1600 # 100a28 <__clz_tab+0x810>
    2070:	00072503          	lw	a0,0(a4)
    2074:	00472583          	lw	a1,4(a4)
    2078:	00a92023          	sw	a0,0(s2)
    207c:	00b92223          	sw	a1,4(s2)
    2080:	f7dff06f          	j	1ffc <__kernel_rem_pio2+0xd1c>
    2084:	00000513          	li	a0,0
    2088:	00000593          	li	a1,0
    208c:	00a92023          	sw	a0,0(s2)
    2090:	00b92223          	sw	a1,4(s2)
    2094:	f71ff06f          	j	2004 <DMEM_SHARED_SIZE+0x4>

00002098 <floor>:
    2098:	4145d793          	sra	a5,a1,0x14
    209c:	fd010113          	add	sp,sp,-48
    20a0:	7ff7f793          	and	a5,a5,2047
    20a4:	02812423          	sw	s0,40(sp)
    20a8:	02912223          	sw	s1,36(sp)
    20ac:	03212023          	sw	s2,32(sp)
    20b0:	01312e23          	sw	s3,28(sp)
    20b4:	01412c23          	sw	s4,24(sp)
    20b8:	02112623          	sw	ra,44(sp)
    20bc:	c0178913          	add	s2,a5,-1023 # 7ffffc01 <MTSSV_BASE+0x7fef7c09>
    20c0:	01300713          	li	a4,19
    20c4:	00058413          	mv	s0,a1
    20c8:	00050493          	mv	s1,a0
    20cc:	00058a13          	mv	s4,a1
    20d0:	00050993          	mv	s3,a0
    20d4:	0f274263          	blt	a4,s2,21b8 <floor+0x120>
    20d8:	0a094663          	bltz	s2,2184 <floor+0xec>
    20dc:	01712623          	sw	s7,12(sp)
    20e0:	00100bb7          	lui	s7,0x100
    20e4:	01512a23          	sw	s5,20(sp)
    20e8:	fffb8a93          	add	s5,s7,-1 # fffff <IMEM_SIZE+0xebfff>
    20ec:	412adab3          	sra	s5,s5,s2
    20f0:	00baf6b3          	and	a3,s5,a1
    20f4:	00a6e6b3          	or	a3,a3,a0
    20f8:	00050713          	mv	a4,a0
    20fc:	00058793          	mv	a5,a1
    2100:	14068463          	beqz	a3,2248 <floor+0x1b0>
    2104:	000ff797          	auipc	a5,0xff
    2108:	92c78793          	add	a5,a5,-1748 # 100a30 <__clz_tab+0x818>
    210c:	0007a603          	lw	a2,0(a5)
    2110:	0047a683          	lw	a3,4(a5)
    2114:	01612823          	sw	s6,16(sp)
    2118:	00058b13          	mv	s6,a1
    211c:	384000ef          	jal	24a0 <__adddf3>
    2120:	00000613          	li	a2,0
    2124:	00000693          	li	a3,0
    2128:	574010ef          	jal	369c <__gedf2>
    212c:	12a05863          	blez	a0,225c <floor+0x1c4>
    2130:	00045663          	bgez	s0,213c <floor+0xa4>
    2134:	412bdbb3          	sra	s7,s7,s2
    2138:	008b8b33          	add	s6,s7,s0
    213c:	fffaca93          	not	s5,s5
    2140:	016afa33          	and	s4,s5,s6
    2144:	00c12b83          	lw	s7,12(sp)
    2148:	01412a83          	lw	s5,20(sp)
    214c:	01012b03          	lw	s6,16(sp)
    2150:	00000993          	li	s3,0
    2154:	00098713          	mv	a4,s3
    2158:	000a0793          	mv	a5,s4
    215c:	02c12083          	lw	ra,44(sp)
    2160:	02812403          	lw	s0,40(sp)
    2164:	02412483          	lw	s1,36(sp)
    2168:	02012903          	lw	s2,32(sp)
    216c:	01c12983          	lw	s3,28(sp)
    2170:	01812a03          	lw	s4,24(sp)
    2174:	00070513          	mv	a0,a4
    2178:	00078593          	mv	a1,a5
    217c:	03010113          	add	sp,sp,48
    2180:	00008067          	ret
    2184:	000ff797          	auipc	a5,0xff
    2188:	8ac78793          	add	a5,a5,-1876 # 100a30 <__clz_tab+0x818>
    218c:	0007a603          	lw	a2,0(a5)
    2190:	0047a683          	lw	a3,4(a5)
    2194:	30c000ef          	jal	24a0 <__adddf3>
    2198:	00000613          	li	a2,0
    219c:	00000693          	li	a3,0
    21a0:	4fc010ef          	jal	369c <__gedf2>
    21a4:	faa058e3          	blez	a0,2154 <floor+0xbc>
    21a8:	0c044863          	bltz	s0,2278 <floor+0x1e0>
    21ac:	00000993          	li	s3,0
    21b0:	00000a13          	li	s4,0
    21b4:	fa1ff06f          	j	2154 <floor+0xbc>
    21b8:	03300713          	li	a4,51
    21bc:	03275663          	bge	a4,s2,21e8 <floor+0x150>
    21c0:	40000693          	li	a3,1024
    21c4:	00050713          	mv	a4,a0
    21c8:	00058793          	mv	a5,a1
    21cc:	f8d918e3          	bne	s2,a3,215c <floor+0xc4>
    21d0:	00050613          	mv	a2,a0
    21d4:	00058693          	mv	a3,a1
    21d8:	2c8000ef          	jal	24a0 <__adddf3>
    21dc:	00050713          	mv	a4,a0
    21e0:	00058793          	mv	a5,a1
    21e4:	f79ff06f          	j	215c <floor+0xc4>
    21e8:	bed78793          	add	a5,a5,-1043
    21ec:	01512a23          	sw	s5,20(sp)
    21f0:	fff00a93          	li	s5,-1
    21f4:	00fadab3          	srl	s5,s5,a5
    21f8:	00aaf6b3          	and	a3,s5,a0
    21fc:	00050713          	mv	a4,a0
    2200:	00058793          	mv	a5,a1
    2204:	04068863          	beqz	a3,2254 <floor+0x1bc>
    2208:	000ff797          	auipc	a5,0xff
    220c:	82878793          	add	a5,a5,-2008 # 100a30 <__clz_tab+0x818>
    2210:	0007a603          	lw	a2,0(a5)
    2214:	0047a683          	lw	a3,4(a5)
    2218:	01712623          	sw	s7,12(sp)
    221c:	284000ef          	jal	24a0 <__adddf3>
    2220:	00000613          	li	a2,0
    2224:	00000693          	li	a3,0
    2228:	474010ef          	jal	369c <__gedf2>
    222c:	04a05063          	blez	a0,226c <floor+0x1d4>
    2230:	06044463          	bltz	s0,2298 <floor+0x200>
    2234:	fffaca93          	not	s5,s5
    2238:	013af9b3          	and	s3,s5,s3
    223c:	00c12b83          	lw	s7,12(sp)
    2240:	01412a83          	lw	s5,20(sp)
    2244:	f11ff06f          	j	2154 <floor+0xbc>
    2248:	01412a83          	lw	s5,20(sp)
    224c:	00c12b83          	lw	s7,12(sp)
    2250:	f0dff06f          	j	215c <floor+0xc4>
    2254:	01412a83          	lw	s5,20(sp)
    2258:	f05ff06f          	j	215c <floor+0xc4>
    225c:	01412a83          	lw	s5,20(sp)
    2260:	01012b03          	lw	s6,16(sp)
    2264:	00c12b83          	lw	s7,12(sp)
    2268:	eedff06f          	j	2154 <floor+0xbc>
    226c:	01412a83          	lw	s5,20(sp)
    2270:	00c12b83          	lw	s7,12(sp)
    2274:	ee1ff06f          	j	2154 <floor+0xbc>
    2278:	00141993          	sll	s3,s0,0x1
    227c:	0019d993          	srl	s3,s3,0x1
    2280:	0099e9b3          	or	s3,s3,s1
    2284:	80000a37          	lui	s4,0x80000
    2288:	ec0986e3          	beqz	s3,2154 <floor+0xbc>
    228c:	00000993          	li	s3,0
    2290:	bff00a37          	lui	s4,0xbff00
    2294:	ec1ff06f          	j	2154 <floor+0xbc>
    2298:	01400793          	li	a5,20
    229c:	00f90e63          	beq	s2,a5,22b8 <floor+0x220>
    22a0:	03400793          	li	a5,52
    22a4:	412787b3          	sub	a5,a5,s2
    22a8:	00100993          	li	s3,1
    22ac:	00f999b3          	sll	s3,s3,a5
    22b0:	009989b3          	add	s3,s3,s1
    22b4:	f899f0e3          	bgeu	s3,s1,2234 <floor+0x19c>
    22b8:	00140a13          	add	s4,s0,1
    22bc:	f79ff06f          	j	2234 <floor+0x19c>

000022c0 <fabs>:
    22c0:	00159593          	sll	a1,a1,0x1
    22c4:	0015d593          	srl	a1,a1,0x1
    22c8:	00008067          	ret

000022cc <scalbn>:
    22cc:	ff010113          	add	sp,sp,-16
    22d0:	4145d793          	sra	a5,a1,0x14
    22d4:	00812423          	sw	s0,8(sp)
    22d8:	00112623          	sw	ra,12(sp)
    22dc:	7ff7f793          	and	a5,a5,2047
    22e0:	00060413          	mv	s0,a2
    22e4:	0a079063          	bnez	a5,2384 <scalbn+0xb8>
    22e8:	00159793          	sll	a5,a1,0x1
    22ec:	0017d793          	srl	a5,a5,0x1
    22f0:	00a7e7b3          	or	a5,a5,a0
    22f4:	10078063          	beqz	a5,23f4 <scalbn+0x128>
    22f8:	000fe797          	auipc	a5,0xfe
    22fc:	74078793          	add	a5,a5,1856 # 100a38 <__clz_tab+0x820>
    2300:	0047a683          	lw	a3,4(a5)
    2304:	0007a603          	lw	a2,0(a5)
    2308:	59c010ef          	jal	38a4 <__muldf3>
    230c:	ffff46b7          	lui	a3,0xffff4
    2310:	cb068693          	add	a3,a3,-848 # ffff3cb0 <MTSSV_BASE+0xffeebcb8>
    2314:	00058713          	mv	a4,a1
    2318:	12d44a63          	blt	s0,a3,244c <scalbn+0x180>
    231c:	4145d793          	sra	a5,a1,0x14
    2320:	7ff7f793          	and	a5,a5,2047
    2324:	fca78793          	add	a5,a5,-54
    2328:	0000c6b7          	lui	a3,0xc
    232c:	35068693          	add	a3,a3,848 # c350 <DMEM_TOTAL_SIZE+0x4350>
    2330:	0886c263          	blt	a3,s0,23b4 <scalbn+0xe8>
    2334:	00f40433          	add	s0,s0,a5
    2338:	7fe00793          	li	a5,2046
    233c:	0687cc63          	blt	a5,s0,23b4 <scalbn+0xe8>
    2340:	0e804063          	bgtz	s0,2420 <scalbn+0x154>
    2344:	fcb00793          	li	a5,-53
    2348:	12f44863          	blt	s0,a5,2478 <scalbn+0x1ac>
    234c:	801007b7          	lui	a5,0x80100
    2350:	fff78793          	add	a5,a5,-1 # 800fffff <MTSSV_BASE+0x7fff8007>
    2354:	00f77733          	and	a4,a4,a5
    2358:	03640413          	add	s0,s0,54
    235c:	000fe797          	auipc	a5,0xfe
    2360:	6fc78793          	add	a5,a5,1788 # 100a58 <__clz_tab+0x840>
    2364:	0007a603          	lw	a2,0(a5)
    2368:	0047a683          	lw	a3,4(a5)
    236c:	01441413          	sll	s0,s0,0x14
    2370:	00e46433          	or	s0,s0,a4
    2374:	00040593          	mv	a1,s0
    2378:	52c010ef          	jal	38a4 <__muldf3>
    237c:	00050793          	mv	a5,a0
    2380:	0600006f          	j	23e0 <scalbn+0x114>
    2384:	7ff00693          	li	a3,2047
    2388:	00058713          	mv	a4,a1
    238c:	f8d79ee3          	bne	a5,a3,2328 <scalbn+0x5c>
    2390:	00050613          	mv	a2,a0
    2394:	00058693          	mv	a3,a1
    2398:	108000ef          	jal	24a0 <__adddf3>
    239c:	00c12083          	lw	ra,12(sp)
    23a0:	00812403          	lw	s0,8(sp)
    23a4:	00050793          	mv	a5,a0
    23a8:	00078513          	mv	a0,a5
    23ac:	01010113          	add	sp,sp,16
    23b0:	00008067          	ret
    23b4:	000fe797          	auipc	a5,0xfe
    23b8:	67c78793          	add	a5,a5,1660 # 100a30 <__clz_tab+0x818>
    23bc:	0007a803          	lw	a6,0(a5)
    23c0:	0047a883          	lw	a7,4(a5)
    23c4:	0405c463          	bltz	a1,240c <scalbn+0x140>
    23c8:	0007a603          	lw	a2,0(a5)
    23cc:	0047a683          	lw	a3,4(a5)
    23d0:	00080513          	mv	a0,a6
    23d4:	00088593          	mv	a1,a7
    23d8:	4cc010ef          	jal	38a4 <__muldf3>
    23dc:	00050793          	mv	a5,a0
    23e0:	00c12083          	lw	ra,12(sp)
    23e4:	00812403          	lw	s0,8(sp)
    23e8:	00078513          	mv	a0,a5
    23ec:	01010113          	add	sp,sp,16
    23f0:	00008067          	ret
    23f4:	00c12083          	lw	ra,12(sp)
    23f8:	00812403          	lw	s0,8(sp)
    23fc:	00050793          	mv	a5,a0
    2400:	00078513          	mv	a0,a5
    2404:	01010113          	add	sp,sp,16
    2408:	00008067          	ret
    240c:	000fe717          	auipc	a4,0xfe
    2410:	63c70713          	add	a4,a4,1596 # 100a48 <__clz_tab+0x830>
    2414:	00072803          	lw	a6,0(a4)
    2418:	00472883          	lw	a7,4(a4)
    241c:	fadff06f          	j	23c8 <scalbn+0xfc>
    2420:	801007b7          	lui	a5,0x80100
    2424:	fff78793          	add	a5,a5,-1 # 800fffff <MTSSV_BASE+0x7fff8007>
    2428:	00f77733          	and	a4,a4,a5
    242c:	01441413          	sll	s0,s0,0x14
    2430:	00c12083          	lw	ra,12(sp)
    2434:	008765b3          	or	a1,a4,s0
    2438:	00812403          	lw	s0,8(sp)
    243c:	00050793          	mv	a5,a0
    2440:	00078513          	mv	a0,a5
    2444:	01010113          	add	sp,sp,16
    2448:	00008067          	ret
    244c:	000fe697          	auipc	a3,0xfe
    2450:	5f468693          	add	a3,a3,1524 # 100a40 <__clz_tab+0x828>
    2454:	0006a603          	lw	a2,0(a3)
    2458:	0046a683          	lw	a3,4(a3)
    245c:	448010ef          	jal	38a4 <__muldf3>
    2460:	00c12083          	lw	ra,12(sp)
    2464:	00812403          	lw	s0,8(sp)
    2468:	00050793          	mv	a5,a0
    246c:	00078513          	mv	a0,a5
    2470:	01010113          	add	sp,sp,16
    2474:	00008067          	ret
    2478:	000fe797          	auipc	a5,0xfe
    247c:	5c878793          	add	a5,a5,1480 # 100a40 <__clz_tab+0x828>
    2480:	0007a803          	lw	a6,0(a5)
    2484:	0047a883          	lw	a7,4(a5)
    2488:	f405d0e3          	bgez	a1,23c8 <scalbn+0xfc>
    248c:	000fe717          	auipc	a4,0xfe
    2490:	5c470713          	add	a4,a4,1476 # 100a50 <__clz_tab+0x838>
    2494:	00072803          	lw	a6,0(a4)
    2498:	00472883          	lw	a7,4(a4)
    249c:	f2dff06f          	j	23c8 <scalbn+0xfc>

000024a0 <__adddf3>:
    24a0:	001007b7          	lui	a5,0x100
    24a4:	fe010113          	add	sp,sp,-32
    24a8:	fff78e93          	add	t4,a5,-1 # fffff <IMEM_SIZE+0xebfff>
    24ac:	00bef833          	and	a6,t4,a1
    24b0:	00def7b3          	and	a5,t4,a3
    24b4:	0146d313          	srl	t1,a3,0x14
    24b8:	01212823          	sw	s2,16(sp)
    24bc:	0145d913          	srl	s2,a1,0x14
    24c0:	00379793          	sll	a5,a5,0x3
    24c4:	00812c23          	sw	s0,24(sp)
    24c8:	00381813          	sll	a6,a6,0x3
    24cc:	01f5d413          	srl	s0,a1,0x1f
    24d0:	01d55713          	srl	a4,a0,0x1d
    24d4:	01d65893          	srl	a7,a2,0x1d
    24d8:	7ff97913          	and	s2,s2,2047
    24dc:	7ff37313          	and	t1,t1,2047
    24e0:	00112e23          	sw	ra,28(sp)
    24e4:	00912a23          	sw	s1,20(sp)
    24e8:	01312623          	sw	s3,12(sp)
    24ec:	01f6d693          	srl	a3,a3,0x1f
    24f0:	00f8e8b3          	or	a7,a7,a5
    24f4:	01076733          	or	a4,a4,a6
    24f8:	00351593          	sll	a1,a0,0x3
    24fc:	00361f13          	sll	t5,a2,0x3
    2500:	406907b3          	sub	a5,s2,t1
    2504:	1ed40463          	beq	s0,a3,26ec <__adddf3+0x24c>
    2508:	16f05263          	blez	a5,266c <__adddf3+0x1cc>
    250c:	28030663          	beqz	t1,2798 <__adddf3+0x2f8>
    2510:	7ff00693          	li	a3,2047
    2514:	42d90663          	beq	s2,a3,2940 <IMEM_SIZE_PER_THREAD+0x140>
    2518:	03800693          	li	a3,56
    251c:	00100613          	li	a2,1
    2520:	02f6ce63          	blt	a3,a5,255c <__adddf3+0xbc>
    2524:	008006b7          	lui	a3,0x800
    2528:	00d8e8b3          	or	a7,a7,a3
    252c:	01f00693          	li	a3,31
    2530:	52f6ce63          	blt	a3,a5,2a6c <IMEM_SIZE_PER_THREAD+0x26c>
    2534:	02000693          	li	a3,32
    2538:	40f686b3          	sub	a3,a3,a5
    253c:	00d89633          	sll	a2,a7,a3
    2540:	00ff5533          	srl	a0,t5,a5
    2544:	00df16b3          	sll	a3,t5,a3
    2548:	00a66633          	or	a2,a2,a0
    254c:	00d036b3          	snez	a3,a3
    2550:	00f8d8b3          	srl	a7,a7,a5
    2554:	00d66633          	or	a2,a2,a3
    2558:	41170733          	sub	a4,a4,a7
    255c:	40c58633          	sub	a2,a1,a2
    2560:	00c5b5b3          	sltu	a1,a1,a2
    2564:	00060493          	mv	s1,a2
    2568:	40b709b3          	sub	s3,a4,a1
    256c:	00899793          	sll	a5,s3,0x8
    2570:	3207da63          	bgez	a5,28a4 <IMEM_SIZE_PER_THREAD+0xa4>
    2574:	008007b7          	lui	a5,0x800
    2578:	fff78793          	add	a5,a5,-1 # 7fffff <MTSSV_BASE+0x6f8007>
    257c:	00f9f9b3          	and	s3,s3,a5
    2580:	2c098863          	beqz	s3,2850 <IMEM_SIZE_PER_THREAD+0x50>
    2584:	00098513          	mv	a0,s3
    2588:	5c8020ef          	jal	4b50 <__clzsi2>
    258c:	ff850793          	add	a5,a0,-8
    2590:	02000693          	li	a3,32
    2594:	40f68733          	sub	a4,a3,a5
    2598:	00e4d733          	srl	a4,s1,a4
    259c:	00f999b3          	sll	s3,s3,a5
    25a0:	01376733          	or	a4,a4,s3
    25a4:	00f494b3          	sll	s1,s1,a5
    25a8:	4b27c863          	blt	a5,s2,2a58 <IMEM_SIZE_PER_THREAD+0x258>
    25ac:	412787b3          	sub	a5,a5,s2
    25b0:	00178793          	add	a5,a5,1
    25b4:	40f686b3          	sub	a3,a3,a5
    25b8:	00d49633          	sll	a2,s1,a3
    25bc:	00f4d9b3          	srl	s3,s1,a5
    25c0:	00c03633          	snez	a2,a2
    25c4:	01366633          	or	a2,a2,s3
    25c8:	00d716b3          	sll	a3,a4,a3
    25cc:	00c6e4b3          	or	s1,a3,a2
    25d0:	00f759b3          	srl	s3,a4,a5
    25d4:	00000913          	li	s2,0
    25d8:	0074f793          	and	a5,s1,7
    25dc:	02078063          	beqz	a5,25fc <__adddf3+0x15c>
    25e0:	00f4f793          	and	a5,s1,15
    25e4:	00400713          	li	a4,4
    25e8:	00e78a63          	beq	a5,a4,25fc <__adddf3+0x15c>
    25ec:	00448793          	add	a5,s1,4
    25f0:	0097b633          	sltu	a2,a5,s1
    25f4:	00c989b3          	add	s3,s3,a2
    25f8:	00078493          	mv	s1,a5
    25fc:	00899793          	sll	a5,s3,0x8
    2600:	6e07da63          	bgez	a5,2cf4 <IMEM_SIZE_PER_THREAD+0x4f4>
    2604:	00190793          	add	a5,s2,1
    2608:	7ff00713          	li	a4,2047
    260c:	00040e13          	mv	t3,s0
    2610:	2ae78663          	beq	a5,a4,28bc <IMEM_SIZE_PER_THREAD+0xbc>
    2614:	ff800737          	lui	a4,0xff800
    2618:	fff70713          	add	a4,a4,-1 # ff7fffff <MTSSV_BASE+0xff6f8007>
    261c:	00e9f733          	and	a4,s3,a4
    2620:	7ff7f793          	and	a5,a5,2047
    2624:	01d71813          	sll	a6,a4,0x1d
    2628:	0034d613          	srl	a2,s1,0x3
    262c:	00971713          	sll	a4,a4,0x9
    2630:	00c86833          	or	a6,a6,a2
    2634:	00c75713          	srl	a4,a4,0xc
    2638:	01c12083          	lw	ra,28(sp)
    263c:	01812403          	lw	s0,24(sp)
    2640:	01479793          	sll	a5,a5,0x14
    2644:	00e7e7b3          	or	a5,a5,a4
    2648:	01fe1713          	sll	a4,t3,0x1f
    264c:	00e7e7b3          	or	a5,a5,a4
    2650:	01412483          	lw	s1,20(sp)
    2654:	01012903          	lw	s2,16(sp)
    2658:	00c12983          	lw	s3,12(sp)
    265c:	00080513          	mv	a0,a6
    2660:	00078593          	mv	a1,a5
    2664:	02010113          	add	sp,sp,32
    2668:	00008067          	ret
    266c:	14078c63          	beqz	a5,27c4 <__adddf3+0x324>
    2670:	412307b3          	sub	a5,t1,s2
    2674:	3c091263          	bnez	s2,2a38 <IMEM_SIZE_PER_THREAD+0x238>
    2678:	00b76533          	or	a0,a4,a1
    267c:	4c050463          	beqz	a0,2b44 <IMEM_SIZE_PER_THREAD+0x344>
    2680:	fff78513          	add	a0,a5,-1
    2684:	60050263          	beqz	a0,2c88 <IMEM_SIZE_PER_THREAD+0x488>
    2688:	7ff00813          	li	a6,2047
    268c:	57078663          	beq	a5,a6,2bf8 <IMEM_SIZE_PER_THREAD+0x3f8>
    2690:	03800793          	li	a5,56
    2694:	00100613          	li	a2,1
    2698:	02a7cc63          	blt	a5,a0,26d0 <__adddf3+0x230>
    269c:	00050793          	mv	a5,a0
    26a0:	01f00613          	li	a2,31
    26a4:	56f64c63          	blt	a2,a5,2c1c <IMEM_SIZE_PER_THREAD+0x41c>
    26a8:	02000513          	li	a0,32
    26ac:	40f50533          	sub	a0,a0,a5
    26b0:	00a71633          	sll	a2,a4,a0
    26b4:	00f5d833          	srl	a6,a1,a5
    26b8:	00a59533          	sll	a0,a1,a0
    26bc:	01066633          	or	a2,a2,a6
    26c0:	00a03533          	snez	a0,a0
    26c4:	00f75733          	srl	a4,a4,a5
    26c8:	00a66633          	or	a2,a2,a0
    26cc:	40e888b3          	sub	a7,a7,a4
    26d0:	40cf0633          	sub	a2,t5,a2
    26d4:	00cf3733          	sltu	a4,t5,a2
    26d8:	00060493          	mv	s1,a2
    26dc:	40e889b3          	sub	s3,a7,a4
    26e0:	00030913          	mv	s2,t1
    26e4:	00068413          	mv	s0,a3
    26e8:	e85ff06f          	j	256c <__adddf3+0xcc>
    26ec:	1ef05063          	blez	a5,28cc <IMEM_SIZE_PER_THREAD+0xcc>
    26f0:	14031063          	bnez	t1,2830 <IMEM_SIZE_PER_THREAD+0x30>
    26f4:	01e8e6b3          	or	a3,a7,t5
    26f8:	26068c63          	beqz	a3,2970 <IMEM_SIZE_PER_THREAD+0x170>
    26fc:	fff78693          	add	a3,a5,-1
    2700:	48068063          	beqz	a3,2b80 <IMEM_SIZE_PER_THREAD+0x380>
    2704:	7ff00613          	li	a2,2047
    2708:	22c78c63          	beq	a5,a2,2940 <IMEM_SIZE_PER_THREAD+0x140>
    270c:	03800793          	li	a5,56
    2710:	00100993          	li	s3,1
    2714:	02d7cc63          	blt	a5,a3,274c <__adddf3+0x2ac>
    2718:	00068793          	mv	a5,a3
    271c:	01f00693          	li	a3,31
    2720:	4af6c063          	blt	a3,a5,2bc0 <IMEM_SIZE_PER_THREAD+0x3c0>
    2724:	02000693          	li	a3,32
    2728:	40f686b3          	sub	a3,a3,a5
    272c:	00d899b3          	sll	s3,a7,a3
    2730:	00ff5633          	srl	a2,t5,a5
    2734:	00df16b3          	sll	a3,t5,a3
    2738:	00c9e9b3          	or	s3,s3,a2
    273c:	00d036b3          	snez	a3,a3
    2740:	00f8d8b3          	srl	a7,a7,a5
    2744:	00d9e9b3          	or	s3,s3,a3
    2748:	01170733          	add	a4,a4,a7
    274c:	00b985b3          	add	a1,s3,a1
    2750:	0135b9b3          	sltu	s3,a1,s3
    2754:	00058493          	mv	s1,a1
    2758:	00e989b3          	add	s3,s3,a4
    275c:	00899793          	sll	a5,s3,0x8
    2760:	1407d263          	bgez	a5,28a4 <IMEM_SIZE_PER_THREAD+0xa4>
    2764:	00190913          	add	s2,s2,1
    2768:	7ff00793          	li	a5,2047
    276c:	36f90c63          	beq	s2,a5,2ae4 <IMEM_SIZE_PER_THREAD+0x2e4>
    2770:	ff8007b7          	lui	a5,0xff800
    2774:	fff78793          	add	a5,a5,-1 # ff7fffff <MTSSV_BASE+0xff6f8007>
    2778:	0014f613          	and	a2,s1,1
    277c:	00f9f7b3          	and	a5,s3,a5
    2780:	0014d713          	srl	a4,s1,0x1
    2784:	00c76733          	or	a4,a4,a2
    2788:	01f79613          	sll	a2,a5,0x1f
    278c:	00e664b3          	or	s1,a2,a4
    2790:	0017d993          	srl	s3,a5,0x1
    2794:	e45ff06f          	j	25d8 <__adddf3+0x138>
    2798:	01e8e6b3          	or	a3,a7,t5
    279c:	1c068a63          	beqz	a3,2970 <IMEM_SIZE_PER_THREAD+0x170>
    27a0:	fff78693          	add	a3,a5,-1
    27a4:	40068063          	beqz	a3,2ba4 <IMEM_SIZE_PER_THREAD+0x3a4>
    27a8:	7ff00613          	li	a2,2047
    27ac:	18c78a63          	beq	a5,a2,2940 <IMEM_SIZE_PER_THREAD+0x140>
    27b0:	03800793          	li	a5,56
    27b4:	00100613          	li	a2,1
    27b8:	dad7c2e3          	blt	a5,a3,255c <__adddf3+0xbc>
    27bc:	00068793          	mv	a5,a3
    27c0:	d6dff06f          	j	252c <__adddf3+0x8c>
    27c4:	00190813          	add	a6,s2,1
    27c8:	7fe87813          	and	a6,a6,2046
    27cc:	22081c63          	bnez	a6,2a04 <IMEM_SIZE_PER_THREAD+0x204>
    27d0:	00b76333          	or	t1,a4,a1
    27d4:	01e8e833          	or	a6,a7,t5
    27d8:	38091063          	bnez	s2,2b58 <IMEM_SIZE_PER_THREAD+0x358>
    27dc:	46030e63          	beqz	t1,2c58 <IMEM_SIZE_PER_THREAD+0x458>
    27e0:	40080663          	beqz	a6,2bec <IMEM_SIZE_PER_THREAD+0x3ec>
    27e4:	41e589b3          	sub	s3,a1,t5
    27e8:	0135b533          	sltu	a0,a1,s3
    27ec:	41170633          	sub	a2,a4,a7
    27f0:	40a60633          	sub	a2,a2,a0
    27f4:	00861513          	sll	a0,a2,0x8
    27f8:	50055e63          	bgez	a0,2d14 <IMEM_SIZE_PER_THREAD+0x514>
    27fc:	40bf05b3          	sub	a1,t5,a1
    2800:	40e88733          	sub	a4,a7,a4
    2804:	00bf3f33          	sltu	t5,t5,a1
    2808:	41e70733          	sub	a4,a4,t5
    280c:	00871613          	sll	a2,a4,0x8
    2810:	00058493          	mv	s1,a1
    2814:	52065e63          	bgez	a2,2d50 <IMEM_SIZE_PER_THREAD+0x550>
    2818:	ff8007b7          	lui	a5,0xff800
    281c:	fff78793          	add	a5,a5,-1 # ff7fffff <MTSSV_BASE+0xff6f8007>
    2820:	00f77733          	and	a4,a4,a5
    2824:	00068e13          	mv	t3,a3
    2828:	00100793          	li	a5,1
    282c:	df9ff06f          	j	2624 <__adddf3+0x184>
    2830:	7ff00693          	li	a3,2047
    2834:	10d90663          	beq	s2,a3,2940 <IMEM_SIZE_PER_THREAD+0x140>
    2838:	03800693          	li	a3,56
    283c:	00100993          	li	s3,1
    2840:	f0f6c6e3          	blt	a3,a5,274c <__adddf3+0x2ac>
    2844:	008006b7          	lui	a3,0x800
    2848:	00d8e8b3          	or	a7,a7,a3
    284c:	ed1ff06f          	j	271c <__adddf3+0x27c>
    2850:	00048513          	mv	a0,s1
    2854:	2fc020ef          	jal	4b50 <__clzsi2>
    2858:	01850793          	add	a5,a0,24
    285c:	01f00693          	li	a3,31
    2860:	d2f6d8e3          	bge	a3,a5,2590 <__adddf3+0xf0>
    2864:	ff850713          	add	a4,a0,-8
    2868:	00e49733          	sll	a4,s1,a4
    286c:	2327c663          	blt	a5,s2,2a98 <IMEM_SIZE_PER_THREAD+0x298>
    2870:	41278933          	sub	s2,a5,s2
    2874:	00190793          	add	a5,s2,1
    2878:	48f6d663          	bge	a3,a5,2d04 <IMEM_SIZE_PER_THREAD+0x504>
    287c:	fe190913          	add	s2,s2,-31
    2880:	02000693          	li	a3,32
    2884:	012754b3          	srl	s1,a4,s2
    2888:	00d78c63          	beq	a5,a3,28a0 <IMEM_SIZE_PER_THREAD+0xa0>
    288c:	04000693          	li	a3,64
    2890:	40f687b3          	sub	a5,a3,a5
    2894:	00f71733          	sll	a4,a4,a5
    2898:	00e03733          	snez	a4,a4
    289c:	00e4e4b3          	or	s1,s1,a4
    28a0:	00000913          	li	s2,0
    28a4:	0074f793          	and	a5,s1,7
    28a8:	d2079ce3          	bnez	a5,25e0 <__adddf3+0x140>
    28ac:	00090793          	mv	a5,s2
    28b0:	0034d613          	srl	a2,s1,0x3
    28b4:	00098713          	mv	a4,s3
    28b8:	0c00006f          	j	2978 <IMEM_SIZE_PER_THREAD+0x178>
    28bc:	7ff00793          	li	a5,2047
    28c0:	00000713          	li	a4,0
    28c4:	00000813          	li	a6,0
    28c8:	d71ff06f          	j	2638 <__adddf3+0x198>
    28cc:	0c078a63          	beqz	a5,29a0 <IMEM_SIZE_PER_THREAD+0x1a0>
    28d0:	412307b3          	sub	a5,t1,s2
    28d4:	1e090263          	beqz	s2,2ab8 <IMEM_SIZE_PER_THREAD+0x2b8>
    28d8:	7ff00693          	li	a3,2047
    28dc:	32d30863          	beq	t1,a3,2c0c <IMEM_SIZE_PER_THREAD+0x40c>
    28e0:	03800693          	li	a3,56
    28e4:	00100993          	li	s3,1
    28e8:	02f6ce63          	blt	a3,a5,2924 <IMEM_SIZE_PER_THREAD+0x124>
    28ec:	008006b7          	lui	a3,0x800
    28f0:	00d76733          	or	a4,a4,a3
    28f4:	01f00693          	li	a3,31
    28f8:	3cf6c863          	blt	a3,a5,2cc8 <IMEM_SIZE_PER_THREAD+0x4c8>
    28fc:	02000693          	li	a3,32
    2900:	40f686b3          	sub	a3,a3,a5
    2904:	00d719b3          	sll	s3,a4,a3
    2908:	00f5d633          	srl	a2,a1,a5
    290c:	00d596b3          	sll	a3,a1,a3
    2910:	00c9e9b3          	or	s3,s3,a2
    2914:	00d036b3          	snez	a3,a3
    2918:	00f75733          	srl	a4,a4,a5
    291c:	00d9e9b3          	or	s3,s3,a3
    2920:	00e888b3          	add	a7,a7,a4
    2924:	01e98733          	add	a4,s3,t5
    2928:	013739b3          	sltu	s3,a4,s3
    292c:	00070493          	mv	s1,a4
    2930:	011989b3          	add	s3,s3,a7
    2934:	00030913          	mv	s2,t1
    2938:	e25ff06f          	j	275c <__adddf3+0x2bc>
    293c:	02081063          	bnez	a6,295c <IMEM_SIZE_PER_THREAD+0x15c>
    2940:	00351613          	sll	a2,a0,0x3
    2944:	00365613          	srl	a2,a2,0x3
    2948:	01d71813          	sll	a6,a4,0x1d
    294c:	00c86833          	or	a6,a6,a2
    2950:	00375713          	srl	a4,a4,0x3
    2954:	01076733          	or	a4,a4,a6
    2958:	18070663          	beqz	a4,2ae4 <IMEM_SIZE_PER_THREAD+0x2e4>
    295c:	00000e13          	li	t3,0
    2960:	7ff00793          	li	a5,2047
    2964:	00080737          	lui	a4,0x80
    2968:	00000813          	li	a6,0
    296c:	ccdff06f          	j	2638 <__adddf3+0x198>
    2970:	00351613          	sll	a2,a0,0x3
    2974:	00365613          	srl	a2,a2,0x3
    2978:	01d71813          	sll	a6,a4,0x1d
    297c:	7ff00693          	li	a3,2047
    2980:	00c86833          	or	a6,a6,a2
    2984:	00375713          	srl	a4,a4,0x3
    2988:	fcd786e3          	beq	a5,a3,2954 <IMEM_SIZE_PER_THREAD+0x154>
    298c:	00c71713          	sll	a4,a4,0xc
    2990:	00c75713          	srl	a4,a4,0xc
    2994:	7ff7f793          	and	a5,a5,2047
    2998:	00040e13          	mv	t3,s0
    299c:	c9dff06f          	j	2638 <__adddf3+0x198>
    29a0:	00190693          	add	a3,s2,1
    29a4:	7fe6f813          	and	a6,a3,2046
    29a8:	14081863          	bnez	a6,2af8 <IMEM_SIZE_PER_THREAD+0x2f8>
    29ac:	00b766b3          	or	a3,a4,a1
    29b0:	28091c63          	bnez	s2,2c48 <IMEM_SIZE_PER_THREAD+0x448>
    29b4:	30068263          	beqz	a3,2cb8 <IMEM_SIZE_PER_THREAD+0x4b8>
    29b8:	01e8e6b3          	or	a3,a7,t5
    29bc:	22068863          	beqz	a3,2bec <IMEM_SIZE_PER_THREAD+0x3ec>
    29c0:	01e587b3          	add	a5,a1,t5
    29c4:	00b7b5b3          	sltu	a1,a5,a1
    29c8:	01170733          	add	a4,a4,a7
    29cc:	00b70733          	add	a4,a4,a1
    29d0:	0037d813          	srl	a6,a5,0x3
    29d4:	00871793          	sll	a5,a4,0x8
    29d8:	00040e13          	mv	t3,s0
    29dc:	3407de63          	bgez	a5,2d38 <IMEM_SIZE_PER_THREAD+0x538>
    29e0:	ff8007b7          	lui	a5,0xff800
    29e4:	fff78793          	add	a5,a5,-1 # ff7fffff <MTSSV_BASE+0xff6f8007>
    29e8:	00f77733          	and	a4,a4,a5
    29ec:	01d71793          	sll	a5,a4,0x1d
    29f0:	00375713          	srl	a4,a4,0x3
    29f4:	0107e833          	or	a6,a5,a6
    29f8:	01d77733          	and	a4,a4,t4
    29fc:	00100793          	li	a5,1
    2a00:	c39ff06f          	j	2638 <__adddf3+0x198>
    2a04:	41e58833          	sub	a6,a1,t5
    2a08:	0105b7b3          	sltu	a5,a1,a6
    2a0c:	411709b3          	sub	s3,a4,a7
    2a10:	40f989b3          	sub	s3,s3,a5
    2a14:	00899793          	sll	a5,s3,0x8
    2a18:	00080493          	mv	s1,a6
    2a1c:	1007c663          	bltz	a5,2b28 <IMEM_SIZE_PER_THREAD+0x328>
    2a20:	01386833          	or	a6,a6,s3
    2a24:	b4081ee3          	bnez	a6,2580 <__adddf3+0xe0>
    2a28:	00000e13          	li	t3,0
    2a2c:	00000793          	li	a5,0
    2a30:	00000713          	li	a4,0
    2a34:	c05ff06f          	j	2638 <__adddf3+0x198>
    2a38:	7ff00513          	li	a0,2047
    2a3c:	1aa30e63          	beq	t1,a0,2bf8 <IMEM_SIZE_PER_THREAD+0x3f8>
    2a40:	03800513          	li	a0,56
    2a44:	00100613          	li	a2,1
    2a48:	c8f544e3          	blt	a0,a5,26d0 <__adddf3+0x230>
    2a4c:	00800637          	lui	a2,0x800
    2a50:	00c76733          	or	a4,a4,a2
    2a54:	c4dff06f          	j	26a0 <__adddf3+0x200>
    2a58:	ff8009b7          	lui	s3,0xff800
    2a5c:	fff98993          	add	s3,s3,-1 # ff7fffff <MTSSV_BASE+0xff6f8007>
    2a60:	40f90933          	sub	s2,s2,a5
    2a64:	013779b3          	and	s3,a4,s3
    2a68:	b71ff06f          	j	25d8 <__adddf3+0x138>
    2a6c:	fe078693          	add	a3,a5,-32
    2a70:	02000613          	li	a2,32
    2a74:	00d8d6b3          	srl	a3,a7,a3
    2a78:	00c78a63          	beq	a5,a2,2a8c <IMEM_SIZE_PER_THREAD+0x28c>
    2a7c:	04000613          	li	a2,64
    2a80:	40f607b3          	sub	a5,a2,a5
    2a84:	00f897b3          	sll	a5,a7,a5
    2a88:	00ff6f33          	or	t5,t5,a5
    2a8c:	01e03633          	snez	a2,t5
    2a90:	00d66633          	or	a2,a2,a3
    2a94:	ac9ff06f          	j	255c <__adddf3+0xbc>
    2a98:	ff8006b7          	lui	a3,0xff800
    2a9c:	fff68693          	add	a3,a3,-1 # ff7fffff <MTSSV_BASE+0xff6f8007>
    2aa0:	40f907b3          	sub	a5,s2,a5
    2aa4:	00d77733          	and	a4,a4,a3
    2aa8:	01d71813          	sll	a6,a4,0x1d
    2aac:	01386833          	or	a6,a6,s3
    2ab0:	00375713          	srl	a4,a4,0x3
    2ab4:	ed9ff06f          	j	298c <IMEM_SIZE_PER_THREAD+0x18c>
    2ab8:	00b766b3          	or	a3,a4,a1
    2abc:	1e068663          	beqz	a3,2ca8 <IMEM_SIZE_PER_THREAD+0x4a8>
    2ac0:	fff78693          	add	a3,a5,-1
    2ac4:	0a068e63          	beqz	a3,2b80 <IMEM_SIZE_PER_THREAD+0x380>
    2ac8:	7ff00513          	li	a0,2047
    2acc:	14a78063          	beq	a5,a0,2c0c <IMEM_SIZE_PER_THREAD+0x40c>
    2ad0:	03800793          	li	a5,56
    2ad4:	00100993          	li	s3,1
    2ad8:	e4d7c6e3          	blt	a5,a3,2924 <IMEM_SIZE_PER_THREAD+0x124>
    2adc:	00068793          	mv	a5,a3
    2ae0:	e15ff06f          	j	28f4 <IMEM_SIZE_PER_THREAD+0xf4>
    2ae4:	00040e13          	mv	t3,s0
    2ae8:	7ff00793          	li	a5,2047
    2aec:	00000713          	li	a4,0
    2af0:	00000813          	li	a6,0
    2af4:	b45ff06f          	j	2638 <__adddf3+0x198>
    2af8:	7ff00793          	li	a5,2047
    2afc:	fef684e3          	beq	a3,a5,2ae4 <IMEM_SIZE_PER_THREAD+0x2e4>
    2b00:	01e58f33          	add	t5,a1,t5
    2b04:	00bf35b3          	sltu	a1,t5,a1
    2b08:	011707b3          	add	a5,a4,a7
    2b0c:	00b787b3          	add	a5,a5,a1
    2b10:	01f79613          	sll	a2,a5,0x1f
    2b14:	001f5f13          	srl	t5,t5,0x1
    2b18:	01e664b3          	or	s1,a2,t5
    2b1c:	0017d993          	srl	s3,a5,0x1
    2b20:	00068913          	mv	s2,a3
    2b24:	ab5ff06f          	j	25d8 <__adddf3+0x138>
    2b28:	40bf0633          	sub	a2,t5,a1
    2b2c:	40e887b3          	sub	a5,a7,a4
    2b30:	00cf3733          	sltu	a4,t5,a2
    2b34:	00060493          	mv	s1,a2
    2b38:	40e789b3          	sub	s3,a5,a4
    2b3c:	00068413          	mv	s0,a3
    2b40:	a41ff06f          	j	2580 <__adddf3+0xe0>
    2b44:	00361613          	sll	a2,a2,0x3
    2b48:	00365613          	srl	a2,a2,0x3
    2b4c:	00068413          	mv	s0,a3
    2b50:	00088713          	mv	a4,a7
    2b54:	e25ff06f          	j	2978 <IMEM_SIZE_PER_THREAD+0x178>
    2b58:	de0312e3          	bnez	t1,293c <IMEM_SIZE_PER_THREAD+0x13c>
    2b5c:	1c080663          	beqz	a6,2d28 <IMEM_SIZE_PER_THREAD+0x528>
    2b60:	0038d713          	srl	a4,a7,0x3
    2b64:	00361613          	sll	a2,a2,0x3
    2b68:	01d89893          	sll	a7,a7,0x1d
    2b6c:	01176733          	or	a4,a4,a7
    2b70:	00365613          	srl	a2,a2,0x3
    2b74:	00c76733          	or	a4,a4,a2
    2b78:	00068413          	mv	s0,a3
    2b7c:	dddff06f          	j	2958 <IMEM_SIZE_PER_THREAD+0x158>
    2b80:	01e58f33          	add	t5,a1,t5
    2b84:	011708b3          	add	a7,a4,a7
    2b88:	00bf35b3          	sltu	a1,t5,a1
    2b8c:	00b889b3          	add	s3,a7,a1
    2b90:	00899793          	sll	a5,s3,0x8
    2b94:	000f0493          	mv	s1,t5
    2b98:	0e07d463          	bgez	a5,2c80 <IMEM_SIZE_PER_THREAD+0x480>
    2b9c:	00200913          	li	s2,2
    2ba0:	bd1ff06f          	j	2770 <__adddf3+0x2d0>
    2ba4:	41e58f33          	sub	t5,a1,t5
    2ba8:	411708b3          	sub	a7,a4,a7
    2bac:	01e5b5b3          	sltu	a1,a1,t5
    2bb0:	000f0493          	mv	s1,t5
    2bb4:	40b889b3          	sub	s3,a7,a1
    2bb8:	00100913          	li	s2,1
    2bbc:	9b1ff06f          	j	256c <__adddf3+0xcc>
    2bc0:	fe078693          	add	a3,a5,-32
    2bc4:	02000613          	li	a2,32
    2bc8:	00d8d6b3          	srl	a3,a7,a3
    2bcc:	00c78a63          	beq	a5,a2,2be0 <IMEM_SIZE_PER_THREAD+0x3e0>
    2bd0:	04000613          	li	a2,64
    2bd4:	40f607b3          	sub	a5,a2,a5
    2bd8:	00f897b3          	sll	a5,a7,a5
    2bdc:	00ff6f33          	or	t5,t5,a5
    2be0:	01e039b3          	snez	s3,t5
    2be4:	00d9e9b3          	or	s3,s3,a3
    2be8:	b65ff06f          	j	274c <__adddf3+0x2ac>
    2bec:	00351613          	sll	a2,a0,0x3
    2bf0:	00365993          	srl	s3,a2,0x3
    2bf4:	eb5ff06f          	j	2aa8 <IMEM_SIZE_PER_THREAD+0x2a8>
    2bf8:	00361613          	sll	a2,a2,0x3
    2bfc:	00365613          	srl	a2,a2,0x3
    2c00:	00068413          	mv	s0,a3
    2c04:	00088713          	mv	a4,a7
    2c08:	d41ff06f          	j	2948 <IMEM_SIZE_PER_THREAD+0x148>
    2c0c:	00361613          	sll	a2,a2,0x3
    2c10:	00365613          	srl	a2,a2,0x3
    2c14:	00088713          	mv	a4,a7
    2c18:	d31ff06f          	j	2948 <IMEM_SIZE_PER_THREAD+0x148>
    2c1c:	fe078513          	add	a0,a5,-32
    2c20:	02000613          	li	a2,32
    2c24:	00a75533          	srl	a0,a4,a0
    2c28:	00c78a63          	beq	a5,a2,2c3c <IMEM_SIZE_PER_THREAD+0x43c>
    2c2c:	04000613          	li	a2,64
    2c30:	40f607b3          	sub	a5,a2,a5
    2c34:	00f717b3          	sll	a5,a4,a5
    2c38:	00f5e5b3          	or	a1,a1,a5
    2c3c:	00b03633          	snez	a2,a1
    2c40:	00a66633          	or	a2,a2,a0
    2c44:	a8dff06f          	j	26d0 <__adddf3+0x230>
    2c48:	fc0682e3          	beqz	a3,2c0c <IMEM_SIZE_PER_THREAD+0x40c>
    2c4c:	01e8ef33          	or	t5,a7,t5
    2c50:	d00f16e3          	bnez	t5,295c <IMEM_SIZE_PER_THREAD+0x15c>
    2c54:	cedff06f          	j	2940 <IMEM_SIZE_PER_THREAD+0x140>
    2c58:	dc0808e3          	beqz	a6,2a28 <IMEM_SIZE_PER_THREAD+0x228>
    2c5c:	00361813          	sll	a6,a2,0x3
    2c60:	01d89793          	sll	a5,a7,0x1d
    2c64:	00385813          	srl	a6,a6,0x3
    2c68:	0038d713          	srl	a4,a7,0x3
    2c6c:	00f86833          	or	a6,a6,a5
    2c70:	01d77733          	and	a4,a4,t4
    2c74:	00068e13          	mv	t3,a3
    2c78:	00000793          	li	a5,0
    2c7c:	9bdff06f          	j	2638 <__adddf3+0x198>
    2c80:	00100793          	li	a5,1
    2c84:	c2dff06f          	j	28b0 <IMEM_SIZE_PER_THREAD+0xb0>
    2c88:	40bf05b3          	sub	a1,t5,a1
    2c8c:	40e888b3          	sub	a7,a7,a4
    2c90:	00bf3733          	sltu	a4,t5,a1
    2c94:	00058493          	mv	s1,a1
    2c98:	40e889b3          	sub	s3,a7,a4
    2c9c:	00068413          	mv	s0,a3
    2ca0:	00100913          	li	s2,1
    2ca4:	8c9ff06f          	j	256c <__adddf3+0xcc>
    2ca8:	00361613          	sll	a2,a2,0x3
    2cac:	00365613          	srl	a2,a2,0x3
    2cb0:	00088713          	mv	a4,a7
    2cb4:	cc5ff06f          	j	2978 <IMEM_SIZE_PER_THREAD+0x178>
    2cb8:	00361613          	sll	a2,a2,0x3
    2cbc:	00365993          	srl	s3,a2,0x3
    2cc0:	00088713          	mv	a4,a7
    2cc4:	de5ff06f          	j	2aa8 <IMEM_SIZE_PER_THREAD+0x2a8>
    2cc8:	fe078693          	add	a3,a5,-32
    2ccc:	02000613          	li	a2,32
    2cd0:	00d756b3          	srl	a3,a4,a3
    2cd4:	00c78a63          	beq	a5,a2,2ce8 <IMEM_SIZE_PER_THREAD+0x4e8>
    2cd8:	04000613          	li	a2,64
    2cdc:	40f607b3          	sub	a5,a2,a5
    2ce0:	00f717b3          	sll	a5,a4,a5
    2ce4:	00f5e5b3          	or	a1,a1,a5
    2ce8:	00b039b3          	snez	s3,a1
    2cec:	00d9e9b3          	or	s3,s3,a3
    2cf0:	c35ff06f          	j	2924 <IMEM_SIZE_PER_THREAD+0x124>
    2cf4:	0034d613          	srl	a2,s1,0x3
    2cf8:	00090793          	mv	a5,s2
    2cfc:	00098713          	mv	a4,s3
    2d00:	c79ff06f          	j	2978 <IMEM_SIZE_PER_THREAD+0x178>
    2d04:	02000693          	li	a3,32
    2d08:	40f686b3          	sub	a3,a3,a5
    2d0c:	00000613          	li	a2,0
    2d10:	8b5ff06f          	j	25c4 <__adddf3+0x124>
    2d14:	00c9e833          	or	a6,s3,a2
    2d18:	d00808e3          	beqz	a6,2a28 <IMEM_SIZE_PER_THREAD+0x228>
    2d1c:	0039d993          	srl	s3,s3,0x3
    2d20:	00060713          	mv	a4,a2
    2d24:	d85ff06f          	j	2aa8 <IMEM_SIZE_PER_THREAD+0x2a8>
    2d28:	00000e13          	li	t3,0
    2d2c:	7ff00793          	li	a5,2047
    2d30:	00080737          	lui	a4,0x80
    2d34:	905ff06f          	j	2638 <__adddf3+0x198>
    2d38:	01d71793          	sll	a5,a4,0x1d
    2d3c:	00375713          	srl	a4,a4,0x3
    2d40:	0107e833          	or	a6,a5,a6
    2d44:	01d77733          	and	a4,a4,t4
    2d48:	00000793          	li	a5,0
    2d4c:	8edff06f          	j	2638 <__adddf3+0x198>
    2d50:	01d71813          	sll	a6,a4,0x1d
    2d54:	0035d593          	srl	a1,a1,0x3
    2d58:	00b86833          	or	a6,a6,a1
    2d5c:	00375713          	srl	a4,a4,0x3
    2d60:	00068413          	mv	s0,a3
    2d64:	c29ff06f          	j	298c <IMEM_SIZE_PER_THREAD+0x18c>

00002d68 <__divdf3>:
    2d68:	fb010113          	add	sp,sp,-80
    2d6c:	0145d793          	srl	a5,a1,0x14
    2d70:	04812423          	sw	s0,72(sp)
    2d74:	04912223          	sw	s1,68(sp)
    2d78:	05212023          	sw	s2,64(sp)
    2d7c:	03412c23          	sw	s4,56(sp)
    2d80:	03512a23          	sw	s5,52(sp)
    2d84:	00c59493          	sll	s1,a1,0xc
    2d88:	04112623          	sw	ra,76(sp)
    2d8c:	03312e23          	sw	s3,60(sp)
    2d90:	03612823          	sw	s6,48(sp)
    2d94:	03712623          	sw	s7,44(sp)
    2d98:	03812423          	sw	s8,40(sp)
    2d9c:	7ff7f793          	and	a5,a5,2047
    2da0:	00050413          	mv	s0,a0
    2da4:	00060a13          	mv	s4,a2
    2da8:	00068913          	mv	s2,a3
    2dac:	00c4d493          	srl	s1,s1,0xc
    2db0:	01f5da93          	srl	s5,a1,0x1f
    2db4:	18078a63          	beqz	a5,2f48 <__divdf3+0x1e0>
    2db8:	7ff00713          	li	a4,2047
    2dbc:	08e78863          	beq	a5,a4,2e4c <__divdf3+0xe4>
    2dc0:	01d55b13          	srl	s6,a0,0x1d
    2dc4:	00349493          	sll	s1,s1,0x3
    2dc8:	009b64b3          	or	s1,s6,s1
    2dcc:	00800737          	lui	a4,0x800
    2dd0:	00e4eb33          	or	s6,s1,a4
    2dd4:	00351b93          	sll	s7,a0,0x3
    2dd8:	c0178993          	add	s3,a5,-1023
    2ddc:	00000493          	li	s1,0
    2de0:	00000c13          	li	s8,0
    2de4:	01495793          	srl	a5,s2,0x14
    2de8:	00c91413          	sll	s0,s2,0xc
    2dec:	7ff7f793          	and	a5,a5,2047
    2df0:	00c45413          	srl	s0,s0,0xc
    2df4:	01f95913          	srl	s2,s2,0x1f
    2df8:	08078263          	beqz	a5,2e7c <__divdf3+0x114>
    2dfc:	7ff00713          	li	a4,2047
    2e00:	18e78a63          	beq	a5,a4,2f94 <__divdf3+0x22c>
    2e04:	00341413          	sll	s0,s0,0x3
    2e08:	01da5713          	srl	a4,s4,0x1d
    2e0c:	00876733          	or	a4,a4,s0
    2e10:	c0178793          	add	a5,a5,-1023
    2e14:	00800437          	lui	s0,0x800
    2e18:	40f989b3          	sub	s3,s3,a5
    2e1c:	00876433          	or	s0,a4,s0
    2e20:	003a1813          	sll	a6,s4,0x3
    2e24:	00000793          	li	a5,0
    2e28:	00f00713          	li	a4,15
    2e2c:	012aca33          	xor	s4,s5,s2
    2e30:	24976463          	bltu	a4,s1,3078 <__divdf3+0x310>
    2e34:	00100737          	lui	a4,0x100
    2e38:	1d870713          	add	a4,a4,472 # 1001d8 <PIo2+0x40>
    2e3c:	00249493          	sll	s1,s1,0x2
    2e40:	00e484b3          	add	s1,s1,a4
    2e44:	0004a703          	lw	a4,0(s1)
    2e48:	00070067          	jr	a4
    2e4c:	00a4eb33          	or	s6,s1,a0
    2e50:	1c0b1e63          	bnez	s6,302c <__divdf3+0x2c4>
    2e54:	01495793          	srl	a5,s2,0x14
    2e58:	00c91413          	sll	s0,s2,0xc
    2e5c:	7ff7f793          	and	a5,a5,2047
    2e60:	00000b93          	li	s7,0
    2e64:	00800493          	li	s1,8
    2e68:	7ff00993          	li	s3,2047
    2e6c:	00200c13          	li	s8,2
    2e70:	00c45413          	srl	s0,s0,0xc
    2e74:	01f95913          	srl	s2,s2,0x1f
    2e78:	f80792e3          	bnez	a5,2dfc <__divdf3+0x94>
    2e7c:	01446833          	or	a6,s0,s4
    2e80:	1c080263          	beqz	a6,3044 <__divdf3+0x2dc>
    2e84:	5c040663          	beqz	s0,3450 <__divdf3+0x6e8>
    2e88:	00040513          	mv	a0,s0
    2e8c:	4c5010ef          	jal	4b50 <__clzsi2>
    2e90:	00050793          	mv	a5,a0
    2e94:	ff550693          	add	a3,a0,-11
    2e98:	01d00713          	li	a4,29
    2e9c:	ff878813          	add	a6,a5,-8
    2ea0:	40d70733          	sub	a4,a4,a3
    2ea4:	01041433          	sll	s0,s0,a6
    2ea8:	00ea5733          	srl	a4,s4,a4
    2eac:	00876433          	or	s0,a4,s0
    2eb0:	010a1833          	sll	a6,s4,a6
    2eb4:	013787b3          	add	a5,a5,s3
    2eb8:	3f378993          	add	s3,a5,1011
    2ebc:	00000793          	li	a5,0
    2ec0:	f69ff06f          	j	2e28 <__divdf3+0xc0>
    2ec4:	40f70733          	sub	a4,a4,a5
    2ec8:	03800693          	li	a3,56
    2ecc:	60e6d063          	bge	a3,a4,34cc <__divdf3+0x764>
    2ed0:	00000793          	li	a5,0
    2ed4:	00000693          	li	a3,0
    2ed8:	00000713          	li	a4,0
    2edc:	04c12083          	lw	ra,76(sp)
    2ee0:	04812403          	lw	s0,72(sp)
    2ee4:	01479793          	sll	a5,a5,0x14
    2ee8:	00d7e7b3          	or	a5,a5,a3
    2eec:	01fa1693          	sll	a3,s4,0x1f
    2ef0:	00d7e7b3          	or	a5,a5,a3
    2ef4:	04412483          	lw	s1,68(sp)
    2ef8:	04012903          	lw	s2,64(sp)
    2efc:	03c12983          	lw	s3,60(sp)
    2f00:	03812a03          	lw	s4,56(sp)
    2f04:	03412a83          	lw	s5,52(sp)
    2f08:	03012b03          	lw	s6,48(sp)
    2f0c:	02c12b83          	lw	s7,44(sp)
    2f10:	02812c03          	lw	s8,40(sp)
    2f14:	00070513          	mv	a0,a4
    2f18:	00078593          	mv	a1,a5
    2f1c:	05010113          	add	sp,sp,80
    2f20:	00008067          	ret
    2f24:	7ff00793          	li	a5,2047
    2f28:	00000693          	li	a3,0
    2f2c:	00000713          	li	a4,0
    2f30:	fadff06f          	j	2edc <__divdf3+0x174>
    2f34:	00000a13          	li	s4,0
    2f38:	7ff00793          	li	a5,2047
    2f3c:	000806b7          	lui	a3,0x80
    2f40:	00000713          	li	a4,0
    2f44:	f99ff06f          	j	2edc <__divdf3+0x174>
    2f48:	00a4eb33          	or	s6,s1,a0
    2f4c:	100b0c63          	beqz	s6,3064 <__divdf3+0x2fc>
    2f50:	52048463          	beqz	s1,3478 <__divdf3+0x710>
    2f54:	00048513          	mv	a0,s1
    2f58:	3f9010ef          	jal	4b50 <__clzsi2>
    2f5c:	00050713          	mv	a4,a0
    2f60:	ff550793          	add	a5,a0,-11
    2f64:	01d00b13          	li	s6,29
    2f68:	ff870b93          	add	s7,a4,-8
    2f6c:	40fb0b33          	sub	s6,s6,a5
    2f70:	017494b3          	sll	s1,s1,s7
    2f74:	01645b33          	srl	s6,s0,s6
    2f78:	009b6b33          	or	s6,s6,s1
    2f7c:	01741bb3          	sll	s7,s0,s7
    2f80:	c0d00793          	li	a5,-1011
    2f84:	40e789b3          	sub	s3,a5,a4
    2f88:	00000493          	li	s1,0
    2f8c:	00000c13          	li	s8,0
    2f90:	e55ff06f          	j	2de4 <__divdf3+0x7c>
    2f94:	01446833          	or	a6,s0,s4
    2f98:	80198993          	add	s3,s3,-2047
    2f9c:	0a081c63          	bnez	a6,3054 <__divdf3+0x2ec>
    2fa0:	0024e493          	or	s1,s1,2
    2fa4:	00000413          	li	s0,0
    2fa8:	00200793          	li	a5,2
    2fac:	e7dff06f          	j	2e28 <__divdf3+0xc0>
    2fb0:	000a8913          	mv	s2,s5
    2fb4:	000b0413          	mv	s0,s6
    2fb8:	000b8813          	mv	a6,s7
    2fbc:	00200793          	li	a5,2
    2fc0:	60fc0863          	beq	s8,a5,35d0 <__divdf3+0x868>
    2fc4:	00300793          	li	a5,3
    2fc8:	f6fc06e3          	beq	s8,a5,2f34 <__divdf3+0x1cc>
    2fcc:	00100793          	li	a5,1
    2fd0:	00090a13          	mv	s4,s2
    2fd4:	eefc0ee3          	beq	s8,a5,2ed0 <__divdf3+0x168>
    2fd8:	3ff98793          	add	a5,s3,1023
    2fdc:	3cf05263          	blez	a5,33a0 <__divdf3+0x638>
    2fe0:	00787713          	and	a4,a6,7
    2fe4:	5c071663          	bnez	a4,35b0 <__divdf3+0x848>
    2fe8:	00741713          	sll	a4,s0,0x7
    2fec:	00075a63          	bgez	a4,3000 <__divdf3+0x298>
    2ff0:	ff0007b7          	lui	a5,0xff000
    2ff4:	fff78793          	add	a5,a5,-1 # feffffff <MTSSV_BASE+0xfeef8007>
    2ff8:	00f47433          	and	s0,s0,a5
    2ffc:	40098793          	add	a5,s3,1024
    3000:	7fe00713          	li	a4,2046
    3004:	f2f740e3          	blt	a4,a5,2f24 <__divdf3+0x1bc>
    3008:	00385813          	srl	a6,a6,0x3
    300c:	01d41713          	sll	a4,s0,0x1d
    3010:	00941693          	sll	a3,s0,0x9
    3014:	01076733          	or	a4,a4,a6
    3018:	00c6d693          	srl	a3,a3,0xc
    301c:	7ff7f793          	and	a5,a5,2047
    3020:	ebdff06f          	j	2edc <__divdf3+0x174>
    3024:	00078c13          	mv	s8,a5
    3028:	f95ff06f          	j	2fbc <__divdf3+0x254>
    302c:	00048b13          	mv	s6,s1
    3030:	00050b93          	mv	s7,a0
    3034:	00c00493          	li	s1,12
    3038:	7ff00993          	li	s3,2047
    303c:	00300c13          	li	s8,3
    3040:	da5ff06f          	j	2de4 <__divdf3+0x7c>
    3044:	0014e493          	or	s1,s1,1
    3048:	00000413          	li	s0,0
    304c:	00100793          	li	a5,1
    3050:	dd9ff06f          	j	2e28 <__divdf3+0xc0>
    3054:	0034e493          	or	s1,s1,3
    3058:	000a0813          	mv	a6,s4
    305c:	00300793          	li	a5,3
    3060:	dc9ff06f          	j	2e28 <__divdf3+0xc0>
    3064:	00000b93          	li	s7,0
    3068:	00400493          	li	s1,4
    306c:	00000993          	li	s3,0
    3070:	00100c13          	li	s8,1
    3074:	d71ff06f          	j	2de4 <__divdf3+0x7c>
    3078:	03912223          	sw	s9,36(sp)
    307c:	03a12023          	sw	s10,32(sp)
    3080:	01b12e23          	sw	s11,28(sp)
    3084:	3b646a63          	bltu	s0,s6,3438 <__divdf3+0x6d0>
    3088:	3a8b0663          	beq	s6,s0,3434 <__divdf3+0x6cc>
    308c:	fff98993          	add	s3,s3,-1
    3090:	000b8c13          	mv	s8,s7
    3094:	000b0493          	mv	s1,s6
    3098:	00000d13          	li	s10,0
    309c:	01885c93          	srl	s9,a6,0x18
    30a0:	00841413          	sll	s0,s0,0x8
    30a4:	01045913          	srl	s2,s0,0x10
    30a8:	008cecb3          	or	s9,s9,s0
    30ac:	00090593          	mv	a1,s2
    30b0:	00048513          	mv	a0,s1
    30b4:	010c9b13          	sll	s6,s9,0x10
    30b8:	00881a93          	sll	s5,a6,0x8
    30bc:	010b5b13          	srl	s6,s6,0x10
    30c0:	1e5010ef          	jal	4aa4 <__hidden___udivsi3>
    30c4:	00050593          	mv	a1,a0
    30c8:	00050413          	mv	s0,a0
    30cc:	000b0513          	mv	a0,s6
    30d0:	1a9010ef          	jal	4a78 <__mulsi3>
    30d4:	00050793          	mv	a5,a0
    30d8:	00090593          	mv	a1,s2
    30dc:	00048513          	mv	a0,s1
    30e0:	00078493          	mv	s1,a5
    30e4:	209010ef          	jal	4aec <__umodsi3>
    30e8:	01051513          	sll	a0,a0,0x10
    30ec:	010c5793          	srl	a5,s8,0x10
    30f0:	00a7e7b3          	or	a5,a5,a0
    30f4:	0097fa63          	bgeu	a5,s1,3108 <__divdf3+0x3a0>
    30f8:	00fc87b3          	add	a5,s9,a5
    30fc:	fff40713          	add	a4,s0,-1 # 7fffff <MTSSV_BASE+0x6f8007>
    3100:	3b97fe63          	bgeu	a5,s9,34bc <__divdf3+0x754>
    3104:	00070413          	mv	s0,a4
    3108:	409784b3          	sub	s1,a5,s1
    310c:	00090593          	mv	a1,s2
    3110:	00048513          	mv	a0,s1
    3114:	191010ef          	jal	4aa4 <__hidden___udivsi3>
    3118:	00050593          	mv	a1,a0
    311c:	00050b93          	mv	s7,a0
    3120:	000b0513          	mv	a0,s6
    3124:	155010ef          	jal	4a78 <__mulsi3>
    3128:	00050793          	mv	a5,a0
    312c:	00090593          	mv	a1,s2
    3130:	00048513          	mv	a0,s1
    3134:	00078493          	mv	s1,a5
    3138:	1b5010ef          	jal	4aec <__umodsi3>
    313c:	010c1793          	sll	a5,s8,0x10
    3140:	01051513          	sll	a0,a0,0x10
    3144:	0107d793          	srl	a5,a5,0x10
    3148:	00a7e7b3          	or	a5,a5,a0
    314c:	0097fa63          	bgeu	a5,s1,3160 <__divdf3+0x3f8>
    3150:	00fc87b3          	add	a5,s9,a5
    3154:	fffb8713          	add	a4,s7,-1
    3158:	3597fa63          	bgeu	a5,s9,34ac <__divdf3+0x744>
    315c:	00070b93          	mv	s7,a4
    3160:	00010337          	lui	t1,0x10
    3164:	01041413          	sll	s0,s0,0x10
    3168:	01746433          	or	s0,s0,s7
    316c:	fff30d93          	add	s11,t1,-1 # ffff <DMEM_TOTAL_SIZE+0x7fff>
    3170:	01b478b3          	and	a7,s0,s11
    3174:	01bafdb3          	and	s11,s5,s11
    3178:	40978bb3          	sub	s7,a5,s1
    317c:	010adc13          	srl	s8,s5,0x10
    3180:	01045793          	srl	a5,s0,0x10
    3184:	00088513          	mv	a0,a7
    3188:	000d8593          	mv	a1,s11
    318c:	0ed010ef          	jal	4a78 <__mulsi3>
    3190:	00050813          	mv	a6,a0
    3194:	000c0593          	mv	a1,s8
    3198:	00088513          	mv	a0,a7
    319c:	0dd010ef          	jal	4a78 <__mulsi3>
    31a0:	00050893          	mv	a7,a0
    31a4:	000d8593          	mv	a1,s11
    31a8:	00078513          	mv	a0,a5
    31ac:	0cd010ef          	jal	4a78 <__mulsi3>
    31b0:	00050e13          	mv	t3,a0
    31b4:	000c0593          	mv	a1,s8
    31b8:	00078513          	mv	a0,a5
    31bc:	0bd010ef          	jal	4a78 <__mulsi3>
    31c0:	01085793          	srl	a5,a6,0x10
    31c4:	01c888b3          	add	a7,a7,t3
    31c8:	011787b3          	add	a5,a5,a7
    31cc:	01c7f463          	bgeu	a5,t3,31d4 <__divdf3+0x46c>
    31d0:	00650533          	add	a0,a0,t1
    31d4:	00010637          	lui	a2,0x10
    31d8:	fff60613          	add	a2,a2,-1 # ffff <DMEM_TOTAL_SIZE+0x7fff>
    31dc:	00c7f4b3          	and	s1,a5,a2
    31e0:	0107d693          	srl	a3,a5,0x10
    31e4:	01049493          	sll	s1,s1,0x10
    31e8:	00c87833          	and	a6,a6,a2
    31ec:	00a687b3          	add	a5,a3,a0
    31f0:	010484b3          	add	s1,s1,a6
    31f4:	20fbea63          	bltu	s7,a5,3408 <__divdf3+0x6a0>
    31f8:	20fb8663          	beq	s7,a5,3404 <__divdf3+0x69c>
    31fc:	409d04b3          	sub	s1,s10,s1
    3200:	40fb8bb3          	sub	s7,s7,a5
    3204:	009d3d33          	sltu	s10,s10,s1
    3208:	41ab8bb3          	sub	s7,s7,s10
    320c:	377c8a63          	beq	s9,s7,3580 <__divdf3+0x818>
    3210:	00090593          	mv	a1,s2
    3214:	000b8513          	mv	a0,s7
    3218:	08d010ef          	jal	4aa4 <__hidden___udivsi3>
    321c:	00050593          	mv	a1,a0
    3220:	00a12623          	sw	a0,12(sp)
    3224:	00050d13          	mv	s10,a0
    3228:	000b0513          	mv	a0,s6
    322c:	04d010ef          	jal	4a78 <__mulsi3>
    3230:	00050793          	mv	a5,a0
    3234:	00090593          	mv	a1,s2
    3238:	000b8513          	mv	a0,s7
    323c:	00078b93          	mv	s7,a5
    3240:	0ad010ef          	jal	4aec <__umodsi3>
    3244:	01051513          	sll	a0,a0,0x10
    3248:	0104d793          	srl	a5,s1,0x10
    324c:	00a7e7b3          	or	a5,a5,a0
    3250:	0377f063          	bgeu	a5,s7,3270 <__divdf3+0x508>
    3254:	00fc87b3          	add	a5,s9,a5
    3258:	fffd0693          	add	a3,s10,-1
    325c:	3797e263          	bltu	a5,s9,35c0 <__divdf3+0x858>
    3260:	3777f063          	bgeu	a5,s7,35c0 <__divdf3+0x858>
    3264:	ffed0713          	add	a4,s10,-2
    3268:	00e12623          	sw	a4,12(sp)
    326c:	019787b3          	add	a5,a5,s9
    3270:	41778bb3          	sub	s7,a5,s7
    3274:	00090593          	mv	a1,s2
    3278:	000b8513          	mv	a0,s7
    327c:	029010ef          	jal	4aa4 <__hidden___udivsi3>
    3280:	00050593          	mv	a1,a0
    3284:	00050d13          	mv	s10,a0
    3288:	000b0513          	mv	a0,s6
    328c:	7ec010ef          	jal	4a78 <__mulsi3>
    3290:	00050793          	mv	a5,a0
    3294:	00090593          	mv	a1,s2
    3298:	000b8513          	mv	a0,s7
    329c:	00078913          	mv	s2,a5
    32a0:	01049493          	sll	s1,s1,0x10
    32a4:	049010ef          	jal	4aec <__umodsi3>
    32a8:	01051513          	sll	a0,a0,0x10
    32ac:	0104d493          	srl	s1,s1,0x10
    32b0:	00a4e4b3          	or	s1,s1,a0
    32b4:	0124fe63          	bgeu	s1,s2,32d0 <__divdf3+0x568>
    32b8:	009c84b3          	add	s1,s9,s1
    32bc:	fffd0793          	add	a5,s10,-1
    32c0:	3194e463          	bltu	s1,s9,35c8 <__divdf3+0x860>
    32c4:	3124f263          	bgeu	s1,s2,35c8 <__divdf3+0x860>
    32c8:	ffed0d13          	add	s10,s10,-2
    32cc:	019484b3          	add	s1,s1,s9
    32d0:	00c12783          	lw	a5,12(sp)
    32d4:	412484b3          	sub	s1,s1,s2
    32d8:	000d8593          	mv	a1,s11
    32dc:	01079813          	sll	a6,a5,0x10
    32e0:	01a86833          	or	a6,a6,s10
    32e4:	01081313          	sll	t1,a6,0x10
    32e8:	01035313          	srl	t1,t1,0x10
    32ec:	01085793          	srl	a5,a6,0x10
    32f0:	00030513          	mv	a0,t1
    32f4:	784010ef          	jal	4a78 <__mulsi3>
    32f8:	00050893          	mv	a7,a0
    32fc:	000c0593          	mv	a1,s8
    3300:	00030513          	mv	a0,t1
    3304:	774010ef          	jal	4a78 <__mulsi3>
    3308:	00050313          	mv	t1,a0
    330c:	000d8593          	mv	a1,s11
    3310:	00078513          	mv	a0,a5
    3314:	764010ef          	jal	4a78 <__mulsi3>
    3318:	00050e13          	mv	t3,a0
    331c:	000c0593          	mv	a1,s8
    3320:	00078513          	mv	a0,a5
    3324:	754010ef          	jal	4a78 <__mulsi3>
    3328:	0108d793          	srl	a5,a7,0x10
    332c:	01c30333          	add	t1,t1,t3
    3330:	006787b3          	add	a5,a5,t1
    3334:	01c7f663          	bgeu	a5,t3,3340 <__divdf3+0x5d8>
    3338:	00010737          	lui	a4,0x10
    333c:	00e50533          	add	a0,a0,a4
    3340:	000106b7          	lui	a3,0x10
    3344:	fff68693          	add	a3,a3,-1 # ffff <DMEM_TOTAL_SIZE+0x7fff>
    3348:	0107d713          	srl	a4,a5,0x10
    334c:	00d7f7b3          	and	a5,a5,a3
    3350:	01079793          	sll	a5,a5,0x10
    3354:	00d8f8b3          	and	a7,a7,a3
    3358:	00a70733          	add	a4,a4,a0
    335c:	011787b3          	add	a5,a5,a7
    3360:	02e4e063          	bltu	s1,a4,3380 <__divdf3+0x618>
    3364:	00e48c63          	beq	s1,a4,337c <__divdf3+0x614>
    3368:	02412c83          	lw	s9,36(sp)
    336c:	02012d03          	lw	s10,32(sp)
    3370:	01c12d83          	lw	s11,28(sp)
    3374:	00186813          	or	a6,a6,1
    3378:	c61ff06f          	j	2fd8 <__divdf3+0x270>
    337c:	1c078a63          	beqz	a5,3550 <__divdf3+0x7e8>
    3380:	009c84b3          	add	s1,s9,s1
    3384:	fff80613          	add	a2,a6,-1 # fffff <IMEM_SIZE+0xebfff>
    3388:	00048693          	mv	a3,s1
    338c:	1b94ec63          	bltu	s1,s9,3544 <__divdf3+0x7dc>
    3390:	24e4ea63          	bltu	s1,a4,35e4 <__divdf3+0x87c>
    3394:	26e48863          	beq	s1,a4,3604 <__divdf3+0x89c>
    3398:	00060813          	mv	a6,a2
    339c:	fcdff06f          	j	3368 <__divdf3+0x600>
    33a0:	00100713          	li	a4,1
    33a4:	b20790e3          	bnez	a5,2ec4 <__divdf3+0x15c>
    33a8:	41e98793          	add	a5,s3,1054
    33ac:	00f816b3          	sll	a3,a6,a5
    33b0:	00d036b3          	snez	a3,a3
    33b4:	00f417b3          	sll	a5,s0,a5
    33b8:	00f6e7b3          	or	a5,a3,a5
    33bc:	00e85833          	srl	a6,a6,a4
    33c0:	00f86833          	or	a6,a6,a5
    33c4:	00787793          	and	a5,a6,7
    33c8:	00e45433          	srl	s0,s0,a4
    33cc:	02078063          	beqz	a5,33ec <__divdf3+0x684>
    33d0:	00f87793          	and	a5,a6,15
    33d4:	00400713          	li	a4,4
    33d8:	00e78a63          	beq	a5,a4,33ec <__divdf3+0x684>
    33dc:	00480793          	add	a5,a6,4
    33e0:	0107b833          	sltu	a6,a5,a6
    33e4:	01040433          	add	s0,s0,a6
    33e8:	00078813          	mv	a6,a5
    33ec:	00841613          	sll	a2,s0,0x8
    33f0:	00100793          	li	a5,1
    33f4:	00000693          	li	a3,0
    33f8:	00000713          	li	a4,0
    33fc:	ae0640e3          	bltz	a2,2edc <__divdf3+0x174>
    3400:	1280006f          	j	3528 <__divdf3+0x7c0>
    3404:	de9d7ce3          	bgeu	s10,s1,31fc <__divdf3+0x494>
    3408:	015d06b3          	add	a3,s10,s5
    340c:	01a6b633          	sltu	a2,a3,s10
    3410:	019605b3          	add	a1,a2,s9
    3414:	00bb8bb3          	add	s7,s7,a1
    3418:	00068d13          	mv	s10,a3
    341c:	fff40593          	add	a1,s0,-1
    3420:	077cfe63          	bgeu	s9,s7,349c <__divdf3+0x734>
    3424:	14fbe063          	bltu	s7,a5,3564 <__divdf3+0x7fc>
    3428:	13778c63          	beq	a5,s7,3560 <__divdf3+0x7f8>
    342c:	00058413          	mv	s0,a1
    3430:	dcdff06f          	j	31fc <__divdf3+0x494>
    3434:	c50bece3          	bltu	s7,a6,308c <__divdf3+0x324>
    3438:	01fb1c13          	sll	s8,s6,0x1f
    343c:	001bd713          	srl	a4,s7,0x1
    3440:	001b5493          	srl	s1,s6,0x1
    3444:	00ec6c33          	or	s8,s8,a4
    3448:	01fb9d13          	sll	s10,s7,0x1f
    344c:	c51ff06f          	j	309c <__divdf3+0x334>
    3450:	000a0513          	mv	a0,s4
    3454:	6fc010ef          	jal	4b50 <__clzsi2>
    3458:	01550693          	add	a3,a0,21
    345c:	01c00713          	li	a4,28
    3460:	02050793          	add	a5,a0,32
    3464:	a2d75ae3          	bge	a4,a3,2e98 <__divdf3+0x130>
    3468:	ff850513          	add	a0,a0,-8
    346c:	00000813          	li	a6,0
    3470:	00aa1433          	sll	s0,s4,a0
    3474:	a41ff06f          	j	2eb4 <__divdf3+0x14c>
    3478:	6d8010ef          	jal	4b50 <__clzsi2>
    347c:	01550793          	add	a5,a0,21
    3480:	01c00693          	li	a3,28
    3484:	02050713          	add	a4,a0,32
    3488:	acf6dee3          	bge	a3,a5,2f64 <__divdf3+0x1fc>
    348c:	ff850493          	add	s1,a0,-8
    3490:	00941b33          	sll	s6,s0,s1
    3494:	00000b93          	li	s7,0
    3498:	ae9ff06f          	j	2f80 <__divdf3+0x218>
    349c:	f97c98e3          	bne	s9,s7,342c <__divdf3+0x6c4>
    34a0:	f80602e3          	beqz	a2,3424 <__divdf3+0x6bc>
    34a4:	00058413          	mv	s0,a1
    34a8:	d55ff06f          	j	31fc <__divdf3+0x494>
    34ac:	ca97f8e3          	bgeu	a5,s1,315c <__divdf3+0x3f4>
    34b0:	ffeb8b93          	add	s7,s7,-2
    34b4:	019787b3          	add	a5,a5,s9
    34b8:	ca9ff06f          	j	3160 <__divdf3+0x3f8>
    34bc:	c497f4e3          	bgeu	a5,s1,3104 <__divdf3+0x39c>
    34c0:	ffe40413          	add	s0,s0,-2
    34c4:	019787b3          	add	a5,a5,s9
    34c8:	c41ff06f          	j	3108 <__divdf3+0x3a0>
    34cc:	01f00693          	li	a3,31
    34d0:	ece6dce3          	bge	a3,a4,33a8 <__divdf3+0x640>
    34d4:	fe100693          	li	a3,-31
    34d8:	40f686b3          	sub	a3,a3,a5
    34dc:	02000793          	li	a5,32
    34e0:	00d456b3          	srl	a3,s0,a3
    34e4:	00f70863          	beq	a4,a5,34f4 <__divdf3+0x78c>
    34e8:	43e98793          	add	a5,s3,1086
    34ec:	00f417b3          	sll	a5,s0,a5
    34f0:	00f86833          	or	a6,a6,a5
    34f4:	01003833          	snez	a6,a6
    34f8:	00d86833          	or	a6,a6,a3
    34fc:	00787713          	and	a4,a6,7
    3500:	00000693          	li	a3,0
    3504:	02070863          	beqz	a4,3534 <__divdf3+0x7cc>
    3508:	00f87793          	and	a5,a6,15
    350c:	00400713          	li	a4,4
    3510:	00000413          	li	s0,0
    3514:	00e78a63          	beq	a5,a4,3528 <__divdf3+0x7c0>
    3518:	00480793          	add	a5,a6,4
    351c:	0107b833          	sltu	a6,a5,a6
    3520:	01003433          	snez	s0,a6
    3524:	00078813          	mv	a6,a5
    3528:	00941693          	sll	a3,s0,0x9
    352c:	01d41713          	sll	a4,s0,0x1d
    3530:	00c6d693          	srl	a3,a3,0xc
    3534:	00385813          	srl	a6,a6,0x3
    3538:	00e86733          	or	a4,a6,a4
    353c:	00000793          	li	a5,0
    3540:	99dff06f          	j	2edc <__divdf3+0x174>
    3544:	00060813          	mv	a6,a2
    3548:	e2e690e3          	bne	a3,a4,3368 <__divdf3+0x600>
    354c:	e1579ee3          	bne	a5,s5,3368 <__divdf3+0x600>
    3550:	02412c83          	lw	s9,36(sp)
    3554:	02012d03          	lw	s10,32(sp)
    3558:	01c12d83          	lw	s11,28(sp)
    355c:	a7dff06f          	j	2fd8 <__divdf3+0x270>
    3560:	ec96f6e3          	bgeu	a3,s1,342c <__divdf3+0x6c4>
    3564:	00da86b3          	add	a3,s5,a3
    3568:	0156b633          	sltu	a2,a3,s5
    356c:	01960633          	add	a2,a2,s9
    3570:	ffe40413          	add	s0,s0,-2
    3574:	00068d13          	mv	s10,a3
    3578:	00cb8bb3          	add	s7,s7,a2
    357c:	c81ff06f          	j	31fc <__divdf3+0x494>
    3580:	c0200713          	li	a4,-1022
    3584:	02412c83          	lw	s9,36(sp)
    3588:	02012d03          	lw	s10,32(sp)
    358c:	01c12d83          	lw	s11,28(sp)
    3590:	3ff98793          	add	a5,s3,1023
    3594:	fff00813          	li	a6,-1
    3598:	e0e9c4e3          	blt	s3,a4,33a0 <__divdf3+0x638>
    359c:	00480713          	add	a4,a6,4
    35a0:	01073833          	sltu	a6,a4,a6
    35a4:	01040433          	add	s0,s0,a6
    35a8:	00070813          	mv	a6,a4
    35ac:	a3dff06f          	j	2fe8 <__divdf3+0x280>
    35b0:	00f87713          	and	a4,a6,15
    35b4:	00400693          	li	a3,4
    35b8:	a2d708e3          	beq	a4,a3,2fe8 <__divdf3+0x280>
    35bc:	fe1ff06f          	j	359c <__divdf3+0x834>
    35c0:	00d12623          	sw	a3,12(sp)
    35c4:	cadff06f          	j	3270 <__divdf3+0x508>
    35c8:	00078d13          	mv	s10,a5
    35cc:	d05ff06f          	j	32d0 <__divdf3+0x568>
    35d0:	00090a13          	mv	s4,s2
    35d4:	7ff00793          	li	a5,2047
    35d8:	00000693          	li	a3,0
    35dc:	00000713          	li	a4,0
    35e0:	8fdff06f          	j	2edc <__divdf3+0x174>
    35e4:	001a9613          	sll	a2,s5,0x1
    35e8:	015636b3          	sltu	a3,a2,s5
    35ec:	019686b3          	add	a3,a3,s9
    35f0:	00d486b3          	add	a3,s1,a3
    35f4:	ffe80813          	add	a6,a6,-2
    35f8:	00060a93          	mv	s5,a2
    35fc:	f4e688e3          	beq	a3,a4,354c <__divdf3+0x7e4>
    3600:	d69ff06f          	j	3368 <__divdf3+0x600>
    3604:	fefae0e3          	bltu	s5,a5,35e4 <__divdf3+0x87c>
    3608:	00060813          	mv	a6,a2
    360c:	f41ff06f          	j	354c <__divdf3+0x7e4>

00003610 <__eqdf2>:
    3610:	0145d713          	srl	a4,a1,0x14
    3614:	001007b7          	lui	a5,0x100
    3618:	fff78793          	add	a5,a5,-1 # fffff <IMEM_SIZE+0xebfff>
    361c:	0146d813          	srl	a6,a3,0x14
    3620:	7ff77713          	and	a4,a4,2047
    3624:	7ff00313          	li	t1,2047
    3628:	00b7fe33          	and	t3,a5,a1
    362c:	00050893          	mv	a7,a0
    3630:	00d7f7b3          	and	a5,a5,a3
    3634:	01f5d593          	srl	a1,a1,0x1f
    3638:	7ff87813          	and	a6,a6,2047
    363c:	01f6d693          	srl	a3,a3,0x1f
    3640:	00100513          	li	a0,1
    3644:	00670c63          	beq	a4,t1,365c <__eqdf2+0x4c>
    3648:	00680863          	beq	a6,t1,3658 <__eqdf2+0x48>
    364c:	01071463          	bne	a4,a6,3654 <__eqdf2+0x44>
    3650:	02fe0663          	beq	t3,a5,367c <__eqdf2+0x6c>
    3654:	00008067          	ret
    3658:	00008067          	ret
    365c:	fee81ce3          	bne	a6,a4,3654 <__eqdf2+0x44>
    3660:	00fe67b3          	or	a5,t3,a5
    3664:	00c7e7b3          	or	a5,a5,a2
    3668:	0117e7b3          	or	a5,a5,a7
    366c:	fe0794e3          	bnez	a5,3654 <__eqdf2+0x44>
    3670:	40d585b3          	sub	a1,a1,a3
    3674:	00b03533          	snez	a0,a1
    3678:	00008067          	ret
    367c:	fcc89ce3          	bne	a7,a2,3654 <__eqdf2+0x44>
    3680:	00d58a63          	beq	a1,a3,3694 <__eqdf2+0x84>
    3684:	fc0718e3          	bnez	a4,3654 <__eqdf2+0x44>
    3688:	011e6e33          	or	t3,t3,a7
    368c:	01c03533          	snez	a0,t3
    3690:	00008067          	ret
    3694:	00000513          	li	a0,0
    3698:	00008067          	ret

0000369c <__gedf2>:
    369c:	0145d893          	srl	a7,a1,0x14
    36a0:	001007b7          	lui	a5,0x100
    36a4:	fff78793          	add	a5,a5,-1 # fffff <IMEM_SIZE+0xebfff>
    36a8:	0146d713          	srl	a4,a3,0x14
    36ac:	7ff8f893          	and	a7,a7,2047
    36b0:	7ff00e13          	li	t3,2047
    36b4:	00b7f333          	and	t1,a5,a1
    36b8:	00050813          	mv	a6,a0
    36bc:	00050e93          	mv	t4,a0
    36c0:	00d7f7b3          	and	a5,a5,a3
    36c4:	01f5d593          	srl	a1,a1,0x1f
    36c8:	00060f13          	mv	t5,a2
    36cc:	7ff77513          	and	a0,a4,2047
    36d0:	01f6d693          	srl	a3,a3,0x1f
    36d4:	05c88863          	beq	a7,t3,3724 <__gedf2+0x88>
    36d8:	03c50463          	beq	a0,t3,3700 <__gedf2+0x64>
    36dc:	06089a63          	bnez	a7,3750 <__gedf2+0xb4>
    36e0:	01036833          	or	a6,t1,a6
    36e4:	06051063          	bnez	a0,3744 <__gedf2+0xa8>
    36e8:	00c7e633          	or	a2,a5,a2
    36ec:	08060c63          	beqz	a2,3784 <__gedf2+0xe8>
    36f0:	0a081263          	bnez	a6,3794 <__gedf2+0xf8>
    36f4:	00100513          	li	a0,1
    36f8:	08068263          	beqz	a3,377c <__gedf2+0xe0>
    36fc:	00008067          	ret
    3700:	00c7e633          	or	a2,a5,a2
    3704:	08061463          	bnez	a2,378c <__gedf2+0xf0>
    3708:	00089663          	bnez	a7,3714 <__gedf2+0x78>
    370c:	01036333          	or	t1,t1,a6
    3710:	fe0302e3          	beqz	t1,36f4 <__gedf2+0x58>
    3714:	06d58063          	beq	a1,a3,3774 <__gedf2+0xd8>
    3718:	06059263          	bnez	a1,377c <__gedf2+0xe0>
    371c:	00100513          	li	a0,1
    3720:	00008067          	ret
    3724:	01036333          	or	t1,t1,a6
    3728:	06031263          	bnez	t1,378c <__gedf2+0xf0>
    372c:	ff1516e3          	bne	a0,a7,3718 <__gedf2+0x7c>
    3730:	00c7e7b3          	or	a5,a5,a2
    3734:	04079c63          	bnez	a5,378c <__gedf2+0xf0>
    3738:	fed590e3          	bne	a1,a3,3718 <__gedf2+0x7c>
    373c:	00000513          	li	a0,0
    3740:	00008067          	ret
    3744:	fa0808e3          	beqz	a6,36f4 <__gedf2+0x58>
    3748:	fcd598e3          	bne	a1,a3,3718 <__gedf2+0x7c>
    374c:	0280006f          	j	3774 <__gedf2+0xd8>
    3750:	fc0504e3          	beqz	a0,3718 <__gedf2+0x7c>
    3754:	fcd592e3          	bne	a1,a3,3718 <__gedf2+0x7c>
    3758:	fd1540e3          	blt	a0,a7,3718 <__gedf2+0x7c>
    375c:	00a8cc63          	blt	a7,a0,3774 <__gedf2+0xd8>
    3760:	fa67ece3          	bltu	a5,t1,3718 <__gedf2+0x7c>
    3764:	00f31863          	bne	t1,a5,3774 <__gedf2+0xd8>
    3768:	fbdf68e3          	bltu	t5,t4,3718 <__gedf2+0x7c>
    376c:	00000513          	li	a0,0
    3770:	f9eef6e3          	bgeu	t4,t5,36fc <__gedf2+0x60>
    3774:	00100513          	li	a0,1
    3778:	f80592e3          	bnez	a1,36fc <__gedf2+0x60>
    377c:	fff00513          	li	a0,-1
    3780:	00008067          	ret
    3784:	f8081ae3          	bnez	a6,3718 <__gedf2+0x7c>
    3788:	00008067          	ret
    378c:	ffe00513          	li	a0,-2
    3790:	00008067          	ret
    3794:	fcd586e3          	beq	a1,a3,3760 <__gedf2+0xc4>
    3798:	f81ff06f          	j	3718 <__gedf2+0x7c>

0000379c <__ledf2>:
    379c:	0145d893          	srl	a7,a1,0x14
    37a0:	001007b7          	lui	a5,0x100
    37a4:	fff78793          	add	a5,a5,-1 # fffff <IMEM_SIZE+0xebfff>
    37a8:	0146d713          	srl	a4,a3,0x14
    37ac:	7ff8f893          	and	a7,a7,2047
    37b0:	7ff00313          	li	t1,2047
    37b4:	00b7fe33          	and	t3,a5,a1
    37b8:	00050813          	mv	a6,a0
    37bc:	00050e93          	mv	t4,a0
    37c0:	00d7f7b3          	and	a5,a5,a3
    37c4:	01f5d593          	srl	a1,a1,0x1f
    37c8:	00060f13          	mv	t5,a2
    37cc:	7ff77513          	and	a0,a4,2047
    37d0:	01f6d693          	srl	a3,a3,0x1f
    37d4:	04688a63          	beq	a7,t1,3828 <__ledf2+0x8c>
    37d8:	02650463          	beq	a0,t1,3800 <__ledf2+0x64>
    37dc:	06089863          	bnez	a7,384c <__ledf2+0xb0>
    37e0:	010e6833          	or	a6,t3,a6
    37e4:	08051e63          	bnez	a0,3880 <__ledf2+0xe4>
    37e8:	00c7e633          	or	a2,a5,a2
    37ec:	0a060463          	beqz	a2,3894 <__ledf2+0xf8>
    37f0:	0a081663          	bnez	a6,389c <__ledf2+0x100>
    37f4:	00100513          	li	a0,1
    37f8:	08068063          	beqz	a3,3878 <__ledf2+0xdc>
    37fc:	00008067          	ret
    3800:	00c7e633          	or	a2,a5,a2
    3804:	00200513          	li	a0,2
    3808:	fe061ae3          	bnez	a2,37fc <__ledf2+0x60>
    380c:	00089663          	bnez	a7,3818 <__ledf2+0x7c>
    3810:	010e6e33          	or	t3,t3,a6
    3814:	fe0e00e3          	beqz	t3,37f4 <__ledf2+0x58>
    3818:	04d58c63          	beq	a1,a3,3870 <__ledf2+0xd4>
    381c:	04059e63          	bnez	a1,3878 <__ledf2+0xdc>
    3820:	00100513          	li	a0,1
    3824:	00008067          	ret
    3828:	010e6e33          	or	t3,t3,a6
    382c:	060e1063          	bnez	t3,388c <__ledf2+0xf0>
    3830:	ff1516e3          	bne	a0,a7,381c <__ledf2+0x80>
    3834:	00c7e7b3          	or	a5,a5,a2
    3838:	00200513          	li	a0,2
    383c:	fc0790e3          	bnez	a5,37fc <__ledf2+0x60>
    3840:	fcd59ee3          	bne	a1,a3,381c <__ledf2+0x80>
    3844:	00000513          	li	a0,0
    3848:	00008067          	ret
    384c:	fc0508e3          	beqz	a0,381c <__ledf2+0x80>
    3850:	fcd596e3          	bne	a1,a3,381c <__ledf2+0x80>
    3854:	fd1544e3          	blt	a0,a7,381c <__ledf2+0x80>
    3858:	00a8cc63          	blt	a7,a0,3870 <__ledf2+0xd4>
    385c:	fdc7e0e3          	bltu	a5,t3,381c <__ledf2+0x80>
    3860:	00fe1863          	bne	t3,a5,3870 <__ledf2+0xd4>
    3864:	fbdf6ce3          	bltu	t5,t4,381c <__ledf2+0x80>
    3868:	00000513          	li	a0,0
    386c:	f9eef8e3          	bgeu	t4,t5,37fc <__ledf2+0x60>
    3870:	00100513          	li	a0,1
    3874:	f80594e3          	bnez	a1,37fc <__ledf2+0x60>
    3878:	fff00513          	li	a0,-1
    387c:	00008067          	ret
    3880:	f6080ae3          	beqz	a6,37f4 <__ledf2+0x58>
    3884:	f8d59ce3          	bne	a1,a3,381c <__ledf2+0x80>
    3888:	fe9ff06f          	j	3870 <__ledf2+0xd4>
    388c:	00200513          	li	a0,2
    3890:	00008067          	ret
    3894:	f80814e3          	bnez	a6,381c <__ledf2+0x80>
    3898:	00008067          	ret
    389c:	fcd580e3          	beq	a1,a3,385c <__ledf2+0xc0>
    38a0:	f7dff06f          	j	381c <__ledf2+0x80>

000038a4 <__muldf3>:
    38a4:	fd010113          	add	sp,sp,-48
    38a8:	0145d793          	srl	a5,a1,0x14
    38ac:	02812423          	sw	s0,40(sp)
    38b0:	02912223          	sw	s1,36(sp)
    38b4:	03212023          	sw	s2,32(sp)
    38b8:	01312e23          	sw	s3,28(sp)
    38bc:	01512a23          	sw	s5,20(sp)
    38c0:	00c59493          	sll	s1,a1,0xc
    38c4:	02112623          	sw	ra,44(sp)
    38c8:	01412c23          	sw	s4,24(sp)
    38cc:	01612823          	sw	s6,16(sp)
    38d0:	01712623          	sw	s7,12(sp)
    38d4:	01812423          	sw	s8,8(sp)
    38d8:	7ff7f793          	and	a5,a5,2047
    38dc:	00050413          	mv	s0,a0
    38e0:	00060a93          	mv	s5,a2
    38e4:	00068993          	mv	s3,a3
    38e8:	00c4d493          	srl	s1,s1,0xc
    38ec:	01f5d913          	srl	s2,a1,0x1f
    38f0:	4e078063          	beqz	a5,3dd0 <__muldf3+0x52c>
    38f4:	7ff00713          	li	a4,2047
    38f8:	0ae78663          	beq	a5,a4,39a4 <__muldf3+0x100>
    38fc:	00349693          	sll	a3,s1,0x3
    3900:	01d55713          	srl	a4,a0,0x1d
    3904:	00d76733          	or	a4,a4,a3
    3908:	008006b7          	lui	a3,0x800
    390c:	00d764b3          	or	s1,a4,a3
    3910:	00351a13          	sll	s4,a0,0x3
    3914:	c0178c13          	add	s8,a5,-1023
    3918:	00000b13          	li	s6,0
    391c:	00000b93          	li	s7,0
    3920:	0149d793          	srl	a5,s3,0x14
    3924:	00c99713          	sll	a4,s3,0xc
    3928:	7ff7f793          	and	a5,a5,2047
    392c:	000a8e13          	mv	t3,s5
    3930:	00c75413          	srl	s0,a4,0xc
    3934:	01f9d993          	srl	s3,s3,0x1f
    3938:	0a078063          	beqz	a5,39d8 <__muldf3+0x134>
    393c:	7ff00713          	li	a4,2047
    3940:	14e78e63          	beq	a5,a4,3a9c <__muldf3+0x1f8>
    3944:	00341713          	sll	a4,s0,0x3
    3948:	01dad693          	srl	a3,s5,0x1d
    394c:	00e6e6b3          	or	a3,a3,a4
    3950:	c0178793          	add	a5,a5,-1023
    3954:	00800737          	lui	a4,0x800
    3958:	00e6e433          	or	s0,a3,a4
    395c:	003a9e13          	sll	t3,s5,0x3
    3960:	01878333          	add	t1,a5,s8
    3964:	00000693          	li	a3,0
    3968:	00a00793          	li	a5,10
    396c:	00130893          	add	a7,t1,1
    3970:	0b67cc63          	blt	a5,s6,3a28 <__muldf3+0x184>
    3974:	013945b3          	xor	a1,s2,s3
    3978:	00200793          	li	a5,2
    397c:	00058813          	mv	a6,a1
    3980:	1567c663          	blt	a5,s6,3acc <__muldf3+0x228>
    3984:	fffb0b13          	add	s6,s6,-1
    3988:	00100713          	li	a4,1
    398c:	17676063          	bltu	a4,s6,3aec <__muldf3+0x248>
    3990:	48f68663          	beq	a3,a5,3e1c <__muldf3+0x578>
    3994:	00040493          	mv	s1,s0
    3998:	000e0a13          	mv	s4,t3
    399c:	00068b93          	mv	s7,a3
    39a0:	09c0006f          	j	3a3c <__muldf3+0x198>
    39a4:	00a4ea33          	or	s4,s1,a0
    39a8:	480a1463          	bnez	s4,3e30 <__muldf3+0x58c>
    39ac:	0149d793          	srl	a5,s3,0x14
    39b0:	00c99713          	sll	a4,s3,0xc
    39b4:	7ff7f793          	and	a5,a5,2047
    39b8:	00000493          	li	s1,0
    39bc:	00800b13          	li	s6,8
    39c0:	7ff00c13          	li	s8,2047
    39c4:	00200b93          	li	s7,2
    39c8:	000a8e13          	mv	t3,s5
    39cc:	00c75413          	srl	s0,a4,0xc
    39d0:	01f9d993          	srl	s3,s3,0x1f
    39d4:	f60794e3          	bnez	a5,393c <__muldf3+0x98>
    39d8:	015467b3          	or	a5,s0,s5
    39dc:	46078e63          	beqz	a5,3e58 <__muldf3+0x5b4>
    39e0:	54040c63          	beqz	s0,3f38 <__muldf3+0x694>
    39e4:	00040513          	mv	a0,s0
    39e8:	168010ef          	jal	4b50 <__clzsi2>
    39ec:	00050313          	mv	t1,a0
    39f0:	ff550713          	add	a4,a0,-11
    39f4:	01d00793          	li	a5,29
    39f8:	ff830e13          	add	t3,t1,-8
    39fc:	40e787b3          	sub	a5,a5,a4
    3a00:	00fad7b3          	srl	a5,s5,a5
    3a04:	01c41733          	sll	a4,s0,t3
    3a08:	00e7e433          	or	s0,a5,a4
    3a0c:	01ca9e33          	sll	t3,s5,t3
    3a10:	406c0333          	sub	t1,s8,t1
    3a14:	c0d30313          	add	t1,t1,-1011
    3a18:	00a00793          	li	a5,10
    3a1c:	00000693          	li	a3,0
    3a20:	00130893          	add	a7,t1,1
    3a24:	f567d8e3          	bge	a5,s6,3974 <__muldf3+0xd0>
    3a28:	00090593          	mv	a1,s2
    3a2c:	00200793          	li	a5,2
    3a30:	3efb8663          	beq	s7,a5,3e1c <__muldf3+0x578>
    3a34:	00300793          	li	a5,3
    3a38:	54fb8863          	beq	s7,a5,3f88 <__muldf3+0x6e4>
    3a3c:	00100793          	li	a5,1
    3a40:	00058813          	mv	a6,a1
    3a44:	52fb9663          	bne	s7,a5,3f70 <__muldf3+0x6cc>
    3a48:	00000793          	li	a5,0
    3a4c:	00000693          	li	a3,0
    3a50:	00000713          	li	a4,0
    3a54:	02c12083          	lw	ra,44(sp)
    3a58:	02812403          	lw	s0,40(sp)
    3a5c:	01479793          	sll	a5,a5,0x14
    3a60:	00d7e7b3          	or	a5,a5,a3
    3a64:	01f81813          	sll	a6,a6,0x1f
    3a68:	0107e7b3          	or	a5,a5,a6
    3a6c:	02412483          	lw	s1,36(sp)
    3a70:	02012903          	lw	s2,32(sp)
    3a74:	01c12983          	lw	s3,28(sp)
    3a78:	01812a03          	lw	s4,24(sp)
    3a7c:	01412a83          	lw	s5,20(sp)
    3a80:	01012b03          	lw	s6,16(sp)
    3a84:	00c12b83          	lw	s7,12(sp)
    3a88:	00812c03          	lw	s8,8(sp)
    3a8c:	00070513          	mv	a0,a4
    3a90:	00078593          	mv	a1,a5
    3a94:	03010113          	add	sp,sp,48
    3a98:	00008067          	ret
    3a9c:	01546733          	or	a4,s0,s5
    3aa0:	7ffc0313          	add	t1,s8,2047
    3aa4:	3c070663          	beqz	a4,3e70 <__muldf3+0x5cc>
    3aa8:	00001737          	lui	a4,0x1
    3aac:	01394833          	xor	a6,s2,s3
    3ab0:	80070713          	add	a4,a4,-2048 # 800 <STACK_SIZE+0x400>
    3ab4:	003b6b13          	or	s6,s6,3
    3ab8:	00a00693          	li	a3,10
    3abc:	00080593          	mv	a1,a6
    3ac0:	00ec08b3          	add	a7,s8,a4
    3ac4:	4366cc63          	blt	a3,s6,3efc <__muldf3+0x658>
    3ac8:	00300693          	li	a3,3
    3acc:	00100613          	li	a2,1
    3ad0:	01661633          	sll	a2,a2,s6
    3ad4:	53067713          	and	a4,a2,1328
    3ad8:	f4071ae3          	bnez	a4,3a2c <__muldf3+0x188>
    3adc:	24067793          	and	a5,a2,576
    3ae0:	48079063          	bnez	a5,3f60 <__muldf3+0x6bc>
    3ae4:	08867613          	and	a2,a2,136
    3ae8:	38061e63          	bnez	a2,3e84 <__muldf3+0x5e0>
    3aec:	00010fb7          	lui	t6,0x10
    3af0:	ffff8293          	add	t0,t6,-1 # ffff <DMEM_TOTAL_SIZE+0x7fff>
    3af4:	005a7f33          	and	t5,s4,t0
    3af8:	005e72b3          	and	t0,t3,t0
    3afc:	010a5a13          	srl	s4,s4,0x10
    3b00:	010e5e13          	srl	t3,t3,0x10
    3b04:	000f0513          	mv	a0,t5
    3b08:	00028593          	mv	a1,t0
    3b0c:	76d000ef          	jal	4a78 <__mulsi3>
    3b10:	00050713          	mv	a4,a0
    3b14:	000e0593          	mv	a1,t3
    3b18:	000f0513          	mv	a0,t5
    3b1c:	75d000ef          	jal	4a78 <__mulsi3>
    3b20:	00050793          	mv	a5,a0
    3b24:	00028593          	mv	a1,t0
    3b28:	000a0513          	mv	a0,s4
    3b2c:	74d000ef          	jal	4a78 <__mulsi3>
    3b30:	00050e93          	mv	t4,a0
    3b34:	000e0593          	mv	a1,t3
    3b38:	000a0513          	mv	a0,s4
    3b3c:	73d000ef          	jal	4a78 <__mulsi3>
    3b40:	01d786b3          	add	a3,a5,t4
    3b44:	01075393          	srl	t2,a4,0x10
    3b48:	00d383b3          	add	t2,t2,a3
    3b4c:	00050793          	mv	a5,a0
    3b50:	01d3f463          	bgeu	t2,t4,3b58 <__muldf3+0x2b4>
    3b54:	01f507b3          	add	a5,a0,t6
    3b58:	000109b7          	lui	s3,0x10
    3b5c:	fff98913          	add	s2,s3,-1 # ffff <DMEM_TOTAL_SIZE+0x7fff>
    3b60:	0123feb3          	and	t4,t2,s2
    3b64:	01277733          	and	a4,a4,s2
    3b68:	010e9e93          	sll	t4,t4,0x10
    3b6c:	01247933          	and	s2,s0,s2
    3b70:	0103d393          	srl	t2,t2,0x10
    3b74:	00ee8eb3          	add	t4,t4,a4
    3b78:	01045413          	srl	s0,s0,0x10
    3b7c:	000f0513          	mv	a0,t5
    3b80:	00090593          	mv	a1,s2
    3b84:	6f5000ef          	jal	4a78 <__mulsi3>
    3b88:	00050f93          	mv	t6,a0
    3b8c:	00040593          	mv	a1,s0
    3b90:	000f0513          	mv	a0,t5
    3b94:	6e5000ef          	jal	4a78 <__mulsi3>
    3b98:	00050713          	mv	a4,a0
    3b9c:	00090593          	mv	a1,s2
    3ba0:	000a0513          	mv	a0,s4
    3ba4:	6d5000ef          	jal	4a78 <__mulsi3>
    3ba8:	00050f13          	mv	t5,a0
    3bac:	00040593          	mv	a1,s0
    3bb0:	000a0513          	mv	a0,s4
    3bb4:	6c5000ef          	jal	4a78 <__mulsi3>
    3bb8:	010fd693          	srl	a3,t6,0x10
    3bbc:	01e70733          	add	a4,a4,t5
    3bc0:	00e686b3          	add	a3,a3,a4
    3bc4:	01e6f463          	bgeu	a3,t5,3bcc <__muldf3+0x328>
    3bc8:	01350533          	add	a0,a0,s3
    3bcc:	00010a37          	lui	s4,0x10
    3bd0:	fffa0f13          	add	t5,s4,-1 # ffff <DMEM_TOTAL_SIZE+0x7fff>
    3bd4:	01e6f733          	and	a4,a3,t5
    3bd8:	01efffb3          	and	t6,t6,t5
    3bdc:	01071713          	sll	a4,a4,0x10
    3be0:	01f70733          	add	a4,a4,t6
    3be4:	01e4ff33          	and	t5,s1,t5
    3be8:	0106d693          	srl	a3,a3,0x10
    3bec:	00a68fb3          	add	t6,a3,a0
    3bf0:	00e383b3          	add	t2,t2,a4
    3bf4:	0104d493          	srl	s1,s1,0x10
    3bf8:	000f0513          	mv	a0,t5
    3bfc:	00028593          	mv	a1,t0
    3c00:	679000ef          	jal	4a78 <__mulsi3>
    3c04:	00050a93          	mv	s5,a0
    3c08:	000e0593          	mv	a1,t3
    3c0c:	000f0513          	mv	a0,t5
    3c10:	669000ef          	jal	4a78 <__mulsi3>
    3c14:	00050993          	mv	s3,a0
    3c18:	00028593          	mv	a1,t0
    3c1c:	00048513          	mv	a0,s1
    3c20:	659000ef          	jal	4a78 <__mulsi3>
    3c24:	00050293          	mv	t0,a0
    3c28:	000e0593          	mv	a1,t3
    3c2c:	00048513          	mv	a0,s1
    3c30:	649000ef          	jal	4a78 <__mulsi3>
    3c34:	010ad613          	srl	a2,s5,0x10
    3c38:	005989b3          	add	s3,s3,t0
    3c3c:	01360633          	add	a2,a2,s3
    3c40:	00567463          	bgeu	a2,t0,3c48 <__muldf3+0x3a4>
    3c44:	01450533          	add	a0,a0,s4
    3c48:	00010a37          	lui	s4,0x10
    3c4c:	fffa0693          	add	a3,s4,-1 # ffff <DMEM_TOTAL_SIZE+0x7fff>
    3c50:	00d672b3          	and	t0,a2,a3
    3c54:	00dafab3          	and	s5,s5,a3
    3c58:	01065613          	srl	a2,a2,0x10
    3c5c:	01029293          	sll	t0,t0,0x10
    3c60:	00a60e33          	add	t3,a2,a0
    3c64:	015282b3          	add	t0,t0,s5
    3c68:	000f0513          	mv	a0,t5
    3c6c:	00090593          	mv	a1,s2
    3c70:	609000ef          	jal	4a78 <__mulsi3>
    3c74:	00050993          	mv	s3,a0
    3c78:	00040593          	mv	a1,s0
    3c7c:	000f0513          	mv	a0,t5
    3c80:	5f9000ef          	jal	4a78 <__mulsi3>
    3c84:	00050f13          	mv	t5,a0
    3c88:	00090593          	mv	a1,s2
    3c8c:	00048513          	mv	a0,s1
    3c90:	5e9000ef          	jal	4a78 <__mulsi3>
    3c94:	00050913          	mv	s2,a0
    3c98:	00040593          	mv	a1,s0
    3c9c:	00048513          	mv	a0,s1
    3ca0:	5d9000ef          	jal	4a78 <__mulsi3>
    3ca4:	012f06b3          	add	a3,t5,s2
    3ca8:	0109d593          	srl	a1,s3,0x10
    3cac:	00d58433          	add	s0,a1,a3
    3cb0:	00050f13          	mv	t5,a0
    3cb4:	01247463          	bgeu	s0,s2,3cbc <__muldf3+0x418>
    3cb8:	01450f33          	add	t5,a0,s4
    3cbc:	00010637          	lui	a2,0x10
    3cc0:	fff60613          	add	a2,a2,-1 # ffff <DMEM_TOTAL_SIZE+0x7fff>
    3cc4:	00c476b3          	and	a3,s0,a2
    3cc8:	00c9f9b3          	and	s3,s3,a2
    3ccc:	01069693          	sll	a3,a3,0x10
    3cd0:	007787b3          	add	a5,a5,t2
    3cd4:	013686b3          	add	a3,a3,s3
    3cd8:	01f685b3          	add	a1,a3,t6
    3cdc:	00e7b733          	sltu	a4,a5,a4
    3ce0:	00e58733          	add	a4,a1,a4
    3ce4:	005782b3          	add	t0,a5,t0
    3ce8:	01c70633          	add	a2,a4,t3
    3cec:	00f2b7b3          	sltu	a5,t0,a5
    3cf0:	00f607b3          	add	a5,a2,a5
    3cf4:	00d5b6b3          	sltu	a3,a1,a3
    3cf8:	00b735b3          	sltu	a1,a4,a1
    3cfc:	00b6e6b3          	or	a3,a3,a1
    3d00:	00e63733          	sltu	a4,a2,a4
    3d04:	01045593          	srl	a1,s0,0x10
    3d08:	00c7b633          	sltu	a2,a5,a2
    3d0c:	00b686b3          	add	a3,a3,a1
    3d10:	00929a13          	sll	s4,t0,0x9
    3d14:	00c76733          	or	a4,a4,a2
    3d18:	00d70733          	add	a4,a4,a3
    3d1c:	01da6a33          	or	s4,s4,t4
    3d20:	01e70733          	add	a4,a4,t5
    3d24:	01403a33          	snez	s4,s4
    3d28:	0172d293          	srl	t0,t0,0x17
    3d2c:	00971713          	sll	a4,a4,0x9
    3d30:	0177d693          	srl	a3,a5,0x17
    3d34:	005a6a33          	or	s4,s4,t0
    3d38:	00979793          	sll	a5,a5,0x9
    3d3c:	00fa6a33          	or	s4,s4,a5
    3d40:	00771793          	sll	a5,a4,0x7
    3d44:	00d764b3          	or	s1,a4,a3
    3d48:	0207d063          	bgez	a5,3d68 <__muldf3+0x4c4>
    3d4c:	001a5793          	srl	a5,s4,0x1
    3d50:	001a7a13          	and	s4,s4,1
    3d54:	01f49713          	sll	a4,s1,0x1f
    3d58:	0147e7b3          	or	a5,a5,s4
    3d5c:	00e7ea33          	or	s4,a5,a4
    3d60:	0014d493          	srl	s1,s1,0x1
    3d64:	00088313          	mv	t1,a7
    3d68:	3ff30793          	add	a5,t1,1023
    3d6c:	12f05663          	blez	a5,3e98 <__muldf3+0x5f4>
    3d70:	007a7713          	and	a4,s4,7
    3d74:	02070063          	beqz	a4,3d94 <__muldf3+0x4f0>
    3d78:	00fa7713          	and	a4,s4,15
    3d7c:	00400693          	li	a3,4
    3d80:	00d70a63          	beq	a4,a3,3d94 <__muldf3+0x4f0>
    3d84:	004a0713          	add	a4,s4,4
    3d88:	01473a33          	sltu	s4,a4,s4
    3d8c:	014484b3          	add	s1,s1,s4
    3d90:	00070a13          	mv	s4,a4
    3d94:	00749713          	sll	a4,s1,0x7
    3d98:	00075a63          	bgez	a4,3dac <__muldf3+0x508>
    3d9c:	ff0007b7          	lui	a5,0xff000
    3da0:	fff78793          	add	a5,a5,-1 # feffffff <MTSSV_BASE+0xfeef8007>
    3da4:	00f4f4b3          	and	s1,s1,a5
    3da8:	40030793          	add	a5,t1,1024
    3dac:	7fe00713          	li	a4,2046
    3db0:	1cf74463          	blt	a4,a5,3f78 <__muldf3+0x6d4>
    3db4:	003a5a13          	srl	s4,s4,0x3
    3db8:	01d49713          	sll	a4,s1,0x1d
    3dbc:	00949693          	sll	a3,s1,0x9
    3dc0:	01476733          	or	a4,a4,s4
    3dc4:	00c6d693          	srl	a3,a3,0xc
    3dc8:	7ff7f793          	and	a5,a5,2047
    3dcc:	c89ff06f          	j	3a54 <__muldf3+0x1b0>
    3dd0:	00a4ea33          	or	s4,s1,a0
    3dd4:	060a0863          	beqz	s4,3e44 <__muldf3+0x5a0>
    3dd8:	12048e63          	beqz	s1,3f14 <__muldf3+0x670>
    3ddc:	00048513          	mv	a0,s1
    3de0:	571000ef          	jal	4b50 <__clzsi2>
    3de4:	00050713          	mv	a4,a0
    3de8:	ff550693          	add	a3,a0,-11
    3dec:	01d00793          	li	a5,29
    3df0:	ff870a13          	add	s4,a4,-8
    3df4:	40d787b3          	sub	a5,a5,a3
    3df8:	00f457b3          	srl	a5,s0,a5
    3dfc:	014496b3          	sll	a3,s1,s4
    3e00:	00d7e4b3          	or	s1,a5,a3
    3e04:	01441a33          	sll	s4,s0,s4
    3e08:	c0d00793          	li	a5,-1011
    3e0c:	40e78c33          	sub	s8,a5,a4
    3e10:	00000b13          	li	s6,0
    3e14:	00000b93          	li	s7,0
    3e18:	b09ff06f          	j	3920 <__muldf3+0x7c>
    3e1c:	00058813          	mv	a6,a1
    3e20:	7ff00793          	li	a5,2047
    3e24:	00000693          	li	a3,0
    3e28:	00000713          	li	a4,0
    3e2c:	c29ff06f          	j	3a54 <__muldf3+0x1b0>
    3e30:	00050a13          	mv	s4,a0
    3e34:	00c00b13          	li	s6,12
    3e38:	7ff00c13          	li	s8,2047
    3e3c:	00300b93          	li	s7,3
    3e40:	ae1ff06f          	j	3920 <__muldf3+0x7c>
    3e44:	00000493          	li	s1,0
    3e48:	00400b13          	li	s6,4
    3e4c:	00000c13          	li	s8,0
    3e50:	00100b93          	li	s7,1
    3e54:	acdff06f          	j	3920 <__muldf3+0x7c>
    3e58:	001b6b13          	or	s6,s6,1
    3e5c:	000c0313          	mv	t1,s8
    3e60:	00000413          	li	s0,0
    3e64:	00000e13          	li	t3,0
    3e68:	00100693          	li	a3,1
    3e6c:	afdff06f          	j	3968 <__muldf3+0xc4>
    3e70:	002b6b13          	or	s6,s6,2
    3e74:	00000413          	li	s0,0
    3e78:	00000e13          	li	t3,0
    3e7c:	00200693          	li	a3,2
    3e80:	ae9ff06f          	j	3968 <__muldf3+0xc4>
    3e84:	00040493          	mv	s1,s0
    3e88:	000e0a13          	mv	s4,t3
    3e8c:	00068b93          	mv	s7,a3
    3e90:	00098593          	mv	a1,s3
    3e94:	b99ff06f          	j	3a2c <__muldf3+0x188>
    3e98:	00100713          	li	a4,1
    3e9c:	10079063          	bnez	a5,3f9c <__muldf3+0x6f8>
    3ea0:	41e30313          	add	t1,t1,1054
    3ea4:	006a1633          	sll	a2,s4,t1
    3ea8:	00c03633          	snez	a2,a2
    3eac:	00649333          	sll	t1,s1,t1
    3eb0:	00ea5a33          	srl	s4,s4,a4
    3eb4:	00666633          	or	a2,a2,t1
    3eb8:	01466633          	or	a2,a2,s4
    3ebc:	00767793          	and	a5,a2,7
    3ec0:	00e4d5b3          	srl	a1,s1,a4
    3ec4:	02078063          	beqz	a5,3ee4 <__muldf3+0x640>
    3ec8:	00f67793          	and	a5,a2,15
    3ecc:	00400713          	li	a4,4
    3ed0:	00e78a63          	beq	a5,a4,3ee4 <__muldf3+0x640>
    3ed4:	00460793          	add	a5,a2,4
    3ed8:	00c7b633          	sltu	a2,a5,a2
    3edc:	00c585b3          	add	a1,a1,a2
    3ee0:	00078613          	mv	a2,a5
    3ee4:	00859513          	sll	a0,a1,0x8
    3ee8:	00100793          	li	a5,1
    3eec:	00000693          	li	a3,0
    3ef0:	00000713          	li	a4,0
    3ef4:	b60540e3          	bltz	a0,3a54 <__muldf3+0x1b0>
    3ef8:	10c0006f          	j	4004 <__muldf3+0x760>
    3efc:	00f00713          	li	a4,15
    3f00:	12eb1063          	bne	s6,a4,4020 <__muldf3+0x77c>
    3f04:	00000813          	li	a6,0
    3f08:	000806b7          	lui	a3,0x80
    3f0c:	00000713          	li	a4,0
    3f10:	b45ff06f          	j	3a54 <__muldf3+0x1b0>
    3f14:	43d000ef          	jal	4b50 <__clzsi2>
    3f18:	01550693          	add	a3,a0,21
    3f1c:	01c00793          	li	a5,28
    3f20:	02050713          	add	a4,a0,32
    3f24:	ecd7d4e3          	bge	a5,a3,3dec <__muldf3+0x548>
    3f28:	ff850513          	add	a0,a0,-8
    3f2c:	00000a13          	li	s4,0
    3f30:	00a414b3          	sll	s1,s0,a0
    3f34:	ed5ff06f          	j	3e08 <__muldf3+0x564>
    3f38:	000a8513          	mv	a0,s5
    3f3c:	415000ef          	jal	4b50 <__clzsi2>
    3f40:	01550713          	add	a4,a0,21
    3f44:	01c00793          	li	a5,28
    3f48:	02050313          	add	t1,a0,32
    3f4c:	aae7d4e3          	bge	a5,a4,39f4 <__muldf3+0x150>
    3f50:	ff850513          	add	a0,a0,-8
    3f54:	00000e13          	li	t3,0
    3f58:	00aa9433          	sll	s0,s5,a0
    3f5c:	ab5ff06f          	j	3a10 <__muldf3+0x16c>
    3f60:	00000813          	li	a6,0
    3f64:	7ff00793          	li	a5,2047
    3f68:	000806b7          	lui	a3,0x80
    3f6c:	ae9ff06f          	j	3a54 <__muldf3+0x1b0>
    3f70:	00088313          	mv	t1,a7
    3f74:	df5ff06f          	j	3d68 <__muldf3+0x4c4>
    3f78:	7ff00793          	li	a5,2047
    3f7c:	00000693          	li	a3,0
    3f80:	00000713          	li	a4,0
    3f84:	ad1ff06f          	j	3a54 <__muldf3+0x1b0>
    3f88:	00000813          	li	a6,0
    3f8c:	7ff00793          	li	a5,2047
    3f90:	000806b7          	lui	a3,0x80
    3f94:	00000713          	li	a4,0
    3f98:	abdff06f          	j	3a54 <__muldf3+0x1b0>
    3f9c:	40f70733          	sub	a4,a4,a5
    3fa0:	03800693          	li	a3,56
    3fa4:	aae6c2e3          	blt	a3,a4,3a48 <__muldf3+0x1a4>
    3fa8:	01f00693          	li	a3,31
    3fac:	eee6dae3          	bge	a3,a4,3ea0 <__muldf3+0x5fc>
    3fb0:	fe100693          	li	a3,-31
    3fb4:	40f687b3          	sub	a5,a3,a5
    3fb8:	02000693          	li	a3,32
    3fbc:	00f4d7b3          	srl	a5,s1,a5
    3fc0:	00d70863          	beq	a4,a3,3fd0 <__muldf3+0x72c>
    3fc4:	43e30313          	add	t1,t1,1086
    3fc8:	00649333          	sll	t1,s1,t1
    3fcc:	006a6a33          	or	s4,s4,t1
    3fd0:	01403633          	snez	a2,s4
    3fd4:	00f66633          	or	a2,a2,a5
    3fd8:	00767713          	and	a4,a2,7
    3fdc:	00000693          	li	a3,0
    3fe0:	02070863          	beqz	a4,4010 <__muldf3+0x76c>
    3fe4:	00f67793          	and	a5,a2,15
    3fe8:	00400713          	li	a4,4
    3fec:	00000593          	li	a1,0
    3ff0:	00e78a63          	beq	a5,a4,4004 <__muldf3+0x760>
    3ff4:	00460793          	add	a5,a2,4
    3ff8:	00c7b633          	sltu	a2,a5,a2
    3ffc:	00c035b3          	snez	a1,a2
    4000:	00078613          	mv	a2,a5
    4004:	00959693          	sll	a3,a1,0x9
    4008:	01d59713          	sll	a4,a1,0x1d
    400c:	00c6d693          	srl	a3,a3,0xc
    4010:	00365613          	srl	a2,a2,0x3
    4014:	00e66733          	or	a4,a2,a4
    4018:	00000793          	li	a5,0
    401c:	a39ff06f          	j	3a54 <__muldf3+0x1b0>
    4020:	00040493          	mv	s1,s0
    4024:	000a8a13          	mv	s4,s5
    4028:	00300b93          	li	s7,3
    402c:	00098593          	mv	a1,s3
    4030:	9fdff06f          	j	3a2c <__muldf3+0x188>

00004034 <__subdf3>:
    4034:	001007b7          	lui	a5,0x100
    4038:	fff78793          	add	a5,a5,-1 # fffff <IMEM_SIZE+0xebfff>
    403c:	fe010113          	add	sp,sp,-32
    4040:	00b7f8b3          	and	a7,a5,a1
    4044:	00d7f833          	and	a6,a5,a3
    4048:	0146d793          	srl	a5,a3,0x14
    404c:	00389893          	sll	a7,a7,0x3
    4050:	00812c23          	sw	s0,24(sp)
    4054:	01312623          	sw	s3,12(sp)
    4058:	01f5d413          	srl	s0,a1,0x1f
    405c:	0145d993          	srl	s3,a1,0x14
    4060:	01d55713          	srl	a4,a0,0x1d
    4064:	00381813          	sll	a6,a6,0x3
    4068:	01d65593          	srl	a1,a2,0x1d
    406c:	00112e23          	sw	ra,28(sp)
    4070:	00912a23          	sw	s1,20(sp)
    4074:	01212823          	sw	s2,16(sp)
    4078:	7ff7ff13          	and	t5,a5,2047
    407c:	7ff00313          	li	t1,2047
    4080:	01176733          	or	a4,a4,a7
    4084:	7ff9f993          	and	s3,s3,2047
    4088:	00040e13          	mv	t3,s0
    408c:	00351893          	sll	a7,a0,0x3
    4090:	01f6d693          	srl	a3,a3,0x1f
    4094:	0105e5b3          	or	a1,a1,a6
    4098:	00361e93          	sll	t4,a2,0x3
    409c:	206f0c63          	beq	t5,t1,42b4 <__subdf3+0x280>
    40a0:	0016c693          	xor	a3,a3,1
    40a4:	41e987b3          	sub	a5,s3,t5
    40a8:	16d40263          	beq	s0,a3,420c <__subdf3+0x1d8>
    40ac:	00f05ae3          	blez	a5,48c0 <__subdf3+0x88c>
    40b0:	240f0a63          	beqz	t5,4304 <__subdf3+0x2d0>
    40b4:	3c698463          	beq	s3,t1,447c <__subdf3+0x448>
    40b8:	03800693          	li	a3,56
    40bc:	00100513          	li	a0,1
    40c0:	02f6ce63          	blt	a3,a5,40fc <__subdf3+0xc8>
    40c4:	008006b7          	lui	a3,0x800
    40c8:	00d5e5b3          	or	a1,a1,a3
    40cc:	01f00693          	li	a3,31
    40d0:	4ef6c463          	blt	a3,a5,45b8 <__subdf3+0x584>
    40d4:	02000693          	li	a3,32
    40d8:	40f686b3          	sub	a3,a3,a5
    40dc:	00d59533          	sll	a0,a1,a3
    40e0:	00fed633          	srl	a2,t4,a5
    40e4:	00de96b3          	sll	a3,t4,a3
    40e8:	00c56533          	or	a0,a0,a2
    40ec:	00d036b3          	snez	a3,a3
    40f0:	00f5d7b3          	srl	a5,a1,a5
    40f4:	00d56533          	or	a0,a0,a3
    40f8:	40f70733          	sub	a4,a4,a5
    40fc:	40a88533          	sub	a0,a7,a0
    4100:	00a8b633          	sltu	a2,a7,a0
    4104:	00050493          	mv	s1,a0
    4108:	40c70933          	sub	s2,a4,a2
    410c:	00891793          	sll	a5,s2,0x8
    4110:	3407d863          	bgez	a5,4460 <__subdf3+0x42c>
    4114:	008007b7          	lui	a5,0x800
    4118:	fff78793          	add	a5,a5,-1 # 7fffff <MTSSV_BASE+0x6f8007>
    411c:	00f97933          	and	s2,s2,a5
    4120:	2e090663          	beqz	s2,440c <__subdf3+0x3d8>
    4124:	00090513          	mv	a0,s2
    4128:	229000ef          	jal	4b50 <__clzsi2>
    412c:	ff850793          	add	a5,a0,-8
    4130:	02000693          	li	a3,32
    4134:	40f68733          	sub	a4,a3,a5
    4138:	00e4d733          	srl	a4,s1,a4
    413c:	00f91933          	sll	s2,s2,a5
    4140:	01276733          	or	a4,a4,s2
    4144:	00f494b3          	sll	s1,s1,a5
    4148:	3f37c463          	blt	a5,s3,4530 <__subdf3+0x4fc>
    414c:	413787b3          	sub	a5,a5,s3
    4150:	00178793          	add	a5,a5,1
    4154:	40f686b3          	sub	a3,a3,a5
    4158:	00d49633          	sll	a2,s1,a3
    415c:	00f4d933          	srl	s2,s1,a5
    4160:	00c03633          	snez	a2,a2
    4164:	00c96633          	or	a2,s2,a2
    4168:	00d716b3          	sll	a3,a4,a3
    416c:	00c6e4b3          	or	s1,a3,a2
    4170:	00f75933          	srl	s2,a4,a5
    4174:	00000993          	li	s3,0
    4178:	0074f793          	and	a5,s1,7
    417c:	02078063          	beqz	a5,419c <__subdf3+0x168>
    4180:	00f4f793          	and	a5,s1,15
    4184:	00400713          	li	a4,4
    4188:	00e78a63          	beq	a5,a4,419c <__subdf3+0x168>
    418c:	00448793          	add	a5,s1,4
    4190:	0097b533          	sltu	a0,a5,s1
    4194:	00a90933          	add	s2,s2,a0
    4198:	00078493          	mv	s1,a5
    419c:	00891793          	sll	a5,s2,0x8
    41a0:	6c07d063          	bgez	a5,4860 <__subdf3+0x82c>
    41a4:	00198793          	add	a5,s3,1
    41a8:	7ff00713          	li	a4,2047
    41ac:	24e78663          	beq	a5,a4,43f8 <__subdf3+0x3c4>
    41b0:	ff800737          	lui	a4,0xff800
    41b4:	fff70713          	add	a4,a4,-1 # ff7fffff <MTSSV_BASE+0xff6f8007>
    41b8:	00e97733          	and	a4,s2,a4
    41bc:	7ff7f793          	and	a5,a5,2047
    41c0:	01d71813          	sll	a6,a4,0x1d
    41c4:	0034d513          	srl	a0,s1,0x3
    41c8:	00971713          	sll	a4,a4,0x9
    41cc:	00a86833          	or	a6,a6,a0
    41d0:	00c75713          	srl	a4,a4,0xc
    41d4:	00147e13          	and	t3,s0,1
    41d8:	01c12083          	lw	ra,28(sp)
    41dc:	01812403          	lw	s0,24(sp)
    41e0:	01479793          	sll	a5,a5,0x14
    41e4:	00e7e7b3          	or	a5,a5,a4
    41e8:	01fe1713          	sll	a4,t3,0x1f
    41ec:	00e7e7b3          	or	a5,a5,a4
    41f0:	01412483          	lw	s1,20(sp)
    41f4:	01012903          	lw	s2,16(sp)
    41f8:	00c12983          	lw	s3,12(sp)
    41fc:	00080513          	mv	a0,a6
    4200:	00078593          	mv	a1,a5
    4204:	02010113          	add	sp,sp,32
    4208:	00008067          	ret
    420c:	70f05263          	blez	a5,4910 <__subdf3+0x8dc>
    4210:	1c0f1663          	bnez	t5,43dc <__subdf3+0x3a8>
    4214:	01d5e6b3          	or	a3,a1,t4
    4218:	26068e63          	beqz	a3,4494 <__subdf3+0x460>
    421c:	fff78693          	add	a3,a5,-1
    4220:	46068863          	beqz	a3,4690 <__subdf3+0x65c>
    4224:	24678c63          	beq	a5,t1,447c <__subdf3+0x448>
    4228:	03800793          	li	a5,56
    422c:	00100913          	li	s2,1
    4230:	02d7cc63          	blt	a5,a3,4268 <__subdf3+0x234>
    4234:	00068793          	mv	a5,a3
    4238:	01f00693          	li	a3,31
    423c:	48f6ca63          	blt	a3,a5,46d0 <__subdf3+0x69c>
    4240:	02000693          	li	a3,32
    4244:	40f686b3          	sub	a3,a3,a5
    4248:	00d59933          	sll	s2,a1,a3
    424c:	00fed633          	srl	a2,t4,a5
    4250:	00de96b3          	sll	a3,t4,a3
    4254:	00c96933          	or	s2,s2,a2
    4258:	00d036b3          	snez	a3,a3
    425c:	00f5d7b3          	srl	a5,a1,a5
    4260:	00d96933          	or	s2,s2,a3
    4264:	00f70733          	add	a4,a4,a5
    4268:	01190633          	add	a2,s2,a7
    426c:	01263933          	sltu	s2,a2,s2
    4270:	00060493          	mv	s1,a2
    4274:	00e90933          	add	s2,s2,a4
    4278:	00891793          	sll	a5,s2,0x8
    427c:	1e07d263          	bgez	a5,4460 <__subdf3+0x42c>
    4280:	00198993          	add	s3,s3,1
    4284:	7ff00793          	li	a5,2047
    4288:	16f98863          	beq	s3,a5,43f8 <__subdf3+0x3c4>
    428c:	ff8007b7          	lui	a5,0xff800
    4290:	fff78793          	add	a5,a5,-1 # ff7fffff <MTSSV_BASE+0xff6f8007>
    4294:	0014f513          	and	a0,s1,1
    4298:	00f977b3          	and	a5,s2,a5
    429c:	0014d713          	srl	a4,s1,0x1
    42a0:	00a76733          	or	a4,a4,a0
    42a4:	01f79513          	sll	a0,a5,0x1f
    42a8:	00e564b3          	or	s1,a0,a4
    42ac:	0017d913          	srl	s2,a5,0x1
    42b0:	ec9ff06f          	j	4178 <__subdf3+0x144>
    42b4:	01d5e833          	or	a6,a1,t4
    42b8:	80198313          	add	t1,s3,-2047
    42bc:	06080863          	beqz	a6,432c <__subdf3+0x2f8>
    42c0:	06d40a63          	beq	s0,a3,4334 <__subdf3+0x300>
    42c4:	0e030463          	beqz	t1,43ac <__subdf3+0x378>
    42c8:	26098e63          	beqz	s3,4544 <__subdf3+0x510>
    42cc:	00361513          	sll	a0,a2,0x3
    42d0:	00355513          	srl	a0,a0,0x3
    42d4:	00068413          	mv	s0,a3
    42d8:	00058713          	mv	a4,a1
    42dc:	01d71813          	sll	a6,a4,0x1d
    42e0:	00a86833          	or	a6,a6,a0
    42e4:	00375713          	srl	a4,a4,0x3
    42e8:	01076733          	or	a4,a4,a6
    42ec:	10070663          	beqz	a4,43f8 <__subdf3+0x3c4>
    42f0:	00000e13          	li	t3,0
    42f4:	7ff00793          	li	a5,2047
    42f8:	00080737          	lui	a4,0x80
    42fc:	00000813          	li	a6,0
    4300:	ed9ff06f          	j	41d8 <__subdf3+0x1a4>
    4304:	01d5e6b3          	or	a3,a1,t4
    4308:	18068663          	beqz	a3,4494 <__subdf3+0x460>
    430c:	fff78693          	add	a3,a5,-1
    4310:	3a068263          	beqz	a3,46b4 <__subdf3+0x680>
    4314:	16678463          	beq	a5,t1,447c <__subdf3+0x448>
    4318:	03800793          	li	a5,56
    431c:	00100513          	li	a0,1
    4320:	dcd7cee3          	blt	a5,a3,40fc <__subdf3+0xc8>
    4324:	00068793          	mv	a5,a3
    4328:	da5ff06f          	j	40cc <__subdf3+0x98>
    432c:	0016c693          	xor	a3,a3,1
    4330:	f8d41ae3          	bne	s0,a3,42c4 <__subdf3+0x290>
    4334:	18030863          	beqz	t1,44c4 <__subdf3+0x490>
    4338:	2c099063          	bnez	s3,45f8 <__subdf3+0x5c4>
    433c:	7ff00793          	li	a5,2047
    4340:	011766b3          	or	a3,a4,a7
    4344:	48068863          	beqz	a3,47d4 <__subdf3+0x7a0>
    4348:	fff78693          	add	a3,a5,-1
    434c:	34068263          	beqz	a3,4690 <__subdf3+0x65c>
    4350:	7ff00513          	li	a0,2047
    4354:	2aa78263          	beq	a5,a0,45f8 <__subdf3+0x5c4>
    4358:	03800793          	li	a5,56
    435c:	00100913          	li	s2,1
    4360:	02d7ca63          	blt	a5,a3,4394 <__subdf3+0x360>
    4364:	01f00793          	li	a5,31
    4368:	4cd7c663          	blt	a5,a3,4834 <__subdf3+0x800>
    436c:	02000793          	li	a5,32
    4370:	40d787b3          	sub	a5,a5,a3
    4374:	00f71933          	sll	s2,a4,a5
    4378:	00d8d633          	srl	a2,a7,a3
    437c:	00f897b3          	sll	a5,a7,a5
    4380:	00c96933          	or	s2,s2,a2
    4384:	00f037b3          	snez	a5,a5
    4388:	00d756b3          	srl	a3,a4,a3
    438c:	00f96933          	or	s2,s2,a5
    4390:	00d585b3          	add	a1,a1,a3
    4394:	01d90733          	add	a4,s2,t4
    4398:	01273933          	sltu	s2,a4,s2
    439c:	00070493          	mv	s1,a4
    43a0:	00b90933          	add	s2,s2,a1
    43a4:	000f0993          	mv	s3,t5
    43a8:	ed1ff06f          	j	4278 <__subdf3+0x244>
    43ac:	00198793          	add	a5,s3,1
    43b0:	7fe7f793          	and	a5,a5,2046
    43b4:	14079463          	bnez	a5,44fc <__subdf3+0x4c8>
    43b8:	01d5e833          	or	a6,a1,t4
    43bc:	011767b3          	or	a5,a4,a7
    43c0:	2a099463          	bnez	s3,4668 <__subdf3+0x634>
    43c4:	38078e63          	beqz	a5,4760 <__subdf3+0x72c>
    43c8:	3c081063          	bnez	a6,4788 <__subdf3+0x754>
    43cc:	00351513          	sll	a0,a0,0x3
    43d0:	00355913          	srl	s2,a0,0x3
    43d4:	00000793          	li	a5,0
    43d8:	1140006f          	j	44ec <__subdf3+0x4b8>
    43dc:	0a698063          	beq	s3,t1,447c <__subdf3+0x448>
    43e0:	03800693          	li	a3,56
    43e4:	00100913          	li	s2,1
    43e8:	e8f6c0e3          	blt	a3,a5,4268 <__subdf3+0x234>
    43ec:	008006b7          	lui	a3,0x800
    43f0:	00d5e5b3          	or	a1,a1,a3
    43f4:	e45ff06f          	j	4238 <__subdf3+0x204>
    43f8:	00147e13          	and	t3,s0,1
    43fc:	7ff00793          	li	a5,2047
    4400:	00000713          	li	a4,0
    4404:	00000813          	li	a6,0
    4408:	dd1ff06f          	j	41d8 <__subdf3+0x1a4>
    440c:	00048513          	mv	a0,s1
    4410:	740000ef          	jal	4b50 <__clzsi2>
    4414:	01850793          	add	a5,a0,24
    4418:	01f00693          	li	a3,31
    441c:	d0f6dae3          	bge	a3,a5,4130 <__subdf3+0xfc>
    4420:	ff850713          	add	a4,a0,-8
    4424:	00e49733          	sll	a4,s1,a4
    4428:	1b37ce63          	blt	a5,s3,45e4 <__subdf3+0x5b0>
    442c:	413789b3          	sub	s3,a5,s3
    4430:	00198793          	add	a5,s3,1
    4434:	42f6de63          	bge	a3,a5,4870 <__subdf3+0x83c>
    4438:	fe198993          	add	s3,s3,-31
    443c:	02000693          	li	a3,32
    4440:	013754b3          	srl	s1,a4,s3
    4444:	00d78c63          	beq	a5,a3,445c <__subdf3+0x428>
    4448:	04000693          	li	a3,64
    444c:	40f687b3          	sub	a5,a3,a5
    4450:	00f71733          	sll	a4,a4,a5
    4454:	00e03733          	snez	a4,a4
    4458:	00e4e4b3          	or	s1,s1,a4
    445c:	00000993          	li	s3,0
    4460:	0074f793          	and	a5,s1,7
    4464:	d0079ee3          	bnez	a5,4180 <__subdf3+0x14c>
    4468:	00098793          	mv	a5,s3
    446c:	0034d513          	srl	a0,s1,0x3
    4470:	00090713          	mv	a4,s2
    4474:	0280006f          	j	449c <__subdf3+0x468>
    4478:	e6081ce3          	bnez	a6,42f0 <__subdf3+0x2bc>
    447c:	00351513          	sll	a0,a0,0x3
    4480:	01d71813          	sll	a6,a4,0x1d
    4484:	00355513          	srl	a0,a0,0x3
    4488:	00a86833          	or	a6,a6,a0
    448c:	00375713          	srl	a4,a4,0x3
    4490:	e59ff06f          	j	42e8 <__subdf3+0x2b4>
    4494:	00351513          	sll	a0,a0,0x3
    4498:	00355513          	srl	a0,a0,0x3
    449c:	01d71813          	sll	a6,a4,0x1d
    44a0:	7ff00693          	li	a3,2047
    44a4:	00a86833          	or	a6,a6,a0
    44a8:	00375713          	srl	a4,a4,0x3
    44ac:	e2d78ee3          	beq	a5,a3,42e8 <__subdf3+0x2b4>
    44b0:	00c71713          	sll	a4,a4,0xc
    44b4:	00c75713          	srl	a4,a4,0xc
    44b8:	7ff7f793          	and	a5,a5,2047
    44bc:	00147e13          	and	t3,s0,1
    44c0:	d19ff06f          	j	41d8 <__subdf3+0x1a4>
    44c4:	00198693          	add	a3,s3,1
    44c8:	7fe6f793          	and	a5,a3,2046
    44cc:	12079e63          	bnez	a5,4608 <__subdf3+0x5d4>
    44d0:	011767b3          	or	a5,a4,a7
    44d4:	24099a63          	bnez	s3,4728 <__subdf3+0x6f4>
    44d8:	30078663          	beqz	a5,47e4 <__subdf3+0x7b0>
    44dc:	01d5e7b3          	or	a5,a1,t4
    44e0:	30079a63          	bnez	a5,47f4 <__subdf3+0x7c0>
    44e4:	00351513          	sll	a0,a0,0x3
    44e8:	00355913          	srl	s2,a0,0x3
    44ec:	01d71813          	sll	a6,a4,0x1d
    44f0:	01286833          	or	a6,a6,s2
    44f4:	00375713          	srl	a4,a4,0x3
    44f8:	fb9ff06f          	j	44b0 <__subdf3+0x47c>
    44fc:	41d88833          	sub	a6,a7,t4
    4500:	0108b7b3          	sltu	a5,a7,a6
    4504:	40b70933          	sub	s2,a4,a1
    4508:	40f90933          	sub	s2,s2,a5
    450c:	00891793          	sll	a5,s2,0x8
    4510:	00080493          	mv	s1,a6
    4514:	1207c263          	bltz	a5,4638 <__subdf3+0x604>
    4518:	01286833          	or	a6,a6,s2
    451c:	c00812e3          	bnez	a6,4120 <__subdf3+0xec>
    4520:	00000e13          	li	t3,0
    4524:	00000793          	li	a5,0
    4528:	00000713          	li	a4,0
    452c:	cadff06f          	j	41d8 <__subdf3+0x1a4>
    4530:	ff800937          	lui	s2,0xff800
    4534:	fff90913          	add	s2,s2,-1 # ff7fffff <MTSSV_BASE+0xff6f8007>
    4538:	40f989b3          	sub	s3,s3,a5
    453c:	01277933          	and	s2,a4,s2
    4540:	c39ff06f          	j	4178 <__subdf3+0x144>
    4544:	7ff00793          	li	a5,2047
    4548:	01176533          	or	a0,a4,a7
    454c:	10050463          	beqz	a0,4654 <__subdf3+0x620>
    4550:	fff78813          	add	a6,a5,-1
    4554:	1e080263          	beqz	a6,4738 <__subdf3+0x704>
    4558:	7ff00513          	li	a0,2047
    455c:	d6a788e3          	beq	a5,a0,42cc <__subdf3+0x298>
    4560:	03800793          	li	a5,56
    4564:	00068413          	mv	s0,a3
    4568:	00100513          	li	a0,1
    456c:	0307ca63          	blt	a5,a6,45a0 <__subdf3+0x56c>
    4570:	01f00793          	li	a5,31
    4574:	1907c463          	blt	a5,a6,46fc <__subdf3+0x6c8>
    4578:	02000793          	li	a5,32
    457c:	410787b3          	sub	a5,a5,a6
    4580:	00f71533          	sll	a0,a4,a5
    4584:	0108d6b3          	srl	a3,a7,a6
    4588:	00f897b3          	sll	a5,a7,a5
    458c:	00d56533          	or	a0,a0,a3
    4590:	00f037b3          	snez	a5,a5
    4594:	01075833          	srl	a6,a4,a6
    4598:	00f56533          	or	a0,a0,a5
    459c:	410585b3          	sub	a1,a1,a6
    45a0:	40ae8533          	sub	a0,t4,a0
    45a4:	00aeb733          	sltu	a4,t4,a0
    45a8:	00050493          	mv	s1,a0
    45ac:	40e58933          	sub	s2,a1,a4
    45b0:	000f0993          	mv	s3,t5
    45b4:	b59ff06f          	j	410c <__subdf3+0xd8>
    45b8:	fe078693          	add	a3,a5,-32
    45bc:	02000613          	li	a2,32
    45c0:	00d5d6b3          	srl	a3,a1,a3
    45c4:	00c78a63          	beq	a5,a2,45d8 <__subdf3+0x5a4>
    45c8:	04000613          	li	a2,64
    45cc:	40f607b3          	sub	a5,a2,a5
    45d0:	00f597b3          	sll	a5,a1,a5
    45d4:	00feeeb3          	or	t4,t4,a5
    45d8:	01d03533          	snez	a0,t4
    45dc:	00d56533          	or	a0,a0,a3
    45e0:	b1dff06f          	j	40fc <__subdf3+0xc8>
    45e4:	ff8006b7          	lui	a3,0xff800
    45e8:	fff68693          	add	a3,a3,-1 # ff7fffff <MTSSV_BASE+0xff6f8007>
    45ec:	40f987b3          	sub	a5,s3,a5
    45f0:	00d77733          	and	a4,a4,a3
    45f4:	ef9ff06f          	j	44ec <__subdf3+0x4b8>
    45f8:	00361513          	sll	a0,a2,0x3
    45fc:	00355513          	srl	a0,a0,0x3
    4600:	00058713          	mv	a4,a1
    4604:	cd9ff06f          	j	42dc <__subdf3+0x2a8>
    4608:	7ff00793          	li	a5,2047
    460c:	def686e3          	beq	a3,a5,43f8 <__subdf3+0x3c4>
    4610:	01d88eb3          	add	t4,a7,t4
    4614:	011eb633          	sltu	a2,t4,a7
    4618:	00b707b3          	add	a5,a4,a1
    461c:	00c787b3          	add	a5,a5,a2
    4620:	01f79513          	sll	a0,a5,0x1f
    4624:	001ede93          	srl	t4,t4,0x1
    4628:	01d564b3          	or	s1,a0,t4
    462c:	0017d913          	srl	s2,a5,0x1
    4630:	00068993          	mv	s3,a3
    4634:	b45ff06f          	j	4178 <__subdf3+0x144>
    4638:	411e8633          	sub	a2,t4,a7
    463c:	40e587b3          	sub	a5,a1,a4
    4640:	00ceb733          	sltu	a4,t4,a2
    4644:	00060493          	mv	s1,a2
    4648:	40e78933          	sub	s2,a5,a4
    464c:	00068413          	mv	s0,a3
    4650:	ad1ff06f          	j	4120 <__subdf3+0xec>
    4654:	00361613          	sll	a2,a2,0x3
    4658:	00365513          	srl	a0,a2,0x3
    465c:	00068413          	mv	s0,a3
    4660:	00058713          	mv	a4,a1
    4664:	e39ff06f          	j	449c <__subdf3+0x468>
    4668:	e00798e3          	bnez	a5,4478 <__subdf3+0x444>
    466c:	22080663          	beqz	a6,4898 <__subdf3+0x864>
    4670:	0035d713          	srl	a4,a1,0x3
    4674:	00361613          	sll	a2,a2,0x3
    4678:	01d59593          	sll	a1,a1,0x1d
    467c:	00b76733          	or	a4,a4,a1
    4680:	00365613          	srl	a2,a2,0x3
    4684:	00c76733          	or	a4,a4,a2
    4688:	00068413          	mv	s0,a3
    468c:	c61ff06f          	j	42ec <__subdf3+0x2b8>
    4690:	01d88eb3          	add	t4,a7,t4
    4694:	00b705b3          	add	a1,a4,a1
    4698:	011eb633          	sltu	a2,t4,a7
    469c:	00c58933          	add	s2,a1,a2
    46a0:	00891793          	sll	a5,s2,0x8
    46a4:	000e8493          	mv	s1,t4
    46a8:	0a07d863          	bgez	a5,4758 <__subdf3+0x724>
    46ac:	00200993          	li	s3,2
    46b0:	bddff06f          	j	428c <__subdf3+0x258>
    46b4:	41d88eb3          	sub	t4,a7,t4
    46b8:	40b705b3          	sub	a1,a4,a1
    46bc:	01d8b633          	sltu	a2,a7,t4
    46c0:	000e8493          	mv	s1,t4
    46c4:	40c58933          	sub	s2,a1,a2
    46c8:	00100993          	li	s3,1
    46cc:	a41ff06f          	j	410c <__subdf3+0xd8>
    46d0:	fe078693          	add	a3,a5,-32
    46d4:	02000613          	li	a2,32
    46d8:	00d5d6b3          	srl	a3,a1,a3
    46dc:	00c78a63          	beq	a5,a2,46f0 <__subdf3+0x6bc>
    46e0:	04000613          	li	a2,64
    46e4:	40f607b3          	sub	a5,a2,a5
    46e8:	00f597b3          	sll	a5,a1,a5
    46ec:	00feeeb3          	or	t4,t4,a5
    46f0:	01d03933          	snez	s2,t4
    46f4:	00d96933          	or	s2,s2,a3
    46f8:	b71ff06f          	j	4268 <__subdf3+0x234>
    46fc:	fe080793          	add	a5,a6,-32
    4700:	02000693          	li	a3,32
    4704:	00f757b3          	srl	a5,a4,a5
    4708:	00d80a63          	beq	a6,a3,471c <__subdf3+0x6e8>
    470c:	04000693          	li	a3,64
    4710:	410686b3          	sub	a3,a3,a6
    4714:	00d71733          	sll	a4,a4,a3
    4718:	00e8e8b3          	or	a7,a7,a4
    471c:	01103533          	snez	a0,a7
    4720:	00f56533          	or	a0,a0,a5
    4724:	e7dff06f          	j	45a0 <__subdf3+0x56c>
    4728:	ec0788e3          	beqz	a5,45f8 <__subdf3+0x5c4>
    472c:	01d5eeb3          	or	t4,a1,t4
    4730:	bc0e90e3          	bnez	t4,42f0 <__subdf3+0x2bc>
    4734:	d49ff06f          	j	447c <__subdf3+0x448>
    4738:	411e8633          	sub	a2,t4,a7
    473c:	40e585b3          	sub	a1,a1,a4
    4740:	00ceb733          	sltu	a4,t4,a2
    4744:	00060493          	mv	s1,a2
    4748:	40e58933          	sub	s2,a1,a4
    474c:	00068413          	mv	s0,a3
    4750:	00100993          	li	s3,1
    4754:	9b9ff06f          	j	410c <__subdf3+0xd8>
    4758:	00100793          	li	a5,1
    475c:	d11ff06f          	j	446c <__subdf3+0x438>
    4760:	dc0800e3          	beqz	a6,4520 <__subdf3+0x4ec>
    4764:	00361613          	sll	a2,a2,0x3
    4768:	00365793          	srl	a5,a2,0x3
    476c:	01d59813          	sll	a6,a1,0x1d
    4770:	00959713          	sll	a4,a1,0x9
    4774:	00f86833          	or	a6,a6,a5
    4778:	00c75713          	srl	a4,a4,0xc
    477c:	00068e13          	mv	t3,a3
    4780:	00000793          	li	a5,0
    4784:	a55ff06f          	j	41d8 <__subdf3+0x1a4>
    4788:	41d88933          	sub	s2,a7,t4
    478c:	0128b7b3          	sltu	a5,a7,s2
    4790:	40b70633          	sub	a2,a4,a1
    4794:	40f60633          	sub	a2,a2,a5
    4798:	00861793          	sll	a5,a2,0x8
    479c:	0e07d263          	bgez	a5,4880 <__subdf3+0x84c>
    47a0:	411e8633          	sub	a2,t4,a7
    47a4:	40e58733          	sub	a4,a1,a4
    47a8:	00cebeb3          	sltu	t4,t4,a2
    47ac:	41d70733          	sub	a4,a4,t4
    47b0:	00871793          	sll	a5,a4,0x8
    47b4:	00060493          	mv	s1,a2
    47b8:	1207de63          	bgez	a5,48f4 <__subdf3+0x8c0>
    47bc:	ff8007b7          	lui	a5,0xff800
    47c0:	fff78793          	add	a5,a5,-1 # ff7fffff <MTSSV_BASE+0xff6f8007>
    47c4:	00f77733          	and	a4,a4,a5
    47c8:	00068413          	mv	s0,a3
    47cc:	00100793          	li	a5,1
    47d0:	9f1ff06f          	j	41c0 <__subdf3+0x18c>
    47d4:	00361613          	sll	a2,a2,0x3
    47d8:	00365513          	srl	a0,a2,0x3
    47dc:	00058713          	mv	a4,a1
    47e0:	cbdff06f          	j	449c <__subdf3+0x468>
    47e4:	00361613          	sll	a2,a2,0x3
    47e8:	00365913          	srl	s2,a2,0x3
    47ec:	00058713          	mv	a4,a1
    47f0:	cfdff06f          	j	44ec <__subdf3+0x4b8>
    47f4:	01d886b3          	add	a3,a7,t4
    47f8:	00b707b3          	add	a5,a4,a1
    47fc:	0116b633          	sltu	a2,a3,a7
    4800:	00c787b3          	add	a5,a5,a2
    4804:	00879713          	sll	a4,a5,0x8
    4808:	0036d813          	srl	a6,a3,0x3
    480c:	08075e63          	bgez	a4,48a8 <__subdf3+0x874>
    4810:	ff800737          	lui	a4,0xff800
    4814:	fff70713          	add	a4,a4,-1 # ff7fffff <MTSSV_BASE+0xff6f8007>
    4818:	00e7f7b3          	and	a5,a5,a4
    481c:	01d79713          	sll	a4,a5,0x1d
    4820:	00979793          	sll	a5,a5,0x9
    4824:	01076833          	or	a6,a4,a6
    4828:	00c7d713          	srl	a4,a5,0xc
    482c:	00100793          	li	a5,1
    4830:	9a9ff06f          	j	41d8 <__subdf3+0x1a4>
    4834:	fe068793          	add	a5,a3,-32
    4838:	02000613          	li	a2,32
    483c:	00f757b3          	srl	a5,a4,a5
    4840:	00c68a63          	beq	a3,a2,4854 <__subdf3+0x820>
    4844:	04000613          	li	a2,64
    4848:	40d606b3          	sub	a3,a2,a3
    484c:	00d71733          	sll	a4,a4,a3
    4850:	00e8e8b3          	or	a7,a7,a4
    4854:	01103933          	snez	s2,a7
    4858:	00f96933          	or	s2,s2,a5
    485c:	b39ff06f          	j	4394 <__subdf3+0x360>
    4860:	0034d513          	srl	a0,s1,0x3
    4864:	00098793          	mv	a5,s3
    4868:	00090713          	mv	a4,s2
    486c:	c31ff06f          	j	449c <__subdf3+0x468>
    4870:	02000693          	li	a3,32
    4874:	40f686b3          	sub	a3,a3,a5
    4878:	00000613          	li	a2,0
    487c:	8e9ff06f          	j	4164 <__subdf3+0x130>
    4880:	00c96833          	or	a6,s2,a2
    4884:	c8080ee3          	beqz	a6,4520 <__subdf3+0x4ec>
    4888:	00395913          	srl	s2,s2,0x3
    488c:	00000793          	li	a5,0
    4890:	00060713          	mv	a4,a2
    4894:	c59ff06f          	j	44ec <__subdf3+0x4b8>
    4898:	00000e13          	li	t3,0
    489c:	7ff00793          	li	a5,2047
    48a0:	00080737          	lui	a4,0x80
    48a4:	935ff06f          	j	41d8 <__subdf3+0x1a4>
    48a8:	01d79713          	sll	a4,a5,0x1d
    48ac:	00979793          	sll	a5,a5,0x9
    48b0:	01076833          	or	a6,a4,a6
    48b4:	00c7d713          	srl	a4,a5,0xc
    48b8:	00000793          	li	a5,0
    48bc:	91dff06f          	j	41d8 <__subdf3+0x1a4>
    48c0:	ae0786e3          	beqz	a5,43ac <__subdf3+0x378>
    48c4:	413f0833          	sub	a6,t5,s3
    48c8:	00080793          	mv	a5,a6
    48cc:	c6098ee3          	beqz	s3,4548 <__subdf3+0x514>
    48d0:	03800793          	li	a5,56
    48d4:	0107ca63          	blt	a5,a6,48e8 <__subdf3+0x8b4>
    48d8:	008007b7          	lui	a5,0x800
    48dc:	00f76733          	or	a4,a4,a5
    48e0:	00068413          	mv	s0,a3
    48e4:	c8dff06f          	j	4570 <__subdf3+0x53c>
    48e8:	00068413          	mv	s0,a3
    48ec:	00100513          	li	a0,1
    48f0:	cb1ff06f          	j	45a0 <__subdf3+0x56c>
    48f4:	01d71813          	sll	a6,a4,0x1d
    48f8:	00365613          	srl	a2,a2,0x3
    48fc:	00c86833          	or	a6,a6,a2
    4900:	00375713          	srl	a4,a4,0x3
    4904:	00000793          	li	a5,0
    4908:	00068413          	mv	s0,a3
    490c:	ba5ff06f          	j	44b0 <__subdf3+0x47c>
    4910:	ba078ae3          	beqz	a5,44c4 <__subdf3+0x490>
    4914:	413f06b3          	sub	a3,t5,s3
    4918:	00099663          	bnez	s3,4924 <__subdf3+0x8f0>
    491c:	00068793          	mv	a5,a3
    4920:	a21ff06f          	j	4340 <__subdf3+0x30c>
    4924:	03800793          	li	a5,56
    4928:	00100913          	li	s2,1
    492c:	a6d7c4e3          	blt	a5,a3,4394 <__subdf3+0x360>
    4930:	008007b7          	lui	a5,0x800
    4934:	00f76733          	or	a4,a4,a5
    4938:	a2dff06f          	j	4364 <__subdf3+0x330>

0000493c <__fixdfsi>:
    493c:	0145d793          	srl	a5,a1,0x14
    4940:	001006b7          	lui	a3,0x100
    4944:	fff68713          	add	a4,a3,-1 # fffff <IMEM_SIZE+0xebfff>
    4948:	7ff7f793          	and	a5,a5,2047
    494c:	3fe00613          	li	a2,1022
    4950:	00b77733          	and	a4,a4,a1
    4954:	01f5d593          	srl	a1,a1,0x1f
    4958:	00f65e63          	bge	a2,a5,4974 <__fixdfsi+0x38>
    495c:	41d00613          	li	a2,1053
    4960:	00f65e63          	bge	a2,a5,497c <__fixdfsi+0x40>
    4964:	80000537          	lui	a0,0x80000
    4968:	fff50513          	add	a0,a0,-1 # 7fffffff <MTSSV_BASE+0x7fef8007>
    496c:	00a58533          	add	a0,a1,a0
    4970:	00008067          	ret
    4974:	00000513          	li	a0,0
    4978:	00008067          	ret
    497c:	43300613          	li	a2,1075
    4980:	40f60633          	sub	a2,a2,a5
    4984:	01f00813          	li	a6,31
    4988:	00d76733          	or	a4,a4,a3
    498c:	02c85063          	bge	a6,a2,49ac <__fixdfsi+0x70>
    4990:	41300693          	li	a3,1043
    4994:	40f687b3          	sub	a5,a3,a5
    4998:	00f75733          	srl	a4,a4,a5
    499c:	40e00533          	neg	a0,a4
    49a0:	fc059ce3          	bnez	a1,4978 <__fixdfsi+0x3c>
    49a4:	00070513          	mv	a0,a4
    49a8:	00008067          	ret
    49ac:	bed78793          	add	a5,a5,-1043 # 7ffbed <MTSSV_BASE+0x6f7bf5>
    49b0:	00f71733          	sll	a4,a4,a5
    49b4:	00c55533          	srl	a0,a0,a2
    49b8:	00a76733          	or	a4,a4,a0
    49bc:	fe1ff06f          	j	499c <__fixdfsi+0x60>

000049c0 <__floatsidf>:
    49c0:	ff010113          	add	sp,sp,-16
    49c4:	00112623          	sw	ra,12(sp)
    49c8:	00812423          	sw	s0,8(sp)
    49cc:	00912223          	sw	s1,4(sp)
    49d0:	04050a63          	beqz	a0,4a24 <__floatsidf+0x64>
    49d4:	41f55713          	sra	a4,a0,0x1f
    49d8:	00a744b3          	xor	s1,a4,a0
    49dc:	40e484b3          	sub	s1,s1,a4
    49e0:	00050793          	mv	a5,a0
    49e4:	00048513          	mv	a0,s1
    49e8:	01f7d413          	srl	s0,a5,0x1f
    49ec:	164000ef          	jal	4b50 <__clzsi2>
    49f0:	41e00793          	li	a5,1054
    49f4:	40a787b3          	sub	a5,a5,a0
    49f8:	00a00713          	li	a4,10
    49fc:	7ff7f793          	and	a5,a5,2047
    4a00:	06a74063          	blt	a4,a0,4a60 <__floatsidf+0xa0>
    4a04:	00b00713          	li	a4,11
    4a08:	40a70733          	sub	a4,a4,a0
    4a0c:	00e4d733          	srl	a4,s1,a4
    4a10:	01550513          	add	a0,a0,21
    4a14:	00c71713          	sll	a4,a4,0xc
    4a18:	00a494b3          	sll	s1,s1,a0
    4a1c:	00c75713          	srl	a4,a4,0xc
    4a20:	0140006f          	j	4a34 <__floatsidf+0x74>
    4a24:	00000413          	li	s0,0
    4a28:	00000793          	li	a5,0
    4a2c:	00000713          	li	a4,0
    4a30:	00000493          	li	s1,0
    4a34:	01479793          	sll	a5,a5,0x14
    4a38:	01f41413          	sll	s0,s0,0x1f
    4a3c:	00e7e7b3          	or	a5,a5,a4
    4a40:	00c12083          	lw	ra,12(sp)
    4a44:	0087e7b3          	or	a5,a5,s0
    4a48:	00812403          	lw	s0,8(sp)
    4a4c:	00048513          	mv	a0,s1
    4a50:	00078593          	mv	a1,a5
    4a54:	00412483          	lw	s1,4(sp)
    4a58:	01010113          	add	sp,sp,16
    4a5c:	00008067          	ret
    4a60:	ff550513          	add	a0,a0,-11
    4a64:	00a49733          	sll	a4,s1,a0
    4a68:	00c71713          	sll	a4,a4,0xc
    4a6c:	00c75713          	srl	a4,a4,0xc
    4a70:	00000493          	li	s1,0
    4a74:	fc1ff06f          	j	4a34 <__floatsidf+0x74>

00004a78 <__mulsi3>:
    4a78:	00050613          	mv	a2,a0
    4a7c:	00000513          	li	a0,0
    4a80:	0015f693          	and	a3,a1,1
    4a84:	00068463          	beqz	a3,4a8c <__mulsi3+0x14>
    4a88:	00c50533          	add	a0,a0,a2
    4a8c:	0015d593          	srl	a1,a1,0x1
    4a90:	00161613          	sll	a2,a2,0x1
    4a94:	fe0596e3          	bnez	a1,4a80 <__mulsi3+0x8>
    4a98:	00008067          	ret

00004a9c <__divsi3>:
    4a9c:	06054063          	bltz	a0,4afc <__umodsi3+0x10>
    4aa0:	0605c663          	bltz	a1,4b0c <__umodsi3+0x20>

00004aa4 <__hidden___udivsi3>:
    4aa4:	00058613          	mv	a2,a1
    4aa8:	00050593          	mv	a1,a0
    4aac:	fff00513          	li	a0,-1
    4ab0:	02060c63          	beqz	a2,4ae8 <__hidden___udivsi3+0x44>
    4ab4:	00100693          	li	a3,1
    4ab8:	00b67a63          	bgeu	a2,a1,4acc <__hidden___udivsi3+0x28>
    4abc:	00c05863          	blez	a2,4acc <__hidden___udivsi3+0x28>
    4ac0:	00161613          	sll	a2,a2,0x1
    4ac4:	00169693          	sll	a3,a3,0x1
    4ac8:	feb66ae3          	bltu	a2,a1,4abc <__hidden___udivsi3+0x18>
    4acc:	00000513          	li	a0,0
    4ad0:	00c5e663          	bltu	a1,a2,4adc <__hidden___udivsi3+0x38>
    4ad4:	40c585b3          	sub	a1,a1,a2
    4ad8:	00d56533          	or	a0,a0,a3
    4adc:	0016d693          	srl	a3,a3,0x1
    4ae0:	00165613          	srl	a2,a2,0x1
    4ae4:	fe0696e3          	bnez	a3,4ad0 <__hidden___udivsi3+0x2c>
    4ae8:	00008067          	ret

00004aec <__umodsi3>:
    4aec:	00008293          	mv	t0,ra
    4af0:	fb5ff0ef          	jal	4aa4 <__hidden___udivsi3>
    4af4:	00058513          	mv	a0,a1
    4af8:	00028067          	jr	t0
    4afc:	40a00533          	neg	a0,a0
    4b00:	00b04863          	bgtz	a1,4b10 <__umodsi3+0x24>
    4b04:	40b005b3          	neg	a1,a1
    4b08:	f9dff06f          	j	4aa4 <__hidden___udivsi3>
    4b0c:	40b005b3          	neg	a1,a1
    4b10:	00008293          	mv	t0,ra
    4b14:	f91ff0ef          	jal	4aa4 <__hidden___udivsi3>
    4b18:	40a00533          	neg	a0,a0
    4b1c:	00028067          	jr	t0

00004b20 <__modsi3>:
    4b20:	00008293          	mv	t0,ra
    4b24:	0005ca63          	bltz	a1,4b38 <__modsi3+0x18>
    4b28:	00054c63          	bltz	a0,4b40 <__modsi3+0x20>
    4b2c:	f79ff0ef          	jal	4aa4 <__hidden___udivsi3>
    4b30:	00058513          	mv	a0,a1
    4b34:	00028067          	jr	t0
    4b38:	40b005b3          	neg	a1,a1
    4b3c:	fe0558e3          	bgez	a0,4b2c <__modsi3+0xc>
    4b40:	40a00533          	neg	a0,a0
    4b44:	f61ff0ef          	jal	4aa4 <__hidden___udivsi3>
    4b48:	40b00533          	neg	a0,a1
    4b4c:	00028067          	jr	t0

00004b50 <__clzsi2>:
    4b50:	000107b7          	lui	a5,0x10
    4b54:	02f57a63          	bgeu	a0,a5,4b88 <__clzsi2+0x38>
    4b58:	10053713          	sltiu	a4,a0,256
    4b5c:	00173713          	seqz	a4,a4
    4b60:	00371713          	sll	a4,a4,0x3
    4b64:	001007b7          	lui	a5,0x100
    4b68:	00e55533          	srl	a0,a0,a4
    4b6c:	21878793          	add	a5,a5,536 # 100218 <__clz_tab>
    4b70:	00a787b3          	add	a5,a5,a0
    4b74:	0007c503          	lbu	a0,0(a5)
    4b78:	02000693          	li	a3,32
    4b7c:	40e686b3          	sub	a3,a3,a4
    4b80:	40a68533          	sub	a0,a3,a0
    4b84:	00008067          	ret
    4b88:	010007b7          	lui	a5,0x1000
    4b8c:	02f57463          	bgeu	a0,a5,4bb4 <__clzsi2+0x64>
    4b90:	01000713          	li	a4,16
    4b94:	001007b7          	lui	a5,0x100
    4b98:	00e55533          	srl	a0,a0,a4
    4b9c:	21878793          	add	a5,a5,536 # 100218 <__clz_tab>
    4ba0:	00a787b3          	add	a5,a5,a0
    4ba4:	0007c503          	lbu	a0,0(a5)
    4ba8:	01000693          	li	a3,16
    4bac:	40a68533          	sub	a0,a3,a0
    4bb0:	00008067          	ret
    4bb4:	01800713          	li	a4,24
    4bb8:	001007b7          	lui	a5,0x100
    4bbc:	00e55533          	srl	a0,a0,a4
    4bc0:	21878793          	add	a5,a5,536 # 100218 <__clz_tab>
    4bc4:	00a787b3          	add	a5,a5,a0
    4bc8:	0007c503          	lbu	a0,0(a5)
    4bcc:	00800693          	li	a3,8
    4bd0:	40a68533          	sub	a0,a3,a0
    4bd4:	00008067          	ret

00004bd8 <__libc_init_array>:
    4bd8:	ff010113          	add	sp,sp,-16
    4bdc:	00812423          	sw	s0,8(sp)
    4be0:	01212023          	sw	s2,0(sp)
    4be4:	000fb797          	auipc	a5,0xfb
    4be8:	41c78793          	add	a5,a5,1052 # 100000 <npio2_hw>
    4bec:	000fb417          	auipc	s0,0xfb
    4bf0:	41440413          	add	s0,s0,1044 # 100000 <npio2_hw>
    4bf4:	00112623          	sw	ra,12(sp)
    4bf8:	00912223          	sw	s1,4(sp)
    4bfc:	40878933          	sub	s2,a5,s0
    4c00:	02878063          	beq	a5,s0,4c20 <__libc_init_array+0x48>
    4c04:	40295913          	sra	s2,s2,0x2
    4c08:	00000493          	li	s1,0
    4c0c:	00042783          	lw	a5,0(s0)
    4c10:	00148493          	add	s1,s1,1
    4c14:	00440413          	add	s0,s0,4
    4c18:	000780e7          	jalr	a5
    4c1c:	ff24e8e3          	bltu	s1,s2,4c0c <__libc_init_array+0x34>
    4c20:	000fb797          	auipc	a5,0xfb
    4c24:	3e078793          	add	a5,a5,992 # 100000 <npio2_hw>
    4c28:	000fb417          	auipc	s0,0xfb
    4c2c:	3d840413          	add	s0,s0,984 # 100000 <npio2_hw>
    4c30:	40878933          	sub	s2,a5,s0
    4c34:	40295913          	sra	s2,s2,0x2
    4c38:	00878e63          	beq	a5,s0,4c54 <__libc_init_array+0x7c>
    4c3c:	00000493          	li	s1,0
    4c40:	00042783          	lw	a5,0(s0)
    4c44:	00148493          	add	s1,s1,1
    4c48:	00440413          	add	s0,s0,4
    4c4c:	000780e7          	jalr	a5
    4c50:	ff24e8e3          	bltu	s1,s2,4c40 <__libc_init_array+0x68>
    4c54:	00c12083          	lw	ra,12(sp)
    4c58:	00812403          	lw	s0,8(sp)
    4c5c:	00412483          	lw	s1,4(sp)
    4c60:	00012903          	lw	s2,0(sp)
    4c64:	01010113          	add	sp,sp,16
    4c68:	00008067          	ret

00004c6c <memmove>:
    4c6c:	02a5f663          	bgeu	a1,a0,4c98 <memmove+0x2c>
    4c70:	00c58733          	add	a4,a1,a2
    4c74:	02e57263          	bgeu	a0,a4,4c98 <memmove+0x2c>
    4c78:	00c507b3          	add	a5,a0,a2
    4c7c:	04060663          	beqz	a2,4cc8 <memmove+0x5c>
    4c80:	fff74683          	lbu	a3,-1(a4) # 7ffff <IMEM_SIZE+0x6bfff>
    4c84:	fff78793          	add	a5,a5,-1
    4c88:	fff70713          	add	a4,a4,-1
    4c8c:	00d78023          	sb	a3,0(a5)
    4c90:	fef518e3          	bne	a0,a5,4c80 <memmove+0x14>
    4c94:	00008067          	ret
    4c98:	00f00793          	li	a5,15
    4c9c:	02c7e863          	bltu	a5,a2,4ccc <memmove+0x60>
    4ca0:	00050793          	mv	a5,a0
    4ca4:	fff60693          	add	a3,a2,-1
    4ca8:	0c060263          	beqz	a2,4d6c <memmove+0x100>
    4cac:	00168693          	add	a3,a3,1
    4cb0:	00d786b3          	add	a3,a5,a3
    4cb4:	0005c703          	lbu	a4,0(a1) # 80000000 <MTSSV_BASE+0x7fef8008>
    4cb8:	00178793          	add	a5,a5,1
    4cbc:	00158593          	add	a1,a1,1
    4cc0:	fee78fa3          	sb	a4,-1(a5)
    4cc4:	fed798e3          	bne	a5,a3,4cb4 <memmove+0x48>
    4cc8:	00008067          	ret
    4ccc:	00b567b3          	or	a5,a0,a1
    4cd0:	0037f793          	and	a5,a5,3
    4cd4:	08079663          	bnez	a5,4d60 <memmove+0xf4>
    4cd8:	ff060893          	add	a7,a2,-16
    4cdc:	ff08f893          	and	a7,a7,-16
    4ce0:	01088893          	add	a7,a7,16
    4ce4:	011506b3          	add	a3,a0,a7
    4ce8:	00058713          	mv	a4,a1
    4cec:	00050793          	mv	a5,a0
    4cf0:	00072803          	lw	a6,0(a4)
    4cf4:	01070713          	add	a4,a4,16
    4cf8:	01078793          	add	a5,a5,16
    4cfc:	ff07a823          	sw	a6,-16(a5)
    4d00:	ff472803          	lw	a6,-12(a4)
    4d04:	ff07aa23          	sw	a6,-12(a5)
    4d08:	ff872803          	lw	a6,-8(a4)
    4d0c:	ff07ac23          	sw	a6,-8(a5)
    4d10:	ffc72803          	lw	a6,-4(a4)
    4d14:	ff07ae23          	sw	a6,-4(a5)
    4d18:	fcd79ce3          	bne	a5,a3,4cf0 <memmove+0x84>
    4d1c:	00c67813          	and	a6,a2,12
    4d20:	011585b3          	add	a1,a1,a7
    4d24:	00f67713          	and	a4,a2,15
    4d28:	04080463          	beqz	a6,4d70 <memmove+0x104>
    4d2c:	ffc70813          	add	a6,a4,-4
    4d30:	ffc87813          	and	a6,a6,-4
    4d34:	00480813          	add	a6,a6,4
    4d38:	010687b3          	add	a5,a3,a6
    4d3c:	00058713          	mv	a4,a1
    4d40:	00072883          	lw	a7,0(a4)
    4d44:	00468693          	add	a3,a3,4
    4d48:	00470713          	add	a4,a4,4
    4d4c:	ff16ae23          	sw	a7,-4(a3)
    4d50:	fef698e3          	bne	a3,a5,4d40 <memmove+0xd4>
    4d54:	00367613          	and	a2,a2,3
    4d58:	010585b3          	add	a1,a1,a6
    4d5c:	f49ff06f          	j	4ca4 <memmove+0x38>
    4d60:	fff60693          	add	a3,a2,-1
    4d64:	00050793          	mv	a5,a0
    4d68:	f45ff06f          	j	4cac <memmove+0x40>
    4d6c:	00008067          	ret
    4d70:	00070613          	mv	a2,a4
    4d74:	f31ff06f          	j	4ca4 <memmove+0x38>

00004d78 <memset>:
    4d78:	00f00313          	li	t1,15
    4d7c:	00050713          	mv	a4,a0
    4d80:	02c37e63          	bgeu	t1,a2,4dbc <memset+0x44>
    4d84:	00f77793          	and	a5,a4,15
    4d88:	0a079063          	bnez	a5,4e28 <memset+0xb0>
    4d8c:	08059263          	bnez	a1,4e10 <memset+0x98>
    4d90:	ff067693          	and	a3,a2,-16
    4d94:	00f67613          	and	a2,a2,15
    4d98:	00e686b3          	add	a3,a3,a4
    4d9c:	00b72023          	sw	a1,0(a4)
    4da0:	00b72223          	sw	a1,4(a4)
    4da4:	00b72423          	sw	a1,8(a4)
    4da8:	00b72623          	sw	a1,12(a4)
    4dac:	01070713          	add	a4,a4,16
    4db0:	fed766e3          	bltu	a4,a3,4d9c <memset+0x24>
    4db4:	00061463          	bnez	a2,4dbc <memset+0x44>
    4db8:	00008067          	ret
    4dbc:	40c306b3          	sub	a3,t1,a2
    4dc0:	00269693          	sll	a3,a3,0x2
    4dc4:	00000297          	auipc	t0,0x0
    4dc8:	005686b3          	add	a3,a3,t0
    4dcc:	00c68067          	jr	12(a3)
    4dd0:	00b70723          	sb	a1,14(a4)
    4dd4:	00b706a3          	sb	a1,13(a4)
    4dd8:	00b70623          	sb	a1,12(a4)
    4ddc:	00b705a3          	sb	a1,11(a4)
    4de0:	00b70523          	sb	a1,10(a4)
    4de4:	00b704a3          	sb	a1,9(a4)
    4de8:	00b70423          	sb	a1,8(a4)
    4dec:	00b703a3          	sb	a1,7(a4)
    4df0:	00b70323          	sb	a1,6(a4)
    4df4:	00b702a3          	sb	a1,5(a4)
    4df8:	00b70223          	sb	a1,4(a4)
    4dfc:	00b701a3          	sb	a1,3(a4)
    4e00:	00b70123          	sb	a1,2(a4)
    4e04:	00b700a3          	sb	a1,1(a4)
    4e08:	00b70023          	sb	a1,0(a4)
    4e0c:	00008067          	ret
    4e10:	0ff5f593          	zext.b	a1,a1
    4e14:	00859693          	sll	a3,a1,0x8
    4e18:	00d5e5b3          	or	a1,a1,a3
    4e1c:	01059693          	sll	a3,a1,0x10
    4e20:	00d5e5b3          	or	a1,a1,a3
    4e24:	f6dff06f          	j	4d90 <memset+0x18>
    4e28:	00279693          	sll	a3,a5,0x2
    4e2c:	00000297          	auipc	t0,0x0
    4e30:	005686b3          	add	a3,a3,t0
    4e34:	00008293          	mv	t0,ra
    4e38:	fa0680e7          	jalr	-96(a3)
    4e3c:	00028093          	mv	ra,t0
    4e40:	ff078793          	add	a5,a5,-16
    4e44:	40f70733          	sub	a4,a4,a5
    4e48:	00f60633          	add	a2,a2,a5
    4e4c:	f6c378e3          	bgeu	t1,a2,4dbc <memset+0x44>
    4e50:	f3dff06f          	j	4d8c <memset+0x14>

00004e54 <memcpy>:
    4e54:	00a5c7b3          	xor	a5,a1,a0
    4e58:	0037f793          	and	a5,a5,3
    4e5c:	00c508b3          	add	a7,a0,a2
    4e60:	06079463          	bnez	a5,4ec8 <memcpy+0x74>
    4e64:	00300793          	li	a5,3
    4e68:	06c7f063          	bgeu	a5,a2,4ec8 <memcpy+0x74>
    4e6c:	00357793          	and	a5,a0,3
    4e70:	00050713          	mv	a4,a0
    4e74:	06079a63          	bnez	a5,4ee8 <memcpy+0x94>
    4e78:	ffc8f613          	and	a2,a7,-4
    4e7c:	40e606b3          	sub	a3,a2,a4
    4e80:	02000793          	li	a5,32
    4e84:	08d7ce63          	blt	a5,a3,4f20 <memcpy+0xcc>
    4e88:	00058693          	mv	a3,a1
    4e8c:	00070793          	mv	a5,a4
    4e90:	02c77863          	bgeu	a4,a2,4ec0 <memcpy+0x6c>
    4e94:	0006a803          	lw	a6,0(a3)
    4e98:	00478793          	add	a5,a5,4
    4e9c:	00468693          	add	a3,a3,4
    4ea0:	ff07ae23          	sw	a6,-4(a5)
    4ea4:	fec7e8e3          	bltu	a5,a2,4e94 <memcpy+0x40>
    4ea8:	fff60793          	add	a5,a2,-1
    4eac:	40e787b3          	sub	a5,a5,a4
    4eb0:	ffc7f793          	and	a5,a5,-4
    4eb4:	00478793          	add	a5,a5,4
    4eb8:	00f70733          	add	a4,a4,a5
    4ebc:	00f585b3          	add	a1,a1,a5
    4ec0:	01176863          	bltu	a4,a7,4ed0 <memcpy+0x7c>
    4ec4:	00008067          	ret
    4ec8:	00050713          	mv	a4,a0
    4ecc:	05157863          	bgeu	a0,a7,4f1c <memcpy+0xc8>
    4ed0:	0005c783          	lbu	a5,0(a1)
    4ed4:	00170713          	add	a4,a4,1
    4ed8:	00158593          	add	a1,a1,1
    4edc:	fef70fa3          	sb	a5,-1(a4)
    4ee0:	fee898e3          	bne	a7,a4,4ed0 <memcpy+0x7c>
    4ee4:	00008067          	ret
    4ee8:	0005c683          	lbu	a3,0(a1)
    4eec:	00170713          	add	a4,a4,1
    4ef0:	00377793          	and	a5,a4,3
    4ef4:	fed70fa3          	sb	a3,-1(a4)
    4ef8:	00158593          	add	a1,a1,1
    4efc:	f6078ee3          	beqz	a5,4e78 <memcpy+0x24>
    4f00:	0005c683          	lbu	a3,0(a1)
    4f04:	00170713          	add	a4,a4,1
    4f08:	00377793          	and	a5,a4,3
    4f0c:	fed70fa3          	sb	a3,-1(a4)
    4f10:	00158593          	add	a1,a1,1
    4f14:	fc079ae3          	bnez	a5,4ee8 <memcpy+0x94>
    4f18:	f61ff06f          	j	4e78 <memcpy+0x24>
    4f1c:	00008067          	ret
    4f20:	ff010113          	add	sp,sp,-16
    4f24:	00812623          	sw	s0,12(sp)
    4f28:	02000413          	li	s0,32
    4f2c:	0005a383          	lw	t2,0(a1)
    4f30:	0045a283          	lw	t0,4(a1)
    4f34:	0085af83          	lw	t6,8(a1)
    4f38:	00c5af03          	lw	t5,12(a1)
    4f3c:	0105ae83          	lw	t4,16(a1)
    4f40:	0145ae03          	lw	t3,20(a1)
    4f44:	0185a303          	lw	t1,24(a1)
    4f48:	01c5a803          	lw	a6,28(a1)
    4f4c:	0205a683          	lw	a3,32(a1)
    4f50:	02470713          	add	a4,a4,36
    4f54:	40e607b3          	sub	a5,a2,a4
    4f58:	fc772e23          	sw	t2,-36(a4)
    4f5c:	fe572023          	sw	t0,-32(a4)
    4f60:	fff72223          	sw	t6,-28(a4)
    4f64:	ffe72423          	sw	t5,-24(a4)
    4f68:	ffd72623          	sw	t4,-20(a4)
    4f6c:	ffc72823          	sw	t3,-16(a4)
    4f70:	fe672a23          	sw	t1,-12(a4)
    4f74:	ff072c23          	sw	a6,-8(a4)
    4f78:	fed72e23          	sw	a3,-4(a4)
    4f7c:	02458593          	add	a1,a1,36
    4f80:	faf446e3          	blt	s0,a5,4f2c <memcpy+0xd8>
    4f84:	00058693          	mv	a3,a1
    4f88:	00070793          	mv	a5,a4
    4f8c:	02c77863          	bgeu	a4,a2,4fbc <memcpy+0x168>
    4f90:	0006a803          	lw	a6,0(a3)
    4f94:	00478793          	add	a5,a5,4
    4f98:	00468693          	add	a3,a3,4
    4f9c:	ff07ae23          	sw	a6,-4(a5)
    4fa0:	fec7e8e3          	bltu	a5,a2,4f90 <memcpy+0x13c>
    4fa4:	fff60793          	add	a5,a2,-1
    4fa8:	40e787b3          	sub	a5,a5,a4
    4fac:	ffc7f793          	and	a5,a5,-4
    4fb0:	00478793          	add	a5,a5,4
    4fb4:	00f70733          	add	a4,a4,a5
    4fb8:	00f585b3          	add	a1,a1,a5
    4fbc:	01176863          	bltu	a4,a7,4fcc <memcpy+0x178>
    4fc0:	00c12403          	lw	s0,12(sp)
    4fc4:	01010113          	add	sp,sp,16
    4fc8:	00008067          	ret
    4fcc:	0005c783          	lbu	a5,0(a1)
    4fd0:	00170713          	add	a4,a4,1
    4fd4:	00158593          	add	a1,a1,1
    4fd8:	fef70fa3          	sb	a5,-1(a4)
    4fdc:	fee882e3          	beq	a7,a4,4fc0 <memcpy+0x16c>
    4fe0:	0005c783          	lbu	a5,0(a1)
    4fe4:	00170713          	add	a4,a4,1
    4fe8:	00158593          	add	a1,a1,1
    4fec:	fef70fa3          	sb	a5,-1(a4)
    4ff0:	fce89ee3          	bne	a7,a4,4fcc <memcpy+0x178>
    4ff4:	fcdff06f          	j	4fc0 <memcpy+0x16c>

00004ff8 <__CTOR_LIST__>:
	...

00005000 <__CTOR_END__>:
	...

Disassembly of section .text.fft_inplace_q15:

00005008 <fft_inplace_q15>:
    5008:	38b05263          	blez	a1,538c <fft_inplace_q15+0x384>
    500c:	fb010113          	add	sp,sp,-80
    5010:	001036b7          	lui	a3,0x103
    5014:	04812423          	sw	s0,72(sp)
    5018:	03a12023          	sw	s10,32(sp)
    501c:	04112623          	sw	ra,76(sp)
    5020:	00050d13          	mv	s10,a0
    5024:	00060793          	mv	a5,a2
    5028:	a6468693          	add	a3,a3,-1436 # 102a64 <bit_rev_table>
    502c:	00050713          	mv	a4,a0
    5030:	00000413          	li	s0,0
    5034:	0006c503          	lbu	a0,0(a3)
    5038:	00168693          	add	a3,a3,1
    503c:	00351613          	sll	a2,a0,0x3
    5040:	00cd0633          	add	a2,s10,a2
    5044:	02a45263          	bge	s0,a0,5068 <fft_inplace_q15+0x60>
    5048:	00062883          	lw	a7,0(a2)
    504c:	00072803          	lw	a6,0(a4)
    5050:	00472503          	lw	a0,4(a4)
    5054:	01172023          	sw	a7,0(a4)
    5058:	00462883          	lw	a7,4(a2)
    505c:	01172223          	sw	a7,4(a4)
    5060:	01062023          	sw	a6,0(a2)
    5064:	00a62223          	sw	a0,4(a2)
    5068:	00140413          	add	s0,s0,1
    506c:	00870713          	add	a4,a4,8
    5070:	fc8592e3          	bne	a1,s0,5034 <fft_inplace_q15+0x2c>
    5074:	00100713          	li	a4,1
    5078:	1ae40463          	beq	s0,a4,5220 <fft_inplace_q15+0x218>
    507c:	04912223          	sw	s1,68(sp)
    5080:	05212023          	sw	s2,64(sp)
    5084:	03312e23          	sw	s3,60(sp)
    5088:	03412c23          	sw	s4,56(sp)
    508c:	03512a23          	sw	s5,52(sp)
    5090:	03612823          	sw	s6,48(sp)
    5094:	03712623          	sw	s7,44(sp)
    5098:	03812423          	sw	s8,40(sp)
    509c:	03912223          	sw	s9,36(sp)
    50a0:	01b12e23          	sw	s11,28(sp)
    50a4:	18079863          	bnez	a5,5234 <fft_inplace_q15+0x22c>
    50a8:	001037b7          	lui	a5,0x103
    50ac:	00200a13          	li	s4,2
    50b0:	b6478c13          	add	s8,a5,-1180 # 102b64 <W>
    50b4:	000049b7          	lui	s3,0x4
    50b8:	00812423          	sw	s0,8(sp)
    50bc:	000d0a93          	mv	s5,s10
    50c0:	401a5493          	sra	s1,s4,0x1
    50c4:	000a0593          	mv	a1,s4
    50c8:	10000513          	li	a0,256
    50cc:	9d1ff0ef          	jal	4a9c <__divsi3>
    50d0:	10905e63          	blez	s1,51ec <fft_inplace_q15+0x1e4>
    50d4:	00349593          	sll	a1,s1,0x3
    50d8:	003a1913          	sll	s2,s4,0x3
    50dc:	00ba8cb3          	add	s9,s5,a1
    50e0:	00351d13          	sll	s10,a0,0x3
    50e4:	00000493          	li	s1,0
    50e8:	00b12623          	sw	a1,12(sp)
    50ec:	00c12783          	lw	a5,12(sp)
    50f0:	000c0b13          	mv	s6,s8
    50f4:	000c8293          	mv	t0,s9
    50f8:	40fc8833          	sub	a6,s9,a5
    50fc:	000b2383          	lw	t2,0(s6)
    5100:	004b2403          	lw	s0,4(s6)
    5104:	0002af03          	lw	t5,0(t0) # 4e2c <memset+0xb4>
    5108:	0042ae83          	lw	t4,4(t0)
    510c:	00082303          	lw	t1,0(a6)
    5110:	03e38533          	mul	a0,t2,t5
    5114:	00482883          	lw	a7,4(a6)
    5118:	00880813          	add	a6,a6,8
    511c:	00828293          	add	t0,t0,8
    5120:	01ab0b33          	add	s6,s6,s10
    5124:	03d405b3          	mul	a1,s0,t4
    5128:	01350733          	add	a4,a0,s3
    512c:	00a73533          	sltu	a0,a4,a0
    5130:	00f75713          	srl	a4,a4,0xf
    5134:	03e40633          	mul	a2,s0,t5
    5138:	01358fb3          	add	t6,a1,s3
    513c:	00bfb5b3          	sltu	a1,t6,a1
    5140:	00ffdf93          	srl	t6,t6,0xf
    5144:	027e86b3          	mul	a3,t4,t2
    5148:	01360e33          	add	t3,a2,s3
    514c:	00ce3633          	sltu	a2,t3,a2
    5150:	00fe5e13          	srl	t3,t3,0xf
    5154:	03e39db3          	mulh	s11,t2,t5
    5158:	013687b3          	add	a5,a3,s3
    515c:	00d7b6b3          	sltu	a3,a5,a3
    5160:	00f7d793          	srl	a5,a5,0xf
    5164:	03d41bb3          	mulh	s7,s0,t4
    5168:	01b50533          	add	a0,a0,s11
    516c:	01151513          	sll	a0,a0,0x11
    5170:	00e56733          	or	a4,a0,a4
    5174:	03e41f33          	mulh	t5,s0,t5
    5178:	017585b3          	add	a1,a1,s7
    517c:	01159593          	sll	a1,a1,0x11
    5180:	01f5efb3          	or	t6,a1,t6
    5184:	41f70733          	sub	a4,a4,t6
    5188:	006705b3          	add	a1,a4,t1
    518c:	40e30333          	sub	t1,t1,a4
    5190:	4015d593          	sra	a1,a1,0x1
    5194:	feb82c23          	sw	a1,-8(a6)
    5198:	40135313          	sra	t1,t1,0x1
    519c:	027e9eb3          	mulh	t4,t4,t2
    51a0:	01e60633          	add	a2,a2,t5
    51a4:	01161613          	sll	a2,a2,0x11
    51a8:	01c66e33          	or	t3,a2,t3
    51ac:	01d686b3          	add	a3,a3,t4
    51b0:	01169693          	sll	a3,a3,0x11
    51b4:	00f6e7b3          	or	a5,a3,a5
    51b8:	01c787b3          	add	a5,a5,t3
    51bc:	01178733          	add	a4,a5,a7
    51c0:	40175713          	sra	a4,a4,0x1
    51c4:	40f888b3          	sub	a7,a7,a5
    51c8:	fee82e23          	sw	a4,-4(a6)
    51cc:	4018d893          	sra	a7,a7,0x1
    51d0:	fe62ac23          	sw	t1,-8(t0)
    51d4:	ff12ae23          	sw	a7,-4(t0)
    51d8:	f30c92e3          	bne	s9,a6,50fc <fft_inplace_q15+0xf4>
    51dc:	00812783          	lw	a5,8(sp)
    51e0:	014484b3          	add	s1,s1,s4
    51e4:	012c8cb3          	add	s9,s9,s2
    51e8:	f0f4c2e3          	blt	s1,a5,50ec <fft_inplace_q15+0xe4>
    51ec:	00812783          	lw	a5,8(sp)
    51f0:	001a1a13          	sll	s4,s4,0x1
    51f4:	ed47d6e3          	bge	a5,s4,50c0 <fft_inplace_q15+0xb8>
    51f8:	04412483          	lw	s1,68(sp)
    51fc:	04012903          	lw	s2,64(sp)
    5200:	03c12983          	lw	s3,60(sp)
    5204:	03812a03          	lw	s4,56(sp)
    5208:	03412a83          	lw	s5,52(sp)
    520c:	03012b03          	lw	s6,48(sp)
    5210:	02c12b83          	lw	s7,44(sp)
    5214:	02812c03          	lw	s8,40(sp)
    5218:	02412c83          	lw	s9,36(sp)
    521c:	01c12d83          	lw	s11,28(sp)
    5220:	04c12083          	lw	ra,76(sp)
    5224:	04812403          	lw	s0,72(sp)
    5228:	02012d03          	lw	s10,32(sp)
    522c:	05010113          	add	sp,sp,80
    5230:	00008067          	ret
    5234:	001037b7          	lui	a5,0x103
    5238:	00200913          	li	s2,2
    523c:	b6478c93          	add	s9,a5,-1180 # 102b64 <W>
    5240:	00004a37          	lui	s4,0x4
    5244:	000d0a93          	mv	s5,s10
    5248:	40195493          	sra	s1,s2,0x1
    524c:	00090593          	mv	a1,s2
    5250:	10000513          	li	a0,256
    5254:	849ff0ef          	jal	4a9c <__divsi3>
    5258:	12905463          	blez	s1,5380 <fft_inplace_q15+0x378>
    525c:	00349593          	sll	a1,s1,0x3
    5260:	00391993          	sll	s3,s2,0x3
    5264:	00ba8c33          	add	s8,s5,a1
    5268:	00351d13          	sll	s10,a0,0x3
    526c:	00000493          	li	s1,0
    5270:	01212623          	sw	s2,12(sp)
    5274:	000c8b13          	mv	s6,s9
    5278:	40bc0333          	sub	t1,s8,a1
    527c:	000c0393          	mv	t2,s8
    5280:	00912423          	sw	s1,8(sp)
    5284:	004b2503          	lw	a0,4(s6)
    5288:	000b2f83          	lw	t6,0(s6)
    528c:	0003a903          	lw	s2,0(t2)
    5290:	0043a483          	lw	s1,4(t2)
    5294:	40a00533          	neg	a0,a0
    5298:	03f908b3          	mul	a7,s2,t6
    529c:	00032e83          	lw	t4,0(t1)
    52a0:	00432e03          	lw	t3,4(t1)
    52a4:	00830313          	add	t1,t1,8
    52a8:	00838393          	add	t2,t2,8
    52ac:	01ab0b33          	add	s6,s6,s10
    52b0:	02a48833          	mul	a6,s1,a0
    52b4:	01488733          	add	a4,a7,s4
    52b8:	011738b3          	sltu	a7,a4,a7
    52bc:	00f75713          	srl	a4,a4,0xf
    52c0:	02a90633          	mul	a2,s2,a0
    52c4:	014802b3          	add	t0,a6,s4
    52c8:	0102b833          	sltu	a6,t0,a6
    52cc:	00f2d293          	srl	t0,t0,0xf
    52d0:	029f86b3          	mul	a3,t6,s1
    52d4:	014607b3          	add	a5,a2,s4
    52d8:	00c7b633          	sltu	a2,a5,a2
    52dc:	00f7d793          	srl	a5,a5,0xf
    52e0:	03f91db3          	mulh	s11,s2,t6
    52e4:	01468f33          	add	t5,a3,s4
    52e8:	00df36b3          	sltu	a3,t5,a3
    52ec:	00ff5f13          	srl	t5,t5,0xf
    52f0:	02a49bb3          	mulh	s7,s1,a0
    52f4:	01b888b3          	add	a7,a7,s11
    52f8:	01189893          	sll	a7,a7,0x11
    52fc:	00e8e733          	or	a4,a7,a4
    5300:	02a91533          	mulh	a0,s2,a0
    5304:	01780833          	add	a6,a6,s7
    5308:	01181813          	sll	a6,a6,0x11
    530c:	005862b3          	or	t0,a6,t0
    5310:	40570733          	sub	a4,a4,t0
    5314:	01d70833          	add	a6,a4,t4
    5318:	40ee8eb3          	sub	t4,t4,a4
    531c:	40185813          	sra	a6,a6,0x1
    5320:	ff032c23          	sw	a6,-8(t1)
    5324:	401ede93          	sra	t4,t4,0x1
    5328:	029f9fb3          	mulh	t6,t6,s1
    532c:	00a60633          	add	a2,a2,a0
    5330:	01161613          	sll	a2,a2,0x11
    5334:	00f667b3          	or	a5,a2,a5
    5338:	01f686b3          	add	a3,a3,t6
    533c:	01169693          	sll	a3,a3,0x11
    5340:	01e6ef33          	or	t5,a3,t5
    5344:	01e787b3          	add	a5,a5,t5
    5348:	01c78733          	add	a4,a5,t3
    534c:	40175713          	sra	a4,a4,0x1
    5350:	40fe0e33          	sub	t3,t3,a5
    5354:	fee32e23          	sw	a4,-4(t1)
    5358:	401e5e13          	sra	t3,t3,0x1
    535c:	ffd3ac23          	sw	t4,-8(t2)
    5360:	ffc3ae23          	sw	t3,-4(t2)
    5364:	f38310e3          	bne	t1,s8,5284 <fft_inplace_q15+0x27c>
    5368:	00812483          	lw	s1,8(sp)
    536c:	00c12783          	lw	a5,12(sp)
    5370:	013c0c33          	add	s8,s8,s3
    5374:	00f484b3          	add	s1,s1,a5
    5378:	ee84cee3          	blt	s1,s0,5274 <fft_inplace_q15+0x26c>
    537c:	00078913          	mv	s2,a5
    5380:	00191913          	sll	s2,s2,0x1
    5384:	ed2452e3          	bge	s0,s2,5248 <fft_inplace_q15+0x240>
    5388:	e71ff06f          	j	51f8 <fft_inplace_q15+0x1f0>
    538c:	00008067          	ret

Disassembly of section .text.startup.main:

00005390 <main>:
    5390:	00100537          	lui	a0,0x100
    5394:	f7010113          	add	sp,sp,-144
    5398:	31850513          	add	a0,a0,792 # 100318 <__clz_tab+0x100>
    539c:	08112623          	sw	ra,140(sp)
    53a0:	08812423          	sw	s0,136(sp)
    53a4:	08912223          	sw	s1,132(sp)
    53a8:	09212023          	sw	s2,128(sp)
    53ac:	07312e23          	sw	s3,124(sp)
    53b0:	07412c23          	sw	s4,120(sp)
    53b4:	07512a23          	sw	s5,116(sp)
    53b8:	07612823          	sw	s6,112(sp)
    53bc:	07712623          	sw	s7,108(sp)
    53c0:	07812423          	sw	s8,104(sp)
    53c4:	07912223          	sw	s9,100(sp)
    53c8:	07a12023          	sw	s10,96(sp)
    53cc:	05b12e23          	sw	s11,92(sp)
    53d0:	168020ef          	jal	7538 <bm_printf>
    53d4:	00100537          	lui	a0,0x100
    53d8:	33c50513          	add	a0,a0,828 # 10033c <__clz_tab+0x124>
    53dc:	2e1000ef          	jal	5ebc <bm_fopen_r>
    53e0:	00050413          	mv	s0,a0
    53e4:	00100537          	lui	a0,0x100
    53e8:	34c50513          	add	a0,a0,844 # 10034c <__clz_tab+0x134>
    53ec:	2d1000ef          	jal	5ebc <bm_fopen_r>
    53f0:	00050493          	mv	s1,a0
    53f4:	00100537          	lui	a0,0x100
    53f8:	36050513          	add	a0,a0,864 # 100360 <__clz_tab+0x148>
    53fc:	2ed000ef          	jal	5ee8 <bm_fopen_w>
    5400:	00050793          	mv	a5,a0
    5404:	00100537          	lui	a0,0x100
    5408:	37450513          	add	a0,a0,884 # 100374 <__clz_tab+0x15c>
    540c:	02f12423          	sw	a5,40(sp)
    5410:	02012e23          	sw	zero,60(sp)
    5414:	04012023          	sw	zero,64(sp)
    5418:	04012223          	sw	zero,68(sp)
    541c:	04012423          	sw	zero,72(sp)
    5420:	04012623          	sw	zero,76(sp)
    5424:	114020ef          	jal	7538 <bm_printf>
    5428:	03c10613          	add	a2,sp,60
    542c:	01400593          	li	a1,20
    5430:	00048513          	mv	a0,s1
    5434:	2e1000ef          	jal	5f14 <bm_start_soc_load_hex_file>
    5438:	2f5000ef          	jal	5f2c <bm_check_soc_load_hex_file>
    543c:	fe050ee3          	beqz	a0,5438 <main+0xa8>
    5440:	03c12983          	lw	s3,60(sp)
    5444:	04412b03          	lw	s6,68(sp)
    5448:	04c12b83          	lw	s7,76(sp)
    544c:	00100537          	lui	a0,0x100
    5450:	39450513          	add	a0,a0,916 # 100394 <__clz_tab+0x17c>
    5454:	04812903          	lw	s2,72(sp)
    5458:	04012483          	lw	s1,64(sp)
    545c:	01312e23          	sw	s3,28(sp)
    5460:	03712023          	sw	s7,32(sp)
    5464:	00100ab7          	lui	s5,0x100
    5468:	03612223          	sw	s6,36(sp)
    546c:	0cc020ef          	jal	7538 <bm_printf>
    5470:	00098593          	mv	a1,s3
    5474:	3b0a8513          	add	a0,s5,944 # 1003b0 <__clz_tab+0x198>
    5478:	0c0020ef          	jal	7538 <bm_printf>
    547c:	00100a37          	lui	s4,0x100
    5480:	00048593          	mv	a1,s1
    5484:	3c4a0513          	add	a0,s4,964 # 1003c4 <__clz_tab+0x1ac>
    5488:	0b0020ef          	jal	7538 <bm_printf>
    548c:	001004b7          	lui	s1,0x100
    5490:	000b0593          	mv	a1,s6
    5494:	3d848513          	add	a0,s1,984 # 1003d8 <__clz_tab+0x1c0>
    5498:	0a0020ef          	jal	7538 <bm_printf>
    549c:	00100537          	lui	a0,0x100
    54a0:	00090593          	mv	a1,s2
    54a4:	3ec50513          	add	a0,a0,1004 # 1003ec <__clz_tab+0x1d4>
    54a8:	090020ef          	jal	7538 <bm_printf>
    54ac:	00100537          	lui	a0,0x100
    54b0:	000b8593          	mv	a1,s7
    54b4:	3fc50513          	add	a0,a0,1020 # 1003fc <__clz_tab+0x1e4>
    54b8:	080020ef          	jal	7538 <bm_printf>
    54bc:	00098c13          	mv	s8,s3
    54c0:	00100537          	lui	a0,0x100
    54c4:	00191993          	sll	s3,s2,0x1
    54c8:	00098593          	mv	a1,s3
    54cc:	40c50513          	add	a0,a0,1036 # 10040c <__clz_tab+0x1f4>
    54d0:	068020ef          	jal	7538 <bm_printf>
    54d4:	00100537          	lui	a0,0x100
    54d8:	44850513          	add	a0,a0,1096 # 100448 <__clz_tab+0x230>
    54dc:	05c020ef          	jal	7538 <bm_printf>
    54e0:	000c0b93          	mv	s7,s8
    54e4:	000b8593          	mv	a1,s7
    54e8:	3b0a8513          	add	a0,s5,944
    54ec:	04c020ef          	jal	7538 <bm_printf>
    54f0:	012c0c33          	add	s8,s8,s2
    54f4:	000c0593          	mv	a1,s8
    54f8:	3c4a0513          	add	a0,s4,964
    54fc:	03c020ef          	jal	7538 <bm_printf>
    5500:	000b0593          	mv	a1,s6
    5504:	3d848513          	add	a0,s1,984
    5508:	030020ef          	jal	7538 <bm_printf>
    550c:	001004b7          	lui	s1,0x100
    5510:	58448513          	add	a0,s1,1412 # 100584 <__clz_tab+0x36c>
    5514:	024020ef          	jal	7538 <bm_printf>
    5518:	000b8613          	mv	a2,s7
    551c:	00098593          	mv	a1,s3
    5520:	00040513          	mv	a0,s0
    5524:	1f1000ef          	jal	5f14 <bm_start_soc_load_hex_file>
    5528:	205000ef          	jal	5f2c <bm_check_soc_load_hex_file>
    552c:	fe050ee3          	beqz	a0,5528 <main+0x198>
    5530:	0330000f          	fence	rw,rw
    5534:	012056e3          	blez	s2,5d40 <main+0x9b0>
    5538:	01c12703          	lw	a4,28(sp)
    553c:	00000413          	li	s0,0
    5540:	00000993          	li	s3,0
    5544:	00070793          	mv	a5,a4
    5548:	40ec0633          	sub	a2,s8,a4
    554c:	00f60733          	add	a4,a2,a5
    5550:	0007c683          	lbu	a3,0(a5)
    5554:	00074703          	lbu	a4,0(a4)
    5558:	00178793          	add	a5,a5,1
    555c:	01869693          	sll	a3,a3,0x18
    5560:	01871713          	sll	a4,a4,0x18
    5564:	4186d693          	sra	a3,a3,0x18
    5568:	41875713          	sra	a4,a4,0x18
    556c:	00d989b3          	add	s3,s3,a3
    5570:	00e40433          	add	s0,s0,a4
    5574:	fcfc1ce3          	bne	s8,a5,554c <main+0x1bc>
    5578:	00100537          	lui	a0,0x100
    557c:	46050513          	add	a0,a0,1120 # 100460 <__clz_tab+0x248>
    5580:	7b9010ef          	jal	7538 <bm_printf>
    5584:	00100537          	lui	a0,0x100
    5588:	00098593          	mv	a1,s3
    558c:	48850513          	add	a0,a0,1160 # 100488 <__clz_tab+0x270>
    5590:	7a9010ef          	jal	7538 <bm_printf>
    5594:	00100537          	lui	a0,0x100
    5598:	00040593          	mv	a1,s0
    559c:	49450513          	add	a0,a0,1172 # 100494 <__clz_tab+0x27c>
    55a0:	799010ef          	jal	7538 <bm_printf>
    55a4:	00100537          	lui	a0,0x100
    55a8:	4a050513          	add	a0,a0,1184 # 1004a0 <__clz_tab+0x288>
    55ac:	78d010ef          	jal	7538 <bm_printf>
    55b0:	00000413          	li	s0,0
    55b4:	001009b7          	lui	s3,0x100
    55b8:	01000a13          	li	s4,16
    55bc:	0080006f          	j	55c4 <main+0x234>
    55c0:	71240063          	beq	s0,s2,5cc0 <main+0x930>
    55c4:	01c12783          	lw	a5,28(sp)
    55c8:	00040593          	mv	a1,s0
    55cc:	4bc98513          	add	a0,s3,1212 # 1004bc <__clz_tab+0x2a4>
    55d0:	00f40733          	add	a4,s0,a5
    55d4:	008c07b3          	add	a5,s8,s0
    55d8:	00074603          	lbu	a2,0(a4)
    55dc:	0007c683          	lbu	a3,0(a5)
    55e0:	00140413          	add	s0,s0,1
    55e4:	01861613          	sll	a2,a2,0x18
    55e8:	01869693          	sll	a3,a3,0x18
    55ec:	41865613          	sra	a2,a2,0x18
    55f0:	4186d693          	sra	a3,a3,0x18
    55f4:	745010ef          	jal	7538 <bm_printf>
    55f8:	fd4414e3          	bne	s0,s4,55c0 <main+0x230>
    55fc:	00100537          	lui	a0,0x100
    5600:	4d450513          	add	a0,a0,1236 # 1004d4 <__clz_tab+0x2bc>
    5604:	735010ef          	jal	7538 <bm_printf>
    5608:	04000793          	li	a5,64
    560c:	6d27d063          	bge	a5,s2,5ccc <main+0x93c>
    5610:	04000413          	li	s0,64
    5614:	04800a13          	li	s4,72
    5618:	0080006f          	j	5620 <main+0x290>
    561c:	6b240863          	beq	s0,s2,5ccc <main+0x93c>
    5620:	01c12783          	lw	a5,28(sp)
    5624:	00040593          	mv	a1,s0
    5628:	4bc98513          	add	a0,s3,1212
    562c:	00f40733          	add	a4,s0,a5
    5630:	008c07b3          	add	a5,s8,s0
    5634:	00074603          	lbu	a2,0(a4)
    5638:	0007c683          	lbu	a3,0(a5)
    563c:	00140413          	add	s0,s0,1
    5640:	01861613          	sll	a2,a2,0x18
    5644:	01869693          	sll	a3,a3,0x18
    5648:	41865613          	sra	a2,a2,0x18
    564c:	4186d693          	sra	a3,a3,0x18
    5650:	6e9010ef          	jal	7538 <bm_printf>
    5654:	fd4414e3          	bne	s0,s4,561c <main+0x28c>
    5658:	00100537          	lui	a0,0x100
    565c:	4f050513          	add	a0,a0,1264 # 1004f0 <__clz_tab+0x2d8>
    5660:	6d9010ef          	jal	7538 <bm_printf>
    5664:	08000793          	li	a5,128
    5668:	6727d863          	bge	a5,s2,5cd8 <main+0x948>
    566c:	08000413          	li	s0,128
    5670:	08800a13          	li	s4,136
    5674:	0080006f          	j	567c <main+0x2ec>
    5678:	67240063          	beq	s0,s2,5cd8 <main+0x948>
    567c:	01c12783          	lw	a5,28(sp)
    5680:	00040593          	mv	a1,s0
    5684:	4bc98513          	add	a0,s3,1212
    5688:	00f40733          	add	a4,s0,a5
    568c:	008c07b3          	add	a5,s8,s0
    5690:	00074603          	lbu	a2,0(a4)
    5694:	0007c683          	lbu	a3,0(a5)
    5698:	00140413          	add	s0,s0,1
    569c:	01861613          	sll	a2,a2,0x18
    56a0:	01869693          	sll	a3,a3,0x18
    56a4:	41865613          	sra	a2,a2,0x18
    56a8:	4186d693          	sra	a3,a3,0x18
    56ac:	68d010ef          	jal	7538 <bm_printf>
    56b0:	fd4414e3          	bne	s0,s4,5678 <main+0x2e8>
    56b4:	00100537          	lui	a0,0x100
    56b8:	50c50513          	add	a0,a0,1292 # 10050c <__clz_tab+0x2f4>
    56bc:	0c000413          	li	s0,192
    56c0:	679010ef          	jal	7538 <bm_printf>
    56c4:	0c800a13          	li	s4,200
    56c8:	01244663          	blt	s0,s2,56d4 <main+0x344>
    56cc:	0400006f          	j	570c <main+0x37c>
    56d0:	03240e63          	beq	s0,s2,570c <main+0x37c>
    56d4:	01c12783          	lw	a5,28(sp)
    56d8:	00040593          	mv	a1,s0
    56dc:	4bc98513          	add	a0,s3,1212
    56e0:	00f40733          	add	a4,s0,a5
    56e4:	008c07b3          	add	a5,s8,s0
    56e8:	00074603          	lbu	a2,0(a4)
    56ec:	0007c683          	lbu	a3,0(a5)
    56f0:	00140413          	add	s0,s0,1
    56f4:	01861613          	sll	a2,a2,0x18
    56f8:	01869693          	sll	a3,a3,0x18
    56fc:	41865613          	sra	a2,a2,0x18
