
slrx.elf:     file format elf32-littleriscv


Disassembly of section .vectors:

00000000 <_stack_orig-0x105af0>:
   0:	00000013          	nop
   4:	00000013          	nop
   8:	00000013          	nop
   c:	00000013          	nop
  10:	00000013          	nop
  14:	00000013          	nop
  18:	00000013          	nop
  1c:	00000013          	nop
  20:	00000013          	nop
  24:	00000013          	nop
  28:	00000013          	nop
  2c:	00000013          	nop
  30:	00000013          	nop
  34:	00000013          	nop
  38:	00000013          	nop
  3c:	00000013          	nop
  40:	00000013          	nop
  44:	00000013          	nop
  48:	00000013          	nop
  4c:	00000013          	nop
  50:	00000013          	nop
  54:	00000013          	nop
  58:	00000013          	nop
  5c:	00000013          	nop
  60:	00000013          	nop
  64:	00000013          	nop
  68:	00000013          	nop
  6c:	00000013          	nop
  70:	00000013          	nop
  74:	00000013          	nop
  78:	00000013          	nop
  7c:	00000013          	nop
  80:	0040006f          	j	84 <_stext>

Disassembly of section .text:

00000084 <_stext>:
      84:	00000093          	li	ra,0
      88:	00008113          	mv	sp,ra
      8c:	00008193          	mv	gp,ra
      90:	00008213          	mv	tp,ra
      94:	00008293          	mv	t0,ra
      98:	00008313          	mv	t1,ra
      9c:	00008393          	mv	t2,ra
      a0:	00008413          	mv	s0,ra
      a4:	00008493          	mv	s1,ra
      a8:	00008513          	mv	a0,ra
      ac:	00008593          	mv	a1,ra
      b0:	00008613          	mv	a2,ra
      b4:	00008693          	mv	a3,ra
      b8:	00008713          	mv	a4,ra
      bc:	00008793          	mv	a5,ra
      c0:	00008813          	mv	a6,ra
      c4:	00008893          	mv	a7,ra
      c8:	00008913          	mv	s2,ra
      cc:	00008993          	mv	s3,ra
      d0:	00008a13          	mv	s4,ra
      d4:	00008a93          	mv	s5,ra
      d8:	00008b13          	mv	s6,ra
      dc:	00008b93          	mv	s7,ra
      e0:	00008c13          	mv	s8,ra
      e4:	00008c93          	mv	s9,ra
      e8:	00008d13          	mv	s10,ra
      ec:	00008d93          	mv	s11,ra
      f0:	00008e13          	mv	t3,ra
      f4:	00008e93          	mv	t4,ra
      f8:	00008f13          	mv	t5,ra
      fc:	00008f93          	mv	t6,ra
     100:	00106117          	auipc	sp,0x106
     104:	df010113          	add	sp,sp,-528 # 105ef0 <GPBUF_BASE>

00000108 <_start>:
     108:	00100d17          	auipc	s10,0x100
     10c:	6f8d0d13          	add	s10,s10,1784 # 100800 <alloc_headers>
     110:	00101d97          	auipc	s11,0x101
     114:	824d8d93          	add	s11,s11,-2012 # 100934 <_bss_end>
     118:	01bd5863          	bge	s10,s11,128 <zero_loop_end>

0000011c <zero_loop>:
     11c:	000d2023          	sw	zero,0(s10)
     120:	004d0d13          	add	s10,s10,4
     124:	ffaddce3          	bge	s11,s10,11c <zero_loop>

00000128 <zero_loop_end>:
     128:	6ad020ef          	jal	2fd4 <__libc_init_array>

0000012c <main_entry>:
     12c:	00000513          	li	a0,0
     130:	00000593          	li	a1,0
     134:	495030ef          	jal	3dc8 <main>

00000138 <k5_exit_loop>:
     138:	000000ef          	jal	138 <k5_exit_loop>

0000013c <_fini>:
     13c:	00008067          	ret

00000140 <modf>:
     140:	4145d793          	sra	a5,a1,0x14
     144:	ff010113          	add	sp,sp,-16
     148:	7ff7f793          	and	a5,a5,2047
     14c:	00812423          	sw	s0,8(sp)
     150:	00912223          	sw	s1,4(sp)
     154:	01212023          	sw	s2,0(sp)
     158:	00112623          	sw	ra,12(sp)
     15c:	c0178713          	add	a4,a5,-1023
     160:	01300693          	li	a3,19
     164:	00058413          	mv	s0,a1
     168:	00050493          	mv	s1,a0
     16c:	00060913          	mv	s2,a2
     170:	04e6cc63          	blt	a3,a4,1c8 <modf+0x88>
     174:	10074a63          	bltz	a4,288 <modf+0x148>
     178:	001007b7          	lui	a5,0x100
     17c:	fff78793          	add	a5,a5,-1 # fffff <IMEM_SIZE+0xebfff>
     180:	40e7d7b3          	sra	a5,a5,a4
     184:	00b7f733          	and	a4,a5,a1
     188:	00a76733          	or	a4,a4,a0
     18c:	06071a63          	bnez	a4,200 <modf+0xc0>
     190:	00040793          	mv	a5,s0
     194:	800006b7          	lui	a3,0x80000
     198:	00992023          	sw	s1,0(s2)
     19c:	0086f433          	and	s0,a3,s0
     1a0:	00f92223          	sw	a5,4(s2)
     1a4:	00000493          	li	s1,0
     1a8:	00c12083          	lw	ra,12(sp)
     1ac:	00040593          	mv	a1,s0
     1b0:	00812403          	lw	s0,8(sp)
     1b4:	00012903          	lw	s2,0(sp)
     1b8:	00048513          	mv	a0,s1
     1bc:	00412483          	lw	s1,4(sp)
     1c0:	01010113          	add	sp,sp,16
     1c4:	00008067          	ret
     1c8:	03300693          	li	a3,51
     1cc:	08e6c263          	blt	a3,a4,250 <modf+0x110>
     1d0:	fff00713          	li	a4,-1
     1d4:	bed78793          	add	a5,a5,-1043
     1d8:	00f757b3          	srl	a5,a4,a5
     1dc:	00a7f733          	and	a4,a5,a0
     1e0:	fa0708e3          	beqz	a4,190 <modf+0x50>
     1e4:	fff7c793          	not	a5,a5
     1e8:	00a7f7b3          	and	a5,a5,a0
     1ec:	00078813          	mv	a6,a5
     1f0:	00078613          	mv	a2,a5
     1f4:	00058893          	mv	a7,a1
     1f8:	00058693          	mv	a3,a1
     1fc:	0200006f          	j	21c <modf+0xdc>
     200:	fff7c793          	not	a5,a5
     204:	00000713          	li	a4,0
     208:	00b7f7b3          	and	a5,a5,a1
     20c:	00070813          	mv	a6,a4
     210:	00070613          	mv	a2,a4
     214:	00078893          	mv	a7,a5
     218:	00078693          	mv	a3,a5
     21c:	01092023          	sw	a6,0(s2)
     220:	01192223          	sw	a7,4(s2)
     224:	4a9010ef          	jal	1ecc <__subdf3>
     228:	00058413          	mv	s0,a1
     22c:	00c12083          	lw	ra,12(sp)
     230:	00040593          	mv	a1,s0
     234:	00812403          	lw	s0,8(sp)
     238:	00050493          	mv	s1,a0
     23c:	00012903          	lw	s2,0(sp)
     240:	00048513          	mv	a0,s1
     244:	00412483          	lw	s1,4(sp)
     248:	01010113          	add	sp,sp,16
     24c:	00008067          	ret
     250:	00a92023          	sw	a0,0(s2)
     254:	00b92223          	sw	a1,4(s2)
     258:	070000ef          	jal	2c8 <__fpclassifyd>
     25c:	04051e63          	bnez	a0,2b8 <modf+0x178>
     260:	00048613          	mv	a2,s1
     264:	00048513          	mv	a0,s1
     268:	00040693          	mv	a3,s0
     26c:	00040593          	mv	a1,s0
     270:	0c8000ef          	jal	338 <__adddf3>
     274:	00050493          	mv	s1,a0
     278:	00058413          	mv	s0,a1
     27c:	00a92023          	sw	a0,0(s2)
     280:	00b92223          	sw	a1,4(s2)
     284:	f25ff06f          	j	1a8 <modf+0x68>
     288:	800007b7          	lui	a5,0x80000
     28c:	00c12083          	lw	ra,12(sp)
     290:	00b7f7b3          	and	a5,a5,a1
     294:	00040593          	mv	a1,s0
     298:	00812403          	lw	s0,8(sp)
     29c:	00062023          	sw	zero,0(a2)
     2a0:	00f62223          	sw	a5,4(a2)
     2a4:	00012903          	lw	s2,0(sp)
     2a8:	00048513          	mv	a0,s1
     2ac:	00412483          	lw	s1,4(sp)
     2b0:	01010113          	add	sp,sp,16
     2b4:	00008067          	ret
     2b8:	800007b7          	lui	a5,0x80000
     2bc:	0087f433          	and	s0,a5,s0
     2c0:	00000493          	li	s1,0
     2c4:	ee5ff06f          	j	1a8 <modf+0x68>

000002c8 <__fpclassifyd>:
     2c8:	00b56733          	or	a4,a0,a1
     2cc:	00050793          	mv	a5,a0
     2d0:	04070c63          	beqz	a4,328 <__fpclassifyd+0x60>
     2d4:	80000737          	lui	a4,0x80000
     2d8:	04e58263          	beq	a1,a4,31c <__fpclassifyd+0x54>
     2dc:	fff70693          	add	a3,a4,-1 # 7fffffff <MTSSV_BASE+0x7fef8007>
     2e0:	00b6f6b3          	and	a3,a3,a1
     2e4:	fff00837          	lui	a6,0xfff00
     2e8:	01068833          	add	a6,a3,a6
     2ec:	7fe008b7          	lui	a7,0x7fe00
     2f0:	00400513          	li	a0,4
     2f4:	03186263          	bltu	a6,a7,318 <__fpclassifyd+0x50>
     2f8:	00100837          	lui	a6,0x100
     2fc:	00300513          	li	a0,3
     300:	0105ec63          	bltu	a1,a6,318 <__fpclassifyd+0x50>
     304:	00b70733          	add	a4,a4,a1
     308:	01076863          	bltu	a4,a6,318 <__fpclassifyd+0x50>
     30c:	7ff00737          	lui	a4,0x7ff00
     310:	00000513          	li	a0,0
     314:	00e68e63          	beq	a3,a4,330 <__fpclassifyd+0x68>
     318:	00008067          	ret
     31c:	00a03533          	snez	a0,a0
     320:	00250513          	add	a0,a0,2
     324:	00008067          	ret
     328:	00200513          	li	a0,2
     32c:	00008067          	ret
     330:	0017b513          	seqz	a0,a5
     334:	00008067          	ret

00000338 <__adddf3>:
     338:	001007b7          	lui	a5,0x100
     33c:	fe010113          	add	sp,sp,-32
     340:	fff78e93          	add	t4,a5,-1 # fffff <IMEM_SIZE+0xebfff>
     344:	00bef833          	and	a6,t4,a1
     348:	00def7b3          	and	a5,t4,a3
     34c:	0146d313          	srl	t1,a3,0x14
     350:	01212823          	sw	s2,16(sp)
     354:	0145d913          	srl	s2,a1,0x14
     358:	00379793          	sll	a5,a5,0x3
     35c:	00812c23          	sw	s0,24(sp)
     360:	00381813          	sll	a6,a6,0x3
     364:	01f5d413          	srl	s0,a1,0x1f
     368:	01d55713          	srl	a4,a0,0x1d
     36c:	01d65893          	srl	a7,a2,0x1d
     370:	7ff97913          	and	s2,s2,2047
     374:	7ff37313          	and	t1,t1,2047
     378:	00112e23          	sw	ra,28(sp)
     37c:	00912a23          	sw	s1,20(sp)
     380:	01312623          	sw	s3,12(sp)
     384:	01f6d693          	srl	a3,a3,0x1f
     388:	00f8e8b3          	or	a7,a7,a5
     38c:	01076733          	or	a4,a4,a6
     390:	00351593          	sll	a1,a0,0x3
     394:	00361f13          	sll	t5,a2,0x3
     398:	406907b3          	sub	a5,s2,t1
     39c:	1ed40463          	beq	s0,a3,584 <STACK_SIZE+0x184>
     3a0:	16f05263          	blez	a5,504 <STACK_SIZE+0x104>
     3a4:	28030663          	beqz	t1,630 <STACK_SIZE+0x230>
     3a8:	7ff00693          	li	a3,2047
     3ac:	42d90663          	beq	s2,a3,7d8 <STACK_SIZE+0x3d8>
     3b0:	03800693          	li	a3,56
     3b4:	00100613          	li	a2,1
     3b8:	02f6ce63          	blt	a3,a5,3f4 <__adddf3+0xbc>
     3bc:	008006b7          	lui	a3,0x800
     3c0:	00d8e8b3          	or	a7,a7,a3
     3c4:	01f00693          	li	a3,31
     3c8:	52f6ce63          	blt	a3,a5,904 <STACK_SIZE+0x504>
     3cc:	02000693          	li	a3,32
     3d0:	40f686b3          	sub	a3,a3,a5
     3d4:	00d89633          	sll	a2,a7,a3
     3d8:	00ff5533          	srl	a0,t5,a5
     3dc:	00df16b3          	sll	a3,t5,a3
     3e0:	00a66633          	or	a2,a2,a0
     3e4:	00d036b3          	snez	a3,a3
     3e8:	00f8d8b3          	srl	a7,a7,a5
     3ec:	00d66633          	or	a2,a2,a3
     3f0:	41170733          	sub	a4,a4,a7
     3f4:	40c58633          	sub	a2,a1,a2
     3f8:	00c5b5b3          	sltu	a1,a1,a2
     3fc:	00060493          	mv	s1,a2
     400:	40b709b3          	sub	s3,a4,a1
     404:	00899793          	sll	a5,s3,0x8
     408:	3207da63          	bgez	a5,73c <STACK_SIZE+0x33c>
     40c:	008007b7          	lui	a5,0x800
     410:	fff78793          	add	a5,a5,-1 # 7fffff <MTSSV_BASE+0x6f8007>
     414:	00f9f9b3          	and	s3,s3,a5
     418:	2c098863          	beqz	s3,6e8 <STACK_SIZE+0x2e8>
     41c:	00098513          	mv	a0,s3
     420:	32d020ef          	jal	2f4c <__clzsi2>
     424:	ff850793          	add	a5,a0,-8
     428:	02000693          	li	a3,32
     42c:	40f68733          	sub	a4,a3,a5
     430:	00e4d733          	srl	a4,s1,a4
     434:	00f999b3          	sll	s3,s3,a5
     438:	01376733          	or	a4,a4,s3
     43c:	00f494b3          	sll	s1,s1,a5
     440:	4b27c863          	blt	a5,s2,8f0 <STACK_SIZE+0x4f0>
     444:	412787b3          	sub	a5,a5,s2
     448:	00178793          	add	a5,a5,1
     44c:	40f686b3          	sub	a3,a3,a5
     450:	00d49633          	sll	a2,s1,a3
     454:	00f4d9b3          	srl	s3,s1,a5
     458:	00c03633          	snez	a2,a2
     45c:	01366633          	or	a2,a2,s3
     460:	00d716b3          	sll	a3,a4,a3
     464:	00c6e4b3          	or	s1,a3,a2
     468:	00f759b3          	srl	s3,a4,a5
     46c:	00000913          	li	s2,0
     470:	0074f793          	and	a5,s1,7
     474:	02078063          	beqz	a5,494 <STACK_SIZE+0x94>
     478:	00f4f793          	and	a5,s1,15
     47c:	00400713          	li	a4,4
     480:	00e78a63          	beq	a5,a4,494 <STACK_SIZE+0x94>
     484:	00448793          	add	a5,s1,4
     488:	0097b633          	sltu	a2,a5,s1
     48c:	00c989b3          	add	s3,s3,a2
     490:	00078493          	mv	s1,a5
     494:	00899793          	sll	a5,s3,0x8
     498:	6e07da63          	bgez	a5,b8c <STACK_SIZE+0x78c>
     49c:	00190793          	add	a5,s2,1
     4a0:	7ff00713          	li	a4,2047
     4a4:	00040e13          	mv	t3,s0
     4a8:	2ae78663          	beq	a5,a4,754 <STACK_SIZE+0x354>
     4ac:	ff800737          	lui	a4,0xff800
     4b0:	fff70713          	add	a4,a4,-1 # ff7fffff <MTSSV_BASE+0xff6f8007>
     4b4:	00e9f733          	and	a4,s3,a4
     4b8:	7ff7f793          	and	a5,a5,2047
     4bc:	01d71813          	sll	a6,a4,0x1d
     4c0:	0034d613          	srl	a2,s1,0x3
     4c4:	00971713          	sll	a4,a4,0x9
     4c8:	00c86833          	or	a6,a6,a2
     4cc:	00c75713          	srl	a4,a4,0xc
     4d0:	01c12083          	lw	ra,28(sp)
     4d4:	01812403          	lw	s0,24(sp)
     4d8:	01479793          	sll	a5,a5,0x14
     4dc:	00e7e7b3          	or	a5,a5,a4
     4e0:	01fe1713          	sll	a4,t3,0x1f
     4e4:	00e7e7b3          	or	a5,a5,a4
     4e8:	01412483          	lw	s1,20(sp)
     4ec:	01012903          	lw	s2,16(sp)
     4f0:	00c12983          	lw	s3,12(sp)
     4f4:	00080513          	mv	a0,a6
     4f8:	00078593          	mv	a1,a5
     4fc:	02010113          	add	sp,sp,32
     500:	00008067          	ret
     504:	14078c63          	beqz	a5,65c <STACK_SIZE+0x25c>
     508:	412307b3          	sub	a5,t1,s2
     50c:	3c091263          	bnez	s2,8d0 <STACK_SIZE+0x4d0>
     510:	00b76533          	or	a0,a4,a1
     514:	4c050463          	beqz	a0,9dc <STACK_SIZE+0x5dc>
     518:	fff78513          	add	a0,a5,-1
     51c:	60050263          	beqz	a0,b20 <STACK_SIZE+0x720>
     520:	7ff00813          	li	a6,2047
     524:	57078663          	beq	a5,a6,a90 <STACK_SIZE+0x690>
     528:	03800793          	li	a5,56
     52c:	00100613          	li	a2,1
     530:	02a7cc63          	blt	a5,a0,568 <STACK_SIZE+0x168>
     534:	00050793          	mv	a5,a0
     538:	01f00613          	li	a2,31
     53c:	56f64c63          	blt	a2,a5,ab4 <STACK_SIZE+0x6b4>
     540:	02000513          	li	a0,32
     544:	40f50533          	sub	a0,a0,a5
     548:	00a71633          	sll	a2,a4,a0
     54c:	00f5d833          	srl	a6,a1,a5
     550:	00a59533          	sll	a0,a1,a0
     554:	01066633          	or	a2,a2,a6
     558:	00a03533          	snez	a0,a0
     55c:	00f75733          	srl	a4,a4,a5
     560:	00a66633          	or	a2,a2,a0
     564:	40e888b3          	sub	a7,a7,a4
     568:	40cf0633          	sub	a2,t5,a2
     56c:	00cf3733          	sltu	a4,t5,a2
     570:	00060493          	mv	s1,a2
     574:	40e889b3          	sub	s3,a7,a4
     578:	00030913          	mv	s2,t1
     57c:	00068413          	mv	s0,a3
     580:	e85ff06f          	j	404 <STACK_SIZE+0x4>
     584:	1ef05063          	blez	a5,764 <STACK_SIZE+0x364>
     588:	14031063          	bnez	t1,6c8 <STACK_SIZE+0x2c8>
     58c:	01e8e6b3          	or	a3,a7,t5
     590:	26068c63          	beqz	a3,808 <STACK_SIZE+0x408>
     594:	fff78693          	add	a3,a5,-1
     598:	48068063          	beqz	a3,a18 <STACK_SIZE+0x618>
     59c:	7ff00613          	li	a2,2047
     5a0:	22c78c63          	beq	a5,a2,7d8 <STACK_SIZE+0x3d8>
     5a4:	03800793          	li	a5,56
     5a8:	00100993          	li	s3,1
     5ac:	02d7cc63          	blt	a5,a3,5e4 <STACK_SIZE+0x1e4>
     5b0:	00068793          	mv	a5,a3
     5b4:	01f00693          	li	a3,31
     5b8:	4af6c063          	blt	a3,a5,a58 <STACK_SIZE+0x658>
     5bc:	02000693          	li	a3,32
     5c0:	40f686b3          	sub	a3,a3,a5
     5c4:	00d899b3          	sll	s3,a7,a3
     5c8:	00ff5633          	srl	a2,t5,a5
     5cc:	00df16b3          	sll	a3,t5,a3
     5d0:	00c9e9b3          	or	s3,s3,a2
     5d4:	00d036b3          	snez	a3,a3
     5d8:	00f8d8b3          	srl	a7,a7,a5
     5dc:	00d9e9b3          	or	s3,s3,a3
     5e0:	01170733          	add	a4,a4,a7
     5e4:	00b985b3          	add	a1,s3,a1
     5e8:	0135b9b3          	sltu	s3,a1,s3
     5ec:	00058493          	mv	s1,a1
     5f0:	00e989b3          	add	s3,s3,a4
     5f4:	00899793          	sll	a5,s3,0x8
     5f8:	1407d263          	bgez	a5,73c <STACK_SIZE+0x33c>
     5fc:	00190913          	add	s2,s2,1
     600:	7ff00793          	li	a5,2047
     604:	36f90c63          	beq	s2,a5,97c <STACK_SIZE+0x57c>
     608:	ff8007b7          	lui	a5,0xff800
     60c:	fff78793          	add	a5,a5,-1 # ff7fffff <MTSSV_BASE+0xff6f8007>
     610:	0014f613          	and	a2,s1,1
     614:	00f9f7b3          	and	a5,s3,a5
     618:	0014d713          	srl	a4,s1,0x1
     61c:	00c76733          	or	a4,a4,a2
     620:	01f79613          	sll	a2,a5,0x1f
     624:	00e664b3          	or	s1,a2,a4
     628:	0017d993          	srl	s3,a5,0x1
     62c:	e45ff06f          	j	470 <STACK_SIZE+0x70>
     630:	01e8e6b3          	or	a3,a7,t5
     634:	1c068a63          	beqz	a3,808 <STACK_SIZE+0x408>
     638:	fff78693          	add	a3,a5,-1
     63c:	40068063          	beqz	a3,a3c <STACK_SIZE+0x63c>
     640:	7ff00613          	li	a2,2047
     644:	18c78a63          	beq	a5,a2,7d8 <STACK_SIZE+0x3d8>
     648:	03800793          	li	a5,56
     64c:	00100613          	li	a2,1
     650:	dad7c2e3          	blt	a5,a3,3f4 <__adddf3+0xbc>
     654:	00068793          	mv	a5,a3
     658:	d6dff06f          	j	3c4 <__adddf3+0x8c>
     65c:	00190813          	add	a6,s2,1
     660:	7fe87813          	and	a6,a6,2046
     664:	22081c63          	bnez	a6,89c <STACK_SIZE+0x49c>
     668:	00b76333          	or	t1,a4,a1
     66c:	01e8e833          	or	a6,a7,t5
     670:	38091063          	bnez	s2,9f0 <STACK_SIZE+0x5f0>
     674:	46030e63          	beqz	t1,af0 <STACK_SIZE+0x6f0>
     678:	40080663          	beqz	a6,a84 <STACK_SIZE+0x684>
     67c:	41e589b3          	sub	s3,a1,t5
     680:	0135b533          	sltu	a0,a1,s3
     684:	41170633          	sub	a2,a4,a7
     688:	40a60633          	sub	a2,a2,a0
     68c:	00861513          	sll	a0,a2,0x8
     690:	50055e63          	bgez	a0,bac <STACK_SIZE+0x7ac>
     694:	40bf05b3          	sub	a1,t5,a1
     698:	40e88733          	sub	a4,a7,a4
     69c:	00bf3f33          	sltu	t5,t5,a1
     6a0:	41e70733          	sub	a4,a4,t5
     6a4:	00871613          	sll	a2,a4,0x8
     6a8:	00058493          	mv	s1,a1
     6ac:	52065e63          	bgez	a2,be8 <STACK_SIZE+0x7e8>
     6b0:	ff8007b7          	lui	a5,0xff800
     6b4:	fff78793          	add	a5,a5,-1 # ff7fffff <MTSSV_BASE+0xff6f8007>
     6b8:	00f77733          	and	a4,a4,a5
     6bc:	00068e13          	mv	t3,a3
     6c0:	00100793          	li	a5,1
     6c4:	df9ff06f          	j	4bc <STACK_SIZE+0xbc>
     6c8:	7ff00693          	li	a3,2047
     6cc:	10d90663          	beq	s2,a3,7d8 <STACK_SIZE+0x3d8>
     6d0:	03800693          	li	a3,56
     6d4:	00100993          	li	s3,1
     6d8:	f0f6c6e3          	blt	a3,a5,5e4 <STACK_SIZE+0x1e4>
     6dc:	008006b7          	lui	a3,0x800
     6e0:	00d8e8b3          	or	a7,a7,a3
     6e4:	ed1ff06f          	j	5b4 <STACK_SIZE+0x1b4>
     6e8:	00048513          	mv	a0,s1
     6ec:	061020ef          	jal	2f4c <__clzsi2>
     6f0:	01850793          	add	a5,a0,24
     6f4:	01f00693          	li	a3,31
     6f8:	d2f6d8e3          	bge	a3,a5,428 <STACK_SIZE+0x28>
     6fc:	ff850713          	add	a4,a0,-8
     700:	00e49733          	sll	a4,s1,a4
     704:	2327c663          	blt	a5,s2,930 <STACK_SIZE+0x530>
     708:	41278933          	sub	s2,a5,s2
     70c:	00190793          	add	a5,s2,1
     710:	48f6d663          	bge	a3,a5,b9c <STACK_SIZE+0x79c>
     714:	fe190913          	add	s2,s2,-31
     718:	02000693          	li	a3,32
     71c:	012754b3          	srl	s1,a4,s2
     720:	00d78c63          	beq	a5,a3,738 <STACK_SIZE+0x338>
     724:	04000693          	li	a3,64
     728:	40f687b3          	sub	a5,a3,a5
     72c:	00f71733          	sll	a4,a4,a5
     730:	00e03733          	snez	a4,a4
     734:	00e4e4b3          	or	s1,s1,a4
     738:	00000913          	li	s2,0
     73c:	0074f793          	and	a5,s1,7
     740:	d2079ce3          	bnez	a5,478 <STACK_SIZE+0x78>
     744:	00090793          	mv	a5,s2
     748:	0034d613          	srl	a2,s1,0x3
     74c:	00098713          	mv	a4,s3
     750:	0c00006f          	j	810 <STACK_SIZE+0x410>
     754:	7ff00793          	li	a5,2047
     758:	00000713          	li	a4,0
     75c:	00000813          	li	a6,0
     760:	d71ff06f          	j	4d0 <STACK_SIZE+0xd0>
     764:	0c078a63          	beqz	a5,838 <STACK_SIZE+0x438>
     768:	412307b3          	sub	a5,t1,s2
     76c:	1e090263          	beqz	s2,950 <STACK_SIZE+0x550>
     770:	7ff00693          	li	a3,2047
     774:	32d30863          	beq	t1,a3,aa4 <STACK_SIZE+0x6a4>
     778:	03800693          	li	a3,56
     77c:	00100993          	li	s3,1
     780:	02f6ce63          	blt	a3,a5,7bc <STACK_SIZE+0x3bc>
     784:	008006b7          	lui	a3,0x800
     788:	00d76733          	or	a4,a4,a3
     78c:	01f00693          	li	a3,31
     790:	3cf6c863          	blt	a3,a5,b60 <STACK_SIZE+0x760>
     794:	02000693          	li	a3,32
     798:	40f686b3          	sub	a3,a3,a5
     79c:	00d719b3          	sll	s3,a4,a3
     7a0:	00f5d633          	srl	a2,a1,a5
     7a4:	00d596b3          	sll	a3,a1,a3
     7a8:	00c9e9b3          	or	s3,s3,a2
     7ac:	00d036b3          	snez	a3,a3
     7b0:	00f75733          	srl	a4,a4,a5
     7b4:	00d9e9b3          	or	s3,s3,a3
     7b8:	00e888b3          	add	a7,a7,a4
     7bc:	01e98733          	add	a4,s3,t5
     7c0:	013739b3          	sltu	s3,a4,s3
     7c4:	00070493          	mv	s1,a4
     7c8:	011989b3          	add	s3,s3,a7
     7cc:	00030913          	mv	s2,t1
     7d0:	e25ff06f          	j	5f4 <STACK_SIZE+0x1f4>
     7d4:	02081063          	bnez	a6,7f4 <STACK_SIZE+0x3f4>
     7d8:	00351613          	sll	a2,a0,0x3
     7dc:	00365613          	srl	a2,a2,0x3
     7e0:	01d71813          	sll	a6,a4,0x1d
     7e4:	00c86833          	or	a6,a6,a2
     7e8:	00375713          	srl	a4,a4,0x3
     7ec:	01076733          	or	a4,a4,a6
     7f0:	18070663          	beqz	a4,97c <STACK_SIZE+0x57c>
     7f4:	00000e13          	li	t3,0
     7f8:	7ff00793          	li	a5,2047
     7fc:	00080737          	lui	a4,0x80
     800:	00000813          	li	a6,0
     804:	ccdff06f          	j	4d0 <STACK_SIZE+0xd0>
     808:	00351613          	sll	a2,a0,0x3
     80c:	00365613          	srl	a2,a2,0x3
     810:	01d71813          	sll	a6,a4,0x1d
     814:	7ff00693          	li	a3,2047
     818:	00c86833          	or	a6,a6,a2
     81c:	00375713          	srl	a4,a4,0x3
     820:	fcd786e3          	beq	a5,a3,7ec <STACK_SIZE+0x3ec>
     824:	00c71713          	sll	a4,a4,0xc
     828:	00c75713          	srl	a4,a4,0xc
     82c:	7ff7f793          	and	a5,a5,2047
     830:	00040e13          	mv	t3,s0
     834:	c9dff06f          	j	4d0 <STACK_SIZE+0xd0>
     838:	00190693          	add	a3,s2,1
     83c:	7fe6f813          	and	a6,a3,2046
     840:	14081863          	bnez	a6,990 <STACK_SIZE+0x590>
     844:	00b766b3          	or	a3,a4,a1
     848:	28091c63          	bnez	s2,ae0 <STACK_SIZE+0x6e0>
     84c:	30068263          	beqz	a3,b50 <STACK_SIZE+0x750>
     850:	01e8e6b3          	or	a3,a7,t5
     854:	22068863          	beqz	a3,a84 <STACK_SIZE+0x684>
     858:	01e587b3          	add	a5,a1,t5
     85c:	00b7b5b3          	sltu	a1,a5,a1
     860:	01170733          	add	a4,a4,a7
     864:	00b70733          	add	a4,a4,a1
     868:	0037d813          	srl	a6,a5,0x3
     86c:	00871793          	sll	a5,a4,0x8
     870:	00040e13          	mv	t3,s0
     874:	3407de63          	bgez	a5,bd0 <STACK_SIZE+0x7d0>
     878:	ff8007b7          	lui	a5,0xff800
     87c:	fff78793          	add	a5,a5,-1 # ff7fffff <MTSSV_BASE+0xff6f8007>
     880:	00f77733          	and	a4,a4,a5
     884:	01d71793          	sll	a5,a4,0x1d
     888:	00375713          	srl	a4,a4,0x3
     88c:	0107e833          	or	a6,a5,a6
     890:	01d77733          	and	a4,a4,t4
     894:	00100793          	li	a5,1
     898:	c39ff06f          	j	4d0 <STACK_SIZE+0xd0>
     89c:	41e58833          	sub	a6,a1,t5
     8a0:	0105b7b3          	sltu	a5,a1,a6
     8a4:	411709b3          	sub	s3,a4,a7
     8a8:	40f989b3          	sub	s3,s3,a5
     8ac:	00899793          	sll	a5,s3,0x8
     8b0:	00080493          	mv	s1,a6
     8b4:	1007c663          	bltz	a5,9c0 <STACK_SIZE+0x5c0>
     8b8:	01386833          	or	a6,a6,s3
     8bc:	b4081ee3          	bnez	a6,418 <STACK_SIZE+0x18>
     8c0:	00000e13          	li	t3,0
     8c4:	00000793          	li	a5,0
     8c8:	00000713          	li	a4,0
     8cc:	c05ff06f          	j	4d0 <STACK_SIZE+0xd0>
     8d0:	7ff00513          	li	a0,2047
     8d4:	1aa30e63          	beq	t1,a0,a90 <STACK_SIZE+0x690>
     8d8:	03800513          	li	a0,56
     8dc:	00100613          	li	a2,1
     8e0:	c8f544e3          	blt	a0,a5,568 <STACK_SIZE+0x168>
     8e4:	00800637          	lui	a2,0x800
     8e8:	00c76733          	or	a4,a4,a2
     8ec:	c4dff06f          	j	538 <STACK_SIZE+0x138>
     8f0:	ff8009b7          	lui	s3,0xff800
     8f4:	fff98993          	add	s3,s3,-1 # ff7fffff <MTSSV_BASE+0xff6f8007>
     8f8:	40f90933          	sub	s2,s2,a5
     8fc:	013779b3          	and	s3,a4,s3
     900:	b71ff06f          	j	470 <STACK_SIZE+0x70>
     904:	fe078693          	add	a3,a5,-32
     908:	02000613          	li	a2,32
     90c:	00d8d6b3          	srl	a3,a7,a3
     910:	00c78a63          	beq	a5,a2,924 <STACK_SIZE+0x524>
     914:	04000613          	li	a2,64
     918:	40f607b3          	sub	a5,a2,a5
     91c:	00f897b3          	sll	a5,a7,a5
     920:	00ff6f33          	or	t5,t5,a5
     924:	01e03633          	snez	a2,t5
     928:	00d66633          	or	a2,a2,a3
     92c:	ac9ff06f          	j	3f4 <__adddf3+0xbc>
     930:	ff8006b7          	lui	a3,0xff800
     934:	fff68693          	add	a3,a3,-1 # ff7fffff <MTSSV_BASE+0xff6f8007>
     938:	40f907b3          	sub	a5,s2,a5
     93c:	00d77733          	and	a4,a4,a3
     940:	01d71813          	sll	a6,a4,0x1d
     944:	01386833          	or	a6,a6,s3
     948:	00375713          	srl	a4,a4,0x3
     94c:	ed9ff06f          	j	824 <STACK_SIZE+0x424>
     950:	00b766b3          	or	a3,a4,a1
     954:	1e068663          	beqz	a3,b40 <STACK_SIZE+0x740>
     958:	fff78693          	add	a3,a5,-1
     95c:	0a068e63          	beqz	a3,a18 <STACK_SIZE+0x618>
     960:	7ff00513          	li	a0,2047
     964:	14a78063          	beq	a5,a0,aa4 <STACK_SIZE+0x6a4>
     968:	03800793          	li	a5,56
     96c:	00100993          	li	s3,1
     970:	e4d7c6e3          	blt	a5,a3,7bc <STACK_SIZE+0x3bc>
     974:	00068793          	mv	a5,a3
     978:	e15ff06f          	j	78c <STACK_SIZE+0x38c>
     97c:	00040e13          	mv	t3,s0
     980:	7ff00793          	li	a5,2047
     984:	00000713          	li	a4,0
     988:	00000813          	li	a6,0
     98c:	b45ff06f          	j	4d0 <STACK_SIZE+0xd0>
     990:	7ff00793          	li	a5,2047
     994:	fef684e3          	beq	a3,a5,97c <STACK_SIZE+0x57c>
     998:	01e58f33          	add	t5,a1,t5
     99c:	00bf35b3          	sltu	a1,t5,a1
     9a0:	011707b3          	add	a5,a4,a7
     9a4:	00b787b3          	add	a5,a5,a1
     9a8:	01f79613          	sll	a2,a5,0x1f
     9ac:	001f5f13          	srl	t5,t5,0x1
     9b0:	01e664b3          	or	s1,a2,t5
     9b4:	0017d993          	srl	s3,a5,0x1
     9b8:	00068913          	mv	s2,a3
     9bc:	ab5ff06f          	j	470 <STACK_SIZE+0x70>
     9c0:	40bf0633          	sub	a2,t5,a1
     9c4:	40e887b3          	sub	a5,a7,a4
     9c8:	00cf3733          	sltu	a4,t5,a2
     9cc:	00060493          	mv	s1,a2
     9d0:	40e789b3          	sub	s3,a5,a4
     9d4:	00068413          	mv	s0,a3
     9d8:	a41ff06f          	j	418 <STACK_SIZE+0x18>
     9dc:	00361613          	sll	a2,a2,0x3
     9e0:	00365613          	srl	a2,a2,0x3
     9e4:	00068413          	mv	s0,a3
     9e8:	00088713          	mv	a4,a7
     9ec:	e25ff06f          	j	810 <STACK_SIZE+0x410>
     9f0:	de0312e3          	bnez	t1,7d4 <STACK_SIZE+0x3d4>
     9f4:	1c080663          	beqz	a6,bc0 <STACK_SIZE+0x7c0>
     9f8:	0038d713          	srl	a4,a7,0x3
     9fc:	00361613          	sll	a2,a2,0x3
     a00:	01d89893          	sll	a7,a7,0x1d
     a04:	01176733          	or	a4,a4,a7
     a08:	00365613          	srl	a2,a2,0x3
     a0c:	00c76733          	or	a4,a4,a2
     a10:	00068413          	mv	s0,a3
     a14:	dddff06f          	j	7f0 <STACK_SIZE+0x3f0>
     a18:	01e58f33          	add	t5,a1,t5
     a1c:	011708b3          	add	a7,a4,a7
     a20:	00bf35b3          	sltu	a1,t5,a1
     a24:	00b889b3          	add	s3,a7,a1
     a28:	00899793          	sll	a5,s3,0x8
     a2c:	000f0493          	mv	s1,t5
     a30:	0e07d463          	bgez	a5,b18 <STACK_SIZE+0x718>
     a34:	00200913          	li	s2,2
     a38:	bd1ff06f          	j	608 <STACK_SIZE+0x208>
     a3c:	41e58f33          	sub	t5,a1,t5
     a40:	411708b3          	sub	a7,a4,a7
     a44:	01e5b5b3          	sltu	a1,a1,t5
     a48:	000f0493          	mv	s1,t5
     a4c:	40b889b3          	sub	s3,a7,a1
     a50:	00100913          	li	s2,1
     a54:	9b1ff06f          	j	404 <STACK_SIZE+0x4>
     a58:	fe078693          	add	a3,a5,-32
     a5c:	02000613          	li	a2,32
     a60:	00d8d6b3          	srl	a3,a7,a3
     a64:	00c78a63          	beq	a5,a2,a78 <STACK_SIZE+0x678>
     a68:	04000613          	li	a2,64
     a6c:	40f607b3          	sub	a5,a2,a5
     a70:	00f897b3          	sll	a5,a7,a5
     a74:	00ff6f33          	or	t5,t5,a5
     a78:	01e039b3          	snez	s3,t5
     a7c:	00d9e9b3          	or	s3,s3,a3
     a80:	b65ff06f          	j	5e4 <STACK_SIZE+0x1e4>
     a84:	00351613          	sll	a2,a0,0x3
     a88:	00365993          	srl	s3,a2,0x3
     a8c:	eb5ff06f          	j	940 <STACK_SIZE+0x540>
     a90:	00361613          	sll	a2,a2,0x3
     a94:	00365613          	srl	a2,a2,0x3
     a98:	00068413          	mv	s0,a3
     a9c:	00088713          	mv	a4,a7
     aa0:	d41ff06f          	j	7e0 <STACK_SIZE+0x3e0>
     aa4:	00361613          	sll	a2,a2,0x3
     aa8:	00365613          	srl	a2,a2,0x3
     aac:	00088713          	mv	a4,a7
     ab0:	d31ff06f          	j	7e0 <STACK_SIZE+0x3e0>
     ab4:	fe078513          	add	a0,a5,-32
     ab8:	02000613          	li	a2,32
     abc:	00a75533          	srl	a0,a4,a0
     ac0:	00c78a63          	beq	a5,a2,ad4 <STACK_SIZE+0x6d4>
     ac4:	04000613          	li	a2,64
     ac8:	40f607b3          	sub	a5,a2,a5
     acc:	00f717b3          	sll	a5,a4,a5
     ad0:	00f5e5b3          	or	a1,a1,a5
     ad4:	00b03633          	snez	a2,a1
     ad8:	00a66633          	or	a2,a2,a0
     adc:	a8dff06f          	j	568 <STACK_SIZE+0x168>
     ae0:	fc0682e3          	beqz	a3,aa4 <STACK_SIZE+0x6a4>
     ae4:	01e8ef33          	or	t5,a7,t5
     ae8:	d00f16e3          	bnez	t5,7f4 <STACK_SIZE+0x3f4>
     aec:	cedff06f          	j	7d8 <STACK_SIZE+0x3d8>
     af0:	dc0808e3          	beqz	a6,8c0 <STACK_SIZE+0x4c0>
     af4:	00361813          	sll	a6,a2,0x3
     af8:	01d89793          	sll	a5,a7,0x1d
     afc:	00385813          	srl	a6,a6,0x3
     b00:	0038d713          	srl	a4,a7,0x3
     b04:	00f86833          	or	a6,a6,a5
     b08:	01d77733          	and	a4,a4,t4
     b0c:	00068e13          	mv	t3,a3
     b10:	00000793          	li	a5,0
     b14:	9bdff06f          	j	4d0 <STACK_SIZE+0xd0>
     b18:	00100793          	li	a5,1
     b1c:	c2dff06f          	j	748 <STACK_SIZE+0x348>
     b20:	40bf05b3          	sub	a1,t5,a1
     b24:	40e888b3          	sub	a7,a7,a4
     b28:	00bf3733          	sltu	a4,t5,a1
     b2c:	00058493          	mv	s1,a1
     b30:	40e889b3          	sub	s3,a7,a4
     b34:	00068413          	mv	s0,a3
     b38:	00100913          	li	s2,1
     b3c:	8c9ff06f          	j	404 <STACK_SIZE+0x4>
     b40:	00361613          	sll	a2,a2,0x3
     b44:	00365613          	srl	a2,a2,0x3
     b48:	00088713          	mv	a4,a7
     b4c:	cc5ff06f          	j	810 <STACK_SIZE+0x410>
     b50:	00361613          	sll	a2,a2,0x3
     b54:	00365993          	srl	s3,a2,0x3
     b58:	00088713          	mv	a4,a7
     b5c:	de5ff06f          	j	940 <STACK_SIZE+0x540>
     b60:	fe078693          	add	a3,a5,-32
     b64:	02000613          	li	a2,32
     b68:	00d756b3          	srl	a3,a4,a3
     b6c:	00c78a63          	beq	a5,a2,b80 <STACK_SIZE+0x780>
     b70:	04000613          	li	a2,64
     b74:	40f607b3          	sub	a5,a2,a5
     b78:	00f717b3          	sll	a5,a4,a5
     b7c:	00f5e5b3          	or	a1,a1,a5
     b80:	00b039b3          	snez	s3,a1
     b84:	00d9e9b3          	or	s3,s3,a3
     b88:	c35ff06f          	j	7bc <STACK_SIZE+0x3bc>
     b8c:	0034d613          	srl	a2,s1,0x3
     b90:	00090793          	mv	a5,s2
     b94:	00098713          	mv	a4,s3
     b98:	c79ff06f          	j	810 <STACK_SIZE+0x410>
     b9c:	02000693          	li	a3,32
     ba0:	40f686b3          	sub	a3,a3,a5
     ba4:	00000613          	li	a2,0
     ba8:	8b5ff06f          	j	45c <STACK_SIZE+0x5c>
     bac:	00c9e833          	or	a6,s3,a2
     bb0:	d00808e3          	beqz	a6,8c0 <STACK_SIZE+0x4c0>
     bb4:	0039d993          	srl	s3,s3,0x3
     bb8:	00060713          	mv	a4,a2
     bbc:	d85ff06f          	j	940 <STACK_SIZE+0x540>
     bc0:	00000e13          	li	t3,0
     bc4:	7ff00793          	li	a5,2047
     bc8:	00080737          	lui	a4,0x80
     bcc:	905ff06f          	j	4d0 <STACK_SIZE+0xd0>
     bd0:	01d71793          	sll	a5,a4,0x1d
     bd4:	00375713          	srl	a4,a4,0x3
     bd8:	0107e833          	or	a6,a5,a6
     bdc:	01d77733          	and	a4,a4,t4
     be0:	00000793          	li	a5,0
     be4:	8edff06f          	j	4d0 <STACK_SIZE+0xd0>
     be8:	01d71813          	sll	a6,a4,0x1d
     bec:	0035d593          	srl	a1,a1,0x3
     bf0:	00b86833          	or	a6,a6,a1
     bf4:	00375713          	srl	a4,a4,0x3
     bf8:	00068413          	mv	s0,a3
     bfc:	c29ff06f          	j	824 <STACK_SIZE+0x424>

00000c00 <__divdf3>:
     c00:	fb010113          	add	sp,sp,-80
     c04:	0145d793          	srl	a5,a1,0x14
     c08:	04812423          	sw	s0,72(sp)
     c0c:	04912223          	sw	s1,68(sp)
     c10:	05212023          	sw	s2,64(sp)
     c14:	03412c23          	sw	s4,56(sp)
     c18:	03512a23          	sw	s5,52(sp)
     c1c:	00c59493          	sll	s1,a1,0xc
     c20:	04112623          	sw	ra,76(sp)
     c24:	03312e23          	sw	s3,60(sp)
     c28:	03612823          	sw	s6,48(sp)
     c2c:	03712623          	sw	s7,44(sp)
     c30:	03812423          	sw	s8,40(sp)
     c34:	7ff7f793          	and	a5,a5,2047
     c38:	00050413          	mv	s0,a0
     c3c:	00060a13          	mv	s4,a2
     c40:	00068913          	mv	s2,a3
     c44:	00c4d493          	srl	s1,s1,0xc
     c48:	01f5da93          	srl	s5,a1,0x1f
     c4c:	18078a63          	beqz	a5,de0 <__divdf3+0x1e0>
     c50:	7ff00713          	li	a4,2047
     c54:	08e78863          	beq	a5,a4,ce4 <__divdf3+0xe4>
     c58:	01d55b13          	srl	s6,a0,0x1d
     c5c:	00349493          	sll	s1,s1,0x3
     c60:	009b64b3          	or	s1,s6,s1
     c64:	00800737          	lui	a4,0x800
     c68:	00e4eb33          	or	s6,s1,a4
     c6c:	00351b93          	sll	s7,a0,0x3
     c70:	c0178993          	add	s3,a5,-1023
     c74:	00000493          	li	s1,0
     c78:	00000c13          	li	s8,0
     c7c:	01495793          	srl	a5,s2,0x14
     c80:	00c91413          	sll	s0,s2,0xc
     c84:	7ff7f793          	and	a5,a5,2047
     c88:	00c45413          	srl	s0,s0,0xc
     c8c:	01f95913          	srl	s2,s2,0x1f
     c90:	08078263          	beqz	a5,d14 <__divdf3+0x114>
     c94:	7ff00713          	li	a4,2047
     c98:	18e78a63          	beq	a5,a4,e2c <__divdf3+0x22c>
     c9c:	00341413          	sll	s0,s0,0x3
     ca0:	01da5713          	srl	a4,s4,0x1d
     ca4:	00876733          	or	a4,a4,s0
     ca8:	c0178793          	add	a5,a5,-1023
     cac:	00800437          	lui	s0,0x800
     cb0:	40f989b3          	sub	s3,s3,a5
     cb4:	00876433          	or	s0,a4,s0
     cb8:	003a1813          	sll	a6,s4,0x3
     cbc:	00000793          	li	a5,0
     cc0:	00f00713          	li	a4,15
     cc4:	012aca33          	xor	s4,s5,s2
     cc8:	24976463          	bltu	a4,s1,f10 <__divdf3+0x310>
     ccc:	00100737          	lui	a4,0x100
     cd0:	00070713          	mv	a4,a4
     cd4:	00249493          	sll	s1,s1,0x2
     cd8:	00e484b3          	add	s1,s1,a4
     cdc:	0004a703          	lw	a4,0(s1)
     ce0:	00070067          	jr	a4 # 100000 <DMEM_BASE>
     ce4:	00a4eb33          	or	s6,s1,a0
     ce8:	1c0b1e63          	bnez	s6,ec4 <__divdf3+0x2c4>
     cec:	01495793          	srl	a5,s2,0x14
     cf0:	00c91413          	sll	s0,s2,0xc
     cf4:	7ff7f793          	and	a5,a5,2047
     cf8:	00000b93          	li	s7,0
     cfc:	00800493          	li	s1,8
     d00:	7ff00993          	li	s3,2047
     d04:	00200c13          	li	s8,2
     d08:	00c45413          	srl	s0,s0,0xc
     d0c:	01f95913          	srl	s2,s2,0x1f
     d10:	f80792e3          	bnez	a5,c94 <__divdf3+0x94>
     d14:	01446833          	or	a6,s0,s4
     d18:	1c080263          	beqz	a6,edc <__divdf3+0x2dc>
     d1c:	5c040663          	beqz	s0,12e8 <__divdf3+0x6e8>
     d20:	00040513          	mv	a0,s0
     d24:	228020ef          	jal	2f4c <__clzsi2>
     d28:	00050793          	mv	a5,a0
     d2c:	ff550693          	add	a3,a0,-11
     d30:	01d00713          	li	a4,29
     d34:	ff878813          	add	a6,a5,-8
     d38:	40d70733          	sub	a4,a4,a3
     d3c:	01041433          	sll	s0,s0,a6
     d40:	00ea5733          	srl	a4,s4,a4
     d44:	00876433          	or	s0,a4,s0
     d48:	010a1833          	sll	a6,s4,a6
     d4c:	013787b3          	add	a5,a5,s3
     d50:	3f378993          	add	s3,a5,1011
     d54:	00000793          	li	a5,0
     d58:	f69ff06f          	j	cc0 <__divdf3+0xc0>
     d5c:	40f70733          	sub	a4,a4,a5
     d60:	03800693          	li	a3,56
     d64:	60e6d063          	bge	a3,a4,1364 <__divdf3+0x764>
     d68:	00000793          	li	a5,0
     d6c:	00000693          	li	a3,0
     d70:	00000713          	li	a4,0
     d74:	04c12083          	lw	ra,76(sp)
     d78:	04812403          	lw	s0,72(sp)
     d7c:	01479793          	sll	a5,a5,0x14
     d80:	00d7e7b3          	or	a5,a5,a3
     d84:	01fa1693          	sll	a3,s4,0x1f
     d88:	00d7e7b3          	or	a5,a5,a3
     d8c:	04412483          	lw	s1,68(sp)
     d90:	04012903          	lw	s2,64(sp)
     d94:	03c12983          	lw	s3,60(sp)
     d98:	03812a03          	lw	s4,56(sp)
     d9c:	03412a83          	lw	s5,52(sp)
     da0:	03012b03          	lw	s6,48(sp)
     da4:	02c12b83          	lw	s7,44(sp)
     da8:	02812c03          	lw	s8,40(sp)
     dac:	00070513          	mv	a0,a4
     db0:	00078593          	mv	a1,a5
     db4:	05010113          	add	sp,sp,80
     db8:	00008067          	ret
     dbc:	7ff00793          	li	a5,2047
     dc0:	00000693          	li	a3,0
     dc4:	00000713          	li	a4,0
     dc8:	fadff06f          	j	d74 <__divdf3+0x174>
     dcc:	00000a13          	li	s4,0
     dd0:	7ff00793          	li	a5,2047
     dd4:	000806b7          	lui	a3,0x80
     dd8:	00000713          	li	a4,0
     ddc:	f99ff06f          	j	d74 <__divdf3+0x174>
     de0:	00a4eb33          	or	s6,s1,a0
     de4:	100b0c63          	beqz	s6,efc <__divdf3+0x2fc>
     de8:	52048463          	beqz	s1,1310 <__divdf3+0x710>
     dec:	00048513          	mv	a0,s1
     df0:	15c020ef          	jal	2f4c <__clzsi2>
     df4:	00050713          	mv	a4,a0
     df8:	ff550793          	add	a5,a0,-11
     dfc:	01d00b13          	li	s6,29
     e00:	ff870b93          	add	s7,a4,-8
     e04:	40fb0b33          	sub	s6,s6,a5
     e08:	017494b3          	sll	s1,s1,s7
     e0c:	01645b33          	srl	s6,s0,s6
     e10:	009b6b33          	or	s6,s6,s1
     e14:	01741bb3          	sll	s7,s0,s7
     e18:	c0d00793          	li	a5,-1011
     e1c:	40e789b3          	sub	s3,a5,a4
     e20:	00000493          	li	s1,0
     e24:	00000c13          	li	s8,0
     e28:	e55ff06f          	j	c7c <__divdf3+0x7c>
     e2c:	01446833          	or	a6,s0,s4
     e30:	80198993          	add	s3,s3,-2047
     e34:	0a081c63          	bnez	a6,eec <__divdf3+0x2ec>
     e38:	0024e493          	or	s1,s1,2
     e3c:	00000413          	li	s0,0
     e40:	00200793          	li	a5,2
     e44:	e7dff06f          	j	cc0 <__divdf3+0xc0>
     e48:	000a8913          	mv	s2,s5
     e4c:	000b0413          	mv	s0,s6
     e50:	000b8813          	mv	a6,s7
     e54:	00200793          	li	a5,2
     e58:	60fc0863          	beq	s8,a5,1468 <__divdf3+0x868>
     e5c:	00300793          	li	a5,3
     e60:	f6fc06e3          	beq	s8,a5,dcc <__divdf3+0x1cc>
     e64:	00100793          	li	a5,1
     e68:	00090a13          	mv	s4,s2
     e6c:	eefc0ee3          	beq	s8,a5,d68 <__divdf3+0x168>
     e70:	3ff98793          	add	a5,s3,1023
     e74:	3cf05263          	blez	a5,1238 <__divdf3+0x638>
     e78:	00787713          	and	a4,a6,7
     e7c:	5c071663          	bnez	a4,1448 <__divdf3+0x848>
     e80:	00741713          	sll	a4,s0,0x7
     e84:	00075a63          	bgez	a4,e98 <__divdf3+0x298>
     e88:	ff0007b7          	lui	a5,0xff000
     e8c:	fff78793          	add	a5,a5,-1 # feffffff <MTSSV_BASE+0xfeef8007>
     e90:	00f47433          	and	s0,s0,a5
     e94:	40098793          	add	a5,s3,1024
     e98:	7fe00713          	li	a4,2046
     e9c:	f2f740e3          	blt	a4,a5,dbc <__divdf3+0x1bc>
     ea0:	00385813          	srl	a6,a6,0x3
     ea4:	01d41713          	sll	a4,s0,0x1d
     ea8:	00941693          	sll	a3,s0,0x9
     eac:	01076733          	or	a4,a4,a6
     eb0:	00c6d693          	srl	a3,a3,0xc
     eb4:	7ff7f793          	and	a5,a5,2047
     eb8:	ebdff06f          	j	d74 <__divdf3+0x174>
     ebc:	00078c13          	mv	s8,a5
     ec0:	f95ff06f          	j	e54 <__divdf3+0x254>
     ec4:	00048b13          	mv	s6,s1
     ec8:	00050b93          	mv	s7,a0
     ecc:	00c00493          	li	s1,12
     ed0:	7ff00993          	li	s3,2047
     ed4:	00300c13          	li	s8,3
     ed8:	da5ff06f          	j	c7c <__divdf3+0x7c>
     edc:	0014e493          	or	s1,s1,1
     ee0:	00000413          	li	s0,0
     ee4:	00100793          	li	a5,1
     ee8:	dd9ff06f          	j	cc0 <__divdf3+0xc0>
     eec:	0034e493          	or	s1,s1,3
     ef0:	000a0813          	mv	a6,s4
     ef4:	00300793          	li	a5,3
     ef8:	dc9ff06f          	j	cc0 <__divdf3+0xc0>
     efc:	00000b93          	li	s7,0
     f00:	00400493          	li	s1,4
     f04:	00000993          	li	s3,0
     f08:	00100c13          	li	s8,1
     f0c:	d71ff06f          	j	c7c <__divdf3+0x7c>
     f10:	03912223          	sw	s9,36(sp)
     f14:	03a12023          	sw	s10,32(sp)
     f18:	01b12e23          	sw	s11,28(sp)
     f1c:	3b646a63          	bltu	s0,s6,12d0 <__divdf3+0x6d0>
     f20:	3a8b0663          	beq	s6,s0,12cc <__divdf3+0x6cc>
     f24:	fff98993          	add	s3,s3,-1
     f28:	000b8c13          	mv	s8,s7
     f2c:	000b0493          	mv	s1,s6
     f30:	00000d13          	li	s10,0
     f34:	01885c93          	srl	s9,a6,0x18
     f38:	00841413          	sll	s0,s0,0x8
     f3c:	01045913          	srl	s2,s0,0x10
     f40:	008cecb3          	or	s9,s9,s0
     f44:	00090593          	mv	a1,s2
     f48:	00048513          	mv	a0,s1
     f4c:	010c9b13          	sll	s6,s9,0x10
     f50:	00881a93          	sll	s5,a6,0x8
     f54:	010b5b13          	srl	s6,s6,0x10
     f58:	749010ef          	jal	2ea0 <__hidden___udivsi3>
     f5c:	00050593          	mv	a1,a0
     f60:	00050413          	mv	s0,a0
     f64:	000b0513          	mv	a0,s6
     f68:	70d010ef          	jal	2e74 <__mulsi3>
     f6c:	00050793          	mv	a5,a0
     f70:	00090593          	mv	a1,s2
     f74:	00048513          	mv	a0,s1
     f78:	00078493          	mv	s1,a5
     f7c:	76d010ef          	jal	2ee8 <__umodsi3>
     f80:	01051513          	sll	a0,a0,0x10
     f84:	010c5793          	srl	a5,s8,0x10
     f88:	00a7e7b3          	or	a5,a5,a0
     f8c:	0097fa63          	bgeu	a5,s1,fa0 <__divdf3+0x3a0>
     f90:	00fc87b3          	add	a5,s9,a5
     f94:	fff40713          	add	a4,s0,-1 # 7fffff <MTSSV_BASE+0x6f8007>
     f98:	3b97fe63          	bgeu	a5,s9,1354 <__divdf3+0x754>
     f9c:	00070413          	mv	s0,a4
     fa0:	409784b3          	sub	s1,a5,s1
     fa4:	00090593          	mv	a1,s2
     fa8:	00048513          	mv	a0,s1
     fac:	6f5010ef          	jal	2ea0 <__hidden___udivsi3>
     fb0:	00050593          	mv	a1,a0
     fb4:	00050b93          	mv	s7,a0
     fb8:	000b0513          	mv	a0,s6
     fbc:	6b9010ef          	jal	2e74 <__mulsi3>
     fc0:	00050793          	mv	a5,a0
     fc4:	00090593          	mv	a1,s2
     fc8:	00048513          	mv	a0,s1
     fcc:	00078493          	mv	s1,a5
     fd0:	719010ef          	jal	2ee8 <__umodsi3>
     fd4:	010c1793          	sll	a5,s8,0x10
     fd8:	01051513          	sll	a0,a0,0x10
     fdc:	0107d793          	srl	a5,a5,0x10
     fe0:	00a7e7b3          	or	a5,a5,a0
     fe4:	0097fa63          	bgeu	a5,s1,ff8 <__divdf3+0x3f8>
     fe8:	00fc87b3          	add	a5,s9,a5
     fec:	fffb8713          	add	a4,s7,-1
     ff0:	3597fa63          	bgeu	a5,s9,1344 <__divdf3+0x744>
     ff4:	00070b93          	mv	s7,a4
     ff8:	00010337          	lui	t1,0x10
     ffc:	01041413          	sll	s0,s0,0x10
    1000:	01746433          	or	s0,s0,s7
    1004:	fff30d93          	add	s11,t1,-1 # ffff <DMEM_TOTAL_SIZE+0x7fff>
    1008:	01b478b3          	and	a7,s0,s11
    100c:	01bafdb3          	and	s11,s5,s11
    1010:	40978bb3          	sub	s7,a5,s1
    1014:	010adc13          	srl	s8,s5,0x10
    1018:	01045793          	srl	a5,s0,0x10
    101c:	00088513          	mv	a0,a7
    1020:	000d8593          	mv	a1,s11
    1024:	651010ef          	jal	2e74 <__mulsi3>
    1028:	00050813          	mv	a6,a0
    102c:	000c0593          	mv	a1,s8
    1030:	00088513          	mv	a0,a7
    1034:	641010ef          	jal	2e74 <__mulsi3>
    1038:	00050893          	mv	a7,a0
    103c:	000d8593          	mv	a1,s11
    1040:	00078513          	mv	a0,a5
    1044:	631010ef          	jal	2e74 <__mulsi3>
    1048:	00050e13          	mv	t3,a0
    104c:	000c0593          	mv	a1,s8
    1050:	00078513          	mv	a0,a5
    1054:	621010ef          	jal	2e74 <__mulsi3>
    1058:	01085793          	srl	a5,a6,0x10
    105c:	01c888b3          	add	a7,a7,t3
    1060:	011787b3          	add	a5,a5,a7
    1064:	01c7f463          	bgeu	a5,t3,106c <__divdf3+0x46c>
    1068:	00650533          	add	a0,a0,t1
    106c:	00010637          	lui	a2,0x10
    1070:	fff60613          	add	a2,a2,-1 # ffff <DMEM_TOTAL_SIZE+0x7fff>
    1074:	00c7f4b3          	and	s1,a5,a2
    1078:	0107d693          	srl	a3,a5,0x10
    107c:	01049493          	sll	s1,s1,0x10
    1080:	00c87833          	and	a6,a6,a2
    1084:	00a687b3          	add	a5,a3,a0
    1088:	010484b3          	add	s1,s1,a6
    108c:	20fbea63          	bltu	s7,a5,12a0 <__divdf3+0x6a0>
    1090:	20fb8663          	beq	s7,a5,129c <__divdf3+0x69c>
    1094:	409d04b3          	sub	s1,s10,s1
    1098:	40fb8bb3          	sub	s7,s7,a5
    109c:	009d3d33          	sltu	s10,s10,s1
    10a0:	41ab8bb3          	sub	s7,s7,s10
    10a4:	377c8a63          	beq	s9,s7,1418 <__divdf3+0x818>
    10a8:	00090593          	mv	a1,s2
    10ac:	000b8513          	mv	a0,s7
    10b0:	5f1010ef          	jal	2ea0 <__hidden___udivsi3>
    10b4:	00050593          	mv	a1,a0
    10b8:	00a12623          	sw	a0,12(sp)
    10bc:	00050d13          	mv	s10,a0
    10c0:	000b0513          	mv	a0,s6
    10c4:	5b1010ef          	jal	2e74 <__mulsi3>
    10c8:	00050793          	mv	a5,a0
    10cc:	00090593          	mv	a1,s2
    10d0:	000b8513          	mv	a0,s7
    10d4:	00078b93          	mv	s7,a5
    10d8:	611010ef          	jal	2ee8 <__umodsi3>
    10dc:	01051513          	sll	a0,a0,0x10
    10e0:	0104d793          	srl	a5,s1,0x10
    10e4:	00a7e7b3          	or	a5,a5,a0
    10e8:	0377f063          	bgeu	a5,s7,1108 <__divdf3+0x508>
    10ec:	00fc87b3          	add	a5,s9,a5
    10f0:	fffd0693          	add	a3,s10,-1
    10f4:	3797e263          	bltu	a5,s9,1458 <__divdf3+0x858>
    10f8:	3777f063          	bgeu	a5,s7,1458 <__divdf3+0x858>
    10fc:	ffed0713          	add	a4,s10,-2
    1100:	00e12623          	sw	a4,12(sp)
    1104:	019787b3          	add	a5,a5,s9
    1108:	41778bb3          	sub	s7,a5,s7
    110c:	00090593          	mv	a1,s2
    1110:	000b8513          	mv	a0,s7
    1114:	58d010ef          	jal	2ea0 <__hidden___udivsi3>
    1118:	00050593          	mv	a1,a0
    111c:	00050d13          	mv	s10,a0
    1120:	000b0513          	mv	a0,s6
    1124:	551010ef          	jal	2e74 <__mulsi3>
    1128:	00050793          	mv	a5,a0
    112c:	00090593          	mv	a1,s2
    1130:	000b8513          	mv	a0,s7
    1134:	00078913          	mv	s2,a5
    1138:	01049493          	sll	s1,s1,0x10
    113c:	5ad010ef          	jal	2ee8 <__umodsi3>
    1140:	01051513          	sll	a0,a0,0x10
    1144:	0104d493          	srl	s1,s1,0x10
    1148:	00a4e4b3          	or	s1,s1,a0
    114c:	0124fe63          	bgeu	s1,s2,1168 <__divdf3+0x568>
    1150:	009c84b3          	add	s1,s9,s1
    1154:	fffd0793          	add	a5,s10,-1
    1158:	3194e463          	bltu	s1,s9,1460 <__divdf3+0x860>
    115c:	3124f263          	bgeu	s1,s2,1460 <__divdf3+0x860>
    1160:	ffed0d13          	add	s10,s10,-2
    1164:	019484b3          	add	s1,s1,s9
    1168:	00c12783          	lw	a5,12(sp)
    116c:	412484b3          	sub	s1,s1,s2
    1170:	000d8593          	mv	a1,s11
    1174:	01079813          	sll	a6,a5,0x10
    1178:	01a86833          	or	a6,a6,s10
    117c:	01081313          	sll	t1,a6,0x10
    1180:	01035313          	srl	t1,t1,0x10
    1184:	01085793          	srl	a5,a6,0x10
    1188:	00030513          	mv	a0,t1
    118c:	4e9010ef          	jal	2e74 <__mulsi3>
    1190:	00050893          	mv	a7,a0
    1194:	000c0593          	mv	a1,s8
    1198:	00030513          	mv	a0,t1
    119c:	4d9010ef          	jal	2e74 <__mulsi3>
    11a0:	00050313          	mv	t1,a0
    11a4:	000d8593          	mv	a1,s11
    11a8:	00078513          	mv	a0,a5
    11ac:	4c9010ef          	jal	2e74 <__mulsi3>
    11b0:	00050e13          	mv	t3,a0
    11b4:	000c0593          	mv	a1,s8
    11b8:	00078513          	mv	a0,a5
    11bc:	4b9010ef          	jal	2e74 <__mulsi3>
    11c0:	0108d793          	srl	a5,a7,0x10
    11c4:	01c30333          	add	t1,t1,t3
    11c8:	006787b3          	add	a5,a5,t1
    11cc:	01c7f663          	bgeu	a5,t3,11d8 <__divdf3+0x5d8>
    11d0:	00010737          	lui	a4,0x10
    11d4:	00e50533          	add	a0,a0,a4
    11d8:	000106b7          	lui	a3,0x10
    11dc:	fff68693          	add	a3,a3,-1 # ffff <DMEM_TOTAL_SIZE+0x7fff>
    11e0:	0107d713          	srl	a4,a5,0x10
    11e4:	00d7f7b3          	and	a5,a5,a3
    11e8:	01079793          	sll	a5,a5,0x10
    11ec:	00d8f8b3          	and	a7,a7,a3
    11f0:	00a70733          	add	a4,a4,a0
    11f4:	011787b3          	add	a5,a5,a7
    11f8:	02e4e063          	bltu	s1,a4,1218 <__divdf3+0x618>
    11fc:	00e48c63          	beq	s1,a4,1214 <__divdf3+0x614>
    1200:	02412c83          	lw	s9,36(sp)
    1204:	02012d03          	lw	s10,32(sp)
    1208:	01c12d83          	lw	s11,28(sp)
    120c:	00186813          	or	a6,a6,1
    1210:	c61ff06f          	j	e70 <__divdf3+0x270>
    1214:	1c078a63          	beqz	a5,13e8 <__divdf3+0x7e8>
    1218:	009c84b3          	add	s1,s9,s1
    121c:	fff80613          	add	a2,a6,-1 # fffff <IMEM_SIZE+0xebfff>
    1220:	00048693          	mv	a3,s1
    1224:	1b94ec63          	bltu	s1,s9,13dc <__divdf3+0x7dc>
    1228:	24e4ea63          	bltu	s1,a4,147c <__divdf3+0x87c>
    122c:	26e48863          	beq	s1,a4,149c <__divdf3+0x89c>
    1230:	00060813          	mv	a6,a2
    1234:	fcdff06f          	j	1200 <__divdf3+0x600>
    1238:	00100713          	li	a4,1
    123c:	b20790e3          	bnez	a5,d5c <__divdf3+0x15c>
    1240:	41e98793          	add	a5,s3,1054
    1244:	00f816b3          	sll	a3,a6,a5
    1248:	00d036b3          	snez	a3,a3
    124c:	00f417b3          	sll	a5,s0,a5
    1250:	00f6e7b3          	or	a5,a3,a5
    1254:	00e85833          	srl	a6,a6,a4
    1258:	00f86833          	or	a6,a6,a5
    125c:	00787793          	and	a5,a6,7
    1260:	00e45433          	srl	s0,s0,a4
    1264:	02078063          	beqz	a5,1284 <__divdf3+0x684>
    1268:	00f87793          	and	a5,a6,15
    126c:	00400713          	li	a4,4
    1270:	00e78a63          	beq	a5,a4,1284 <__divdf3+0x684>
    1274:	00480793          	add	a5,a6,4
    1278:	0107b833          	sltu	a6,a5,a6
    127c:	01040433          	add	s0,s0,a6
    1280:	00078813          	mv	a6,a5
    1284:	00841613          	sll	a2,s0,0x8
    1288:	00100793          	li	a5,1
    128c:	00000693          	li	a3,0
    1290:	00000713          	li	a4,0
    1294:	ae0640e3          	bltz	a2,d74 <__divdf3+0x174>
    1298:	1280006f          	j	13c0 <__divdf3+0x7c0>
    129c:	de9d7ce3          	bgeu	s10,s1,1094 <__divdf3+0x494>
    12a0:	015d06b3          	add	a3,s10,s5
    12a4:	01a6b633          	sltu	a2,a3,s10
    12a8:	019605b3          	add	a1,a2,s9
    12ac:	00bb8bb3          	add	s7,s7,a1
    12b0:	00068d13          	mv	s10,a3
    12b4:	fff40593          	add	a1,s0,-1
    12b8:	077cfe63          	bgeu	s9,s7,1334 <__divdf3+0x734>
    12bc:	14fbe063          	bltu	s7,a5,13fc <__divdf3+0x7fc>
    12c0:	13778c63          	beq	a5,s7,13f8 <__divdf3+0x7f8>
    12c4:	00058413          	mv	s0,a1
    12c8:	dcdff06f          	j	1094 <__divdf3+0x494>
    12cc:	c50bece3          	bltu	s7,a6,f24 <__divdf3+0x324>
    12d0:	01fb1c13          	sll	s8,s6,0x1f
    12d4:	001bd713          	srl	a4,s7,0x1
    12d8:	001b5493          	srl	s1,s6,0x1
    12dc:	00ec6c33          	or	s8,s8,a4
    12e0:	01fb9d13          	sll	s10,s7,0x1f
    12e4:	c51ff06f          	j	f34 <__divdf3+0x334>
    12e8:	000a0513          	mv	a0,s4
    12ec:	461010ef          	jal	2f4c <__clzsi2>
    12f0:	01550693          	add	a3,a0,21
    12f4:	01c00713          	li	a4,28
    12f8:	02050793          	add	a5,a0,32
    12fc:	a2d75ae3          	bge	a4,a3,d30 <__divdf3+0x130>
    1300:	ff850513          	add	a0,a0,-8
    1304:	00000813          	li	a6,0
    1308:	00aa1433          	sll	s0,s4,a0
    130c:	a41ff06f          	j	d4c <__divdf3+0x14c>
    1310:	43d010ef          	jal	2f4c <__clzsi2>
    1314:	01550793          	add	a5,a0,21
    1318:	01c00693          	li	a3,28
    131c:	02050713          	add	a4,a0,32
    1320:	acf6dee3          	bge	a3,a5,dfc <__divdf3+0x1fc>
    1324:	ff850493          	add	s1,a0,-8
    1328:	00941b33          	sll	s6,s0,s1
    132c:	00000b93          	li	s7,0
    1330:	ae9ff06f          	j	e18 <__divdf3+0x218>
    1334:	f97c98e3          	bne	s9,s7,12c4 <__divdf3+0x6c4>
    1338:	f80602e3          	beqz	a2,12bc <__divdf3+0x6bc>
    133c:	00058413          	mv	s0,a1
    1340:	d55ff06f          	j	1094 <__divdf3+0x494>
    1344:	ca97f8e3          	bgeu	a5,s1,ff4 <__divdf3+0x3f4>
    1348:	ffeb8b93          	add	s7,s7,-2
    134c:	019787b3          	add	a5,a5,s9
    1350:	ca9ff06f          	j	ff8 <__divdf3+0x3f8>
    1354:	c497f4e3          	bgeu	a5,s1,f9c <__divdf3+0x39c>
    1358:	ffe40413          	add	s0,s0,-2
    135c:	019787b3          	add	a5,a5,s9
    1360:	c41ff06f          	j	fa0 <__divdf3+0x3a0>
    1364:	01f00693          	li	a3,31
    1368:	ece6dce3          	bge	a3,a4,1240 <__divdf3+0x640>
    136c:	fe100693          	li	a3,-31
    1370:	40f686b3          	sub	a3,a3,a5
    1374:	02000793          	li	a5,32
    1378:	00d456b3          	srl	a3,s0,a3
    137c:	00f70863          	beq	a4,a5,138c <__divdf3+0x78c>
    1380:	43e98793          	add	a5,s3,1086
    1384:	00f417b3          	sll	a5,s0,a5
    1388:	00f86833          	or	a6,a6,a5
    138c:	01003833          	snez	a6,a6
    1390:	00d86833          	or	a6,a6,a3
    1394:	00787713          	and	a4,a6,7
    1398:	00000693          	li	a3,0
    139c:	02070863          	beqz	a4,13cc <__divdf3+0x7cc>
    13a0:	00f87793          	and	a5,a6,15
    13a4:	00400713          	li	a4,4
    13a8:	00000413          	li	s0,0
    13ac:	00e78a63          	beq	a5,a4,13c0 <__divdf3+0x7c0>
    13b0:	00480793          	add	a5,a6,4
    13b4:	0107b833          	sltu	a6,a5,a6
    13b8:	01003433          	snez	s0,a6
    13bc:	00078813          	mv	a6,a5
    13c0:	00941693          	sll	a3,s0,0x9
    13c4:	01d41713          	sll	a4,s0,0x1d
    13c8:	00c6d693          	srl	a3,a3,0xc
    13cc:	00385813          	srl	a6,a6,0x3
    13d0:	00e86733          	or	a4,a6,a4
    13d4:	00000793          	li	a5,0
    13d8:	99dff06f          	j	d74 <__divdf3+0x174>
    13dc:	00060813          	mv	a6,a2
    13e0:	e2e690e3          	bne	a3,a4,1200 <__divdf3+0x600>
    13e4:	e1579ee3          	bne	a5,s5,1200 <__divdf3+0x600>
    13e8:	02412c83          	lw	s9,36(sp)
    13ec:	02012d03          	lw	s10,32(sp)
    13f0:	01c12d83          	lw	s11,28(sp)
    13f4:	a7dff06f          	j	e70 <__divdf3+0x270>
    13f8:	ec96f6e3          	bgeu	a3,s1,12c4 <__divdf3+0x6c4>
    13fc:	00da86b3          	add	a3,s5,a3
    1400:	0156b633          	sltu	a2,a3,s5
    1404:	01960633          	add	a2,a2,s9
    1408:	ffe40413          	add	s0,s0,-2
    140c:	00068d13          	mv	s10,a3
    1410:	00cb8bb3          	add	s7,s7,a2
    1414:	c81ff06f          	j	1094 <__divdf3+0x494>
    1418:	c0200713          	li	a4,-1022
    141c:	02412c83          	lw	s9,36(sp)
    1420:	02012d03          	lw	s10,32(sp)
    1424:	01c12d83          	lw	s11,28(sp)
    1428:	3ff98793          	add	a5,s3,1023
    142c:	fff00813          	li	a6,-1
    1430:	e0e9c4e3          	blt	s3,a4,1238 <__divdf3+0x638>
    1434:	00480713          	add	a4,a6,4
    1438:	01073833          	sltu	a6,a4,a6
    143c:	01040433          	add	s0,s0,a6
    1440:	00070813          	mv	a6,a4
    1444:	a3dff06f          	j	e80 <__divdf3+0x280>
    1448:	00f87713          	and	a4,a6,15
    144c:	00400693          	li	a3,4
    1450:	a2d708e3          	beq	a4,a3,e80 <__divdf3+0x280>
    1454:	fe1ff06f          	j	1434 <__divdf3+0x834>
    1458:	00d12623          	sw	a3,12(sp)
    145c:	cadff06f          	j	1108 <__divdf3+0x508>
    1460:	00078d13          	mv	s10,a5
    1464:	d05ff06f          	j	1168 <__divdf3+0x568>
    1468:	00090a13          	mv	s4,s2
    146c:	7ff00793          	li	a5,2047
    1470:	00000693          	li	a3,0
    1474:	00000713          	li	a4,0
    1478:	8fdff06f          	j	d74 <__divdf3+0x174>
    147c:	001a9613          	sll	a2,s5,0x1
    1480:	015636b3          	sltu	a3,a2,s5
    1484:	019686b3          	add	a3,a3,s9
    1488:	00d486b3          	add	a3,s1,a3
    148c:	ffe80813          	add	a6,a6,-2
    1490:	00060a93          	mv	s5,a2
    1494:	f4e688e3          	beq	a3,a4,13e4 <__divdf3+0x7e4>
    1498:	d69ff06f          	j	1200 <__divdf3+0x600>
    149c:	fefae0e3          	bltu	s5,a5,147c <__divdf3+0x87c>
    14a0:	00060813          	mv	a6,a2
    14a4:	f41ff06f          	j	13e4 <__divdf3+0x7e4>

000014a8 <__eqdf2>:
    14a8:	0145d713          	srl	a4,a1,0x14
    14ac:	001007b7          	lui	a5,0x100
    14b0:	fff78793          	add	a5,a5,-1 # fffff <IMEM_SIZE+0xebfff>
    14b4:	0146d813          	srl	a6,a3,0x14
    14b8:	7ff77713          	and	a4,a4,2047
    14bc:	7ff00313          	li	t1,2047
    14c0:	00b7fe33          	and	t3,a5,a1
    14c4:	00050893          	mv	a7,a0
    14c8:	00d7f7b3          	and	a5,a5,a3
    14cc:	01f5d593          	srl	a1,a1,0x1f
    14d0:	7ff87813          	and	a6,a6,2047
    14d4:	01f6d693          	srl	a3,a3,0x1f
    14d8:	00100513          	li	a0,1
    14dc:	00670c63          	beq	a4,t1,14f4 <__eqdf2+0x4c>
    14e0:	00680863          	beq	a6,t1,14f0 <__eqdf2+0x48>
    14e4:	01071463          	bne	a4,a6,14ec <__eqdf2+0x44>
    14e8:	02fe0663          	beq	t3,a5,1514 <__eqdf2+0x6c>
    14ec:	00008067          	ret
    14f0:	00008067          	ret
    14f4:	fee81ce3          	bne	a6,a4,14ec <__eqdf2+0x44>
    14f8:	00fe67b3          	or	a5,t3,a5
    14fc:	00c7e7b3          	or	a5,a5,a2
    1500:	0117e7b3          	or	a5,a5,a7
    1504:	fe0794e3          	bnez	a5,14ec <__eqdf2+0x44>
    1508:	40d585b3          	sub	a1,a1,a3
    150c:	00b03533          	snez	a0,a1
    1510:	00008067          	ret
    1514:	fcc89ce3          	bne	a7,a2,14ec <__eqdf2+0x44>
    1518:	00d58a63          	beq	a1,a3,152c <__eqdf2+0x84>
    151c:	fc0718e3          	bnez	a4,14ec <__eqdf2+0x44>
    1520:	011e6e33          	or	t3,t3,a7
    1524:	01c03533          	snez	a0,t3
    1528:	00008067          	ret
    152c:	00000513          	li	a0,0
    1530:	00008067          	ret

00001534 <__gedf2>:
    1534:	0145d893          	srl	a7,a1,0x14
    1538:	001007b7          	lui	a5,0x100
    153c:	fff78793          	add	a5,a5,-1 # fffff <IMEM_SIZE+0xebfff>
    1540:	0146d713          	srl	a4,a3,0x14
    1544:	7ff8f893          	and	a7,a7,2047
    1548:	7ff00e13          	li	t3,2047
    154c:	00b7f333          	and	t1,a5,a1
    1550:	00050813          	mv	a6,a0
    1554:	00050e93          	mv	t4,a0
    1558:	00d7f7b3          	and	a5,a5,a3
    155c:	01f5d593          	srl	a1,a1,0x1f
    1560:	00060f13          	mv	t5,a2
    1564:	7ff77513          	and	a0,a4,2047
    1568:	01f6d693          	srl	a3,a3,0x1f
    156c:	05c88863          	beq	a7,t3,15bc <__gedf2+0x88>
    1570:	03c50463          	beq	a0,t3,1598 <__gedf2+0x64>
    1574:	06089a63          	bnez	a7,15e8 <__gedf2+0xb4>
    1578:	01036833          	or	a6,t1,a6
    157c:	06051063          	bnez	a0,15dc <__gedf2+0xa8>
    1580:	00c7e633          	or	a2,a5,a2
    1584:	08060c63          	beqz	a2,161c <__gedf2+0xe8>
    1588:	0a081263          	bnez	a6,162c <__gedf2+0xf8>
    158c:	00100513          	li	a0,1
    1590:	08068263          	beqz	a3,1614 <__gedf2+0xe0>
    1594:	00008067          	ret
    1598:	00c7e633          	or	a2,a5,a2
    159c:	08061463          	bnez	a2,1624 <__gedf2+0xf0>
    15a0:	00089663          	bnez	a7,15ac <__gedf2+0x78>
    15a4:	01036333          	or	t1,t1,a6
    15a8:	fe0302e3          	beqz	t1,158c <__gedf2+0x58>
    15ac:	06d58063          	beq	a1,a3,160c <__gedf2+0xd8>
    15b0:	06059263          	bnez	a1,1614 <__gedf2+0xe0>
    15b4:	00100513          	li	a0,1
    15b8:	00008067          	ret
    15bc:	01036333          	or	t1,t1,a6
    15c0:	06031263          	bnez	t1,1624 <__gedf2+0xf0>
    15c4:	ff1516e3          	bne	a0,a7,15b0 <__gedf2+0x7c>
    15c8:	00c7e7b3          	or	a5,a5,a2
    15cc:	04079c63          	bnez	a5,1624 <__gedf2+0xf0>
    15d0:	fed590e3          	bne	a1,a3,15b0 <__gedf2+0x7c>
    15d4:	00000513          	li	a0,0
    15d8:	00008067          	ret
    15dc:	fa0808e3          	beqz	a6,158c <__gedf2+0x58>
    15e0:	fcd598e3          	bne	a1,a3,15b0 <__gedf2+0x7c>
    15e4:	0280006f          	j	160c <__gedf2+0xd8>
    15e8:	fc0504e3          	beqz	a0,15b0 <__gedf2+0x7c>
    15ec:	fcd592e3          	bne	a1,a3,15b0 <__gedf2+0x7c>
    15f0:	fd1540e3          	blt	a0,a7,15b0 <__gedf2+0x7c>
    15f4:	00a8cc63          	blt	a7,a0,160c <__gedf2+0xd8>
    15f8:	fa67ece3          	bltu	a5,t1,15b0 <__gedf2+0x7c>
    15fc:	00f31863          	bne	t1,a5,160c <__gedf2+0xd8>
    1600:	fbdf68e3          	bltu	t5,t4,15b0 <__gedf2+0x7c>
    1604:	00000513          	li	a0,0
    1608:	f9eef6e3          	bgeu	t4,t5,1594 <__gedf2+0x60>
    160c:	00100513          	li	a0,1
    1610:	f80592e3          	bnez	a1,1594 <__gedf2+0x60>
    1614:	fff00513          	li	a0,-1
    1618:	00008067          	ret
    161c:	f8081ae3          	bnez	a6,15b0 <__gedf2+0x7c>
    1620:	00008067          	ret
    1624:	ffe00513          	li	a0,-2
    1628:	00008067          	ret
    162c:	fcd586e3          	beq	a1,a3,15f8 <__gedf2+0xc4>
    1630:	f81ff06f          	j	15b0 <__gedf2+0x7c>

00001634 <__ledf2>:
    1634:	0145d893          	srl	a7,a1,0x14
    1638:	001007b7          	lui	a5,0x100
    163c:	fff78793          	add	a5,a5,-1 # fffff <IMEM_SIZE+0xebfff>
    1640:	0146d713          	srl	a4,a3,0x14
    1644:	7ff8f893          	and	a7,a7,2047
    1648:	7ff00313          	li	t1,2047
    164c:	00b7fe33          	and	t3,a5,a1
    1650:	00050813          	mv	a6,a0
    1654:	00050e93          	mv	t4,a0
    1658:	00d7f7b3          	and	a5,a5,a3
    165c:	01f5d593          	srl	a1,a1,0x1f
    1660:	00060f13          	mv	t5,a2
    1664:	7ff77513          	and	a0,a4,2047
    1668:	01f6d693          	srl	a3,a3,0x1f
    166c:	04688a63          	beq	a7,t1,16c0 <__ledf2+0x8c>
    1670:	02650463          	beq	a0,t1,1698 <__ledf2+0x64>
    1674:	06089863          	bnez	a7,16e4 <__ledf2+0xb0>
    1678:	010e6833          	or	a6,t3,a6
    167c:	08051e63          	bnez	a0,1718 <__ledf2+0xe4>
    1680:	00c7e633          	or	a2,a5,a2
    1684:	0a060463          	beqz	a2,172c <__ledf2+0xf8>
    1688:	0a081663          	bnez	a6,1734 <__ledf2+0x100>
    168c:	00100513          	li	a0,1
    1690:	08068063          	beqz	a3,1710 <__ledf2+0xdc>
    1694:	00008067          	ret
    1698:	00c7e633          	or	a2,a5,a2
    169c:	00200513          	li	a0,2
    16a0:	fe061ae3          	bnez	a2,1694 <__ledf2+0x60>
    16a4:	00089663          	bnez	a7,16b0 <__ledf2+0x7c>
    16a8:	010e6e33          	or	t3,t3,a6
    16ac:	fe0e00e3          	beqz	t3,168c <__ledf2+0x58>
    16b0:	04d58c63          	beq	a1,a3,1708 <__ledf2+0xd4>
    16b4:	04059e63          	bnez	a1,1710 <__ledf2+0xdc>
    16b8:	00100513          	li	a0,1
    16bc:	00008067          	ret
    16c0:	010e6e33          	or	t3,t3,a6
    16c4:	060e1063          	bnez	t3,1724 <__ledf2+0xf0>
    16c8:	ff1516e3          	bne	a0,a7,16b4 <__ledf2+0x80>
    16cc:	00c7e7b3          	or	a5,a5,a2
    16d0:	00200513          	li	a0,2
    16d4:	fc0790e3          	bnez	a5,1694 <__ledf2+0x60>
    16d8:	fcd59ee3          	bne	a1,a3,16b4 <__ledf2+0x80>
    16dc:	00000513          	li	a0,0
    16e0:	00008067          	ret
    16e4:	fc0508e3          	beqz	a0,16b4 <__ledf2+0x80>
    16e8:	fcd596e3          	bne	a1,a3,16b4 <__ledf2+0x80>
    16ec:	fd1544e3          	blt	a0,a7,16b4 <__ledf2+0x80>
    16f0:	00a8cc63          	blt	a7,a0,1708 <__ledf2+0xd4>
    16f4:	fdc7e0e3          	bltu	a5,t3,16b4 <__ledf2+0x80>
    16f8:	00fe1863          	bne	t3,a5,1708 <__ledf2+0xd4>
    16fc:	fbdf6ce3          	bltu	t5,t4,16b4 <__ledf2+0x80>
    1700:	00000513          	li	a0,0
    1704:	f9eef8e3          	bgeu	t4,t5,1694 <__ledf2+0x60>
    1708:	00100513          	li	a0,1
    170c:	f80594e3          	bnez	a1,1694 <__ledf2+0x60>
    1710:	fff00513          	li	a0,-1
    1714:	00008067          	ret
    1718:	f6080ae3          	beqz	a6,168c <__ledf2+0x58>
    171c:	f8d59ce3          	bne	a1,a3,16b4 <__ledf2+0x80>
    1720:	fe9ff06f          	j	1708 <__ledf2+0xd4>
    1724:	00200513          	li	a0,2
    1728:	00008067          	ret
    172c:	f80814e3          	bnez	a6,16b4 <__ledf2+0x80>
    1730:	00008067          	ret
    1734:	fcd580e3          	beq	a1,a3,16f4 <__ledf2+0xc0>
    1738:	f7dff06f          	j	16b4 <__ledf2+0x80>

0000173c <__muldf3>:
    173c:	fd010113          	add	sp,sp,-48
    1740:	0145d793          	srl	a5,a1,0x14
    1744:	02812423          	sw	s0,40(sp)
    1748:	02912223          	sw	s1,36(sp)
    174c:	03212023          	sw	s2,32(sp)
    1750:	01312e23          	sw	s3,28(sp)
    1754:	01512a23          	sw	s5,20(sp)
    1758:	00c59493          	sll	s1,a1,0xc
    175c:	02112623          	sw	ra,44(sp)
    1760:	01412c23          	sw	s4,24(sp)
    1764:	01612823          	sw	s6,16(sp)
    1768:	01712623          	sw	s7,12(sp)
    176c:	01812423          	sw	s8,8(sp)
    1770:	7ff7f793          	and	a5,a5,2047
    1774:	00050413          	mv	s0,a0
    1778:	00060a93          	mv	s5,a2
    177c:	00068993          	mv	s3,a3
    1780:	00c4d493          	srl	s1,s1,0xc
    1784:	01f5d913          	srl	s2,a1,0x1f
    1788:	4e078063          	beqz	a5,1c68 <__muldf3+0x52c>
    178c:	7ff00713          	li	a4,2047
    1790:	0ae78663          	beq	a5,a4,183c <__muldf3+0x100>
    1794:	00349693          	sll	a3,s1,0x3
    1798:	01d55713          	srl	a4,a0,0x1d
    179c:	00d76733          	or	a4,a4,a3
    17a0:	008006b7          	lui	a3,0x800
    17a4:	00d764b3          	or	s1,a4,a3
    17a8:	00351a13          	sll	s4,a0,0x3
    17ac:	c0178c13          	add	s8,a5,-1023
    17b0:	00000b13          	li	s6,0
    17b4:	00000b93          	li	s7,0
    17b8:	0149d793          	srl	a5,s3,0x14
    17bc:	00c99713          	sll	a4,s3,0xc
    17c0:	7ff7f793          	and	a5,a5,2047
    17c4:	000a8e13          	mv	t3,s5
    17c8:	00c75413          	srl	s0,a4,0xc
    17cc:	01f9d993          	srl	s3,s3,0x1f
    17d0:	0a078063          	beqz	a5,1870 <__muldf3+0x134>
    17d4:	7ff00713          	li	a4,2047
    17d8:	14e78e63          	beq	a5,a4,1934 <__muldf3+0x1f8>
    17dc:	00341713          	sll	a4,s0,0x3
    17e0:	01dad693          	srl	a3,s5,0x1d
    17e4:	00e6e6b3          	or	a3,a3,a4
    17e8:	c0178793          	add	a5,a5,-1023
    17ec:	00800737          	lui	a4,0x800
    17f0:	00e6e433          	or	s0,a3,a4
    17f4:	003a9e13          	sll	t3,s5,0x3
    17f8:	01878333          	add	t1,a5,s8
    17fc:	00000693          	li	a3,0
    1800:	00a00793          	li	a5,10
    1804:	00130893          	add	a7,t1,1
    1808:	0b67cc63          	blt	a5,s6,18c0 <__muldf3+0x184>
    180c:	013945b3          	xor	a1,s2,s3
    1810:	00200793          	li	a5,2
    1814:	00058813          	mv	a6,a1
    1818:	1567c663          	blt	a5,s6,1964 <__muldf3+0x228>
    181c:	fffb0b13          	add	s6,s6,-1
    1820:	00100713          	li	a4,1
    1824:	17676063          	bltu	a4,s6,1984 <__muldf3+0x248>
    1828:	48f68663          	beq	a3,a5,1cb4 <__muldf3+0x578>
    182c:	00040493          	mv	s1,s0
    1830:	000e0a13          	mv	s4,t3
    1834:	00068b93          	mv	s7,a3
    1838:	09c0006f          	j	18d4 <__muldf3+0x198>
    183c:	00a4ea33          	or	s4,s1,a0
    1840:	480a1463          	bnez	s4,1cc8 <__muldf3+0x58c>
    1844:	0149d793          	srl	a5,s3,0x14
    1848:	00c99713          	sll	a4,s3,0xc
    184c:	7ff7f793          	and	a5,a5,2047
    1850:	00000493          	li	s1,0
    1854:	00800b13          	li	s6,8
    1858:	7ff00c13          	li	s8,2047
    185c:	00200b93          	li	s7,2
    1860:	000a8e13          	mv	t3,s5
    1864:	00c75413          	srl	s0,a4,0xc
    1868:	01f9d993          	srl	s3,s3,0x1f
    186c:	f60794e3          	bnez	a5,17d4 <__muldf3+0x98>
    1870:	015467b3          	or	a5,s0,s5
    1874:	46078e63          	beqz	a5,1cf0 <__muldf3+0x5b4>
    1878:	54040c63          	beqz	s0,1dd0 <__muldf3+0x694>
    187c:	00040513          	mv	a0,s0
    1880:	6cc010ef          	jal	2f4c <__clzsi2>
    1884:	00050313          	mv	t1,a0
    1888:	ff550713          	add	a4,a0,-11
    188c:	01d00793          	li	a5,29
    1890:	ff830e13          	add	t3,t1,-8
    1894:	40e787b3          	sub	a5,a5,a4
    1898:	00fad7b3          	srl	a5,s5,a5
    189c:	01c41733          	sll	a4,s0,t3
    18a0:	00e7e433          	or	s0,a5,a4
    18a4:	01ca9e33          	sll	t3,s5,t3
    18a8:	406c0333          	sub	t1,s8,t1
    18ac:	c0d30313          	add	t1,t1,-1011
    18b0:	00a00793          	li	a5,10
    18b4:	00000693          	li	a3,0
    18b8:	00130893          	add	a7,t1,1
    18bc:	f567d8e3          	bge	a5,s6,180c <__muldf3+0xd0>
    18c0:	00090593          	mv	a1,s2
    18c4:	00200793          	li	a5,2
    18c8:	3efb8663          	beq	s7,a5,1cb4 <__muldf3+0x578>
    18cc:	00300793          	li	a5,3
    18d0:	54fb8863          	beq	s7,a5,1e20 <__muldf3+0x6e4>
    18d4:	00100793          	li	a5,1
    18d8:	00058813          	mv	a6,a1
    18dc:	52fb9663          	bne	s7,a5,1e08 <__muldf3+0x6cc>
    18e0:	00000793          	li	a5,0
    18e4:	00000693          	li	a3,0
    18e8:	00000713          	li	a4,0
    18ec:	02c12083          	lw	ra,44(sp)
    18f0:	02812403          	lw	s0,40(sp)
    18f4:	01479793          	sll	a5,a5,0x14
    18f8:	00d7e7b3          	or	a5,a5,a3
    18fc:	01f81813          	sll	a6,a6,0x1f
    1900:	0107e7b3          	or	a5,a5,a6
    1904:	02412483          	lw	s1,36(sp)
    1908:	02012903          	lw	s2,32(sp)
    190c:	01c12983          	lw	s3,28(sp)
    1910:	01812a03          	lw	s4,24(sp)
    1914:	01412a83          	lw	s5,20(sp)
    1918:	01012b03          	lw	s6,16(sp)
    191c:	00c12b83          	lw	s7,12(sp)
    1920:	00812c03          	lw	s8,8(sp)
    1924:	00070513          	mv	a0,a4
    1928:	00078593          	mv	a1,a5
    192c:	03010113          	add	sp,sp,48
    1930:	00008067          	ret
    1934:	01546733          	or	a4,s0,s5
    1938:	7ffc0313          	add	t1,s8,2047
    193c:	3c070663          	beqz	a4,1d08 <__muldf3+0x5cc>
    1940:	00001737          	lui	a4,0x1
    1944:	01394833          	xor	a6,s2,s3
    1948:	80070713          	add	a4,a4,-2048 # 800 <STACK_SIZE+0x400>
    194c:	003b6b13          	or	s6,s6,3
    1950:	00a00693          	li	a3,10
    1954:	00080593          	mv	a1,a6
    1958:	00ec08b3          	add	a7,s8,a4
    195c:	4366cc63          	blt	a3,s6,1d94 <__muldf3+0x658>
    1960:	00300693          	li	a3,3
    1964:	00100613          	li	a2,1
    1968:	01661633          	sll	a2,a2,s6
    196c:	53067713          	and	a4,a2,1328
    1970:	f4071ae3          	bnez	a4,18c4 <__muldf3+0x188>
    1974:	24067793          	and	a5,a2,576
    1978:	48079063          	bnez	a5,1df8 <__muldf3+0x6bc>
    197c:	08867613          	and	a2,a2,136
    1980:	38061e63          	bnez	a2,1d1c <__muldf3+0x5e0>
    1984:	00010fb7          	lui	t6,0x10
    1988:	ffff8293          	add	t0,t6,-1 # ffff <DMEM_TOTAL_SIZE+0x7fff>
    198c:	005a7f33          	and	t5,s4,t0
    1990:	005e72b3          	and	t0,t3,t0
    1994:	010a5a13          	srl	s4,s4,0x10
    1998:	010e5e13          	srl	t3,t3,0x10
    199c:	000f0513          	mv	a0,t5
    19a0:	00028593          	mv	a1,t0
    19a4:	4d0010ef          	jal	2e74 <__mulsi3>
    19a8:	00050713          	mv	a4,a0
    19ac:	000e0593          	mv	a1,t3
    19b0:	000f0513          	mv	a0,t5
    19b4:	4c0010ef          	jal	2e74 <__mulsi3>
    19b8:	00050793          	mv	a5,a0
    19bc:	00028593          	mv	a1,t0
    19c0:	000a0513          	mv	a0,s4
    19c4:	4b0010ef          	jal	2e74 <__mulsi3>
    19c8:	00050e93          	mv	t4,a0
    19cc:	000e0593          	mv	a1,t3
    19d0:	000a0513          	mv	a0,s4
    19d4:	4a0010ef          	jal	2e74 <__mulsi3>
    19d8:	01d786b3          	add	a3,a5,t4
    19dc:	01075393          	srl	t2,a4,0x10
    19e0:	00d383b3          	add	t2,t2,a3
    19e4:	00050793          	mv	a5,a0
    19e8:	01d3f463          	bgeu	t2,t4,19f0 <__muldf3+0x2b4>
    19ec:	01f507b3          	add	a5,a0,t6
    19f0:	000109b7          	lui	s3,0x10
    19f4:	fff98913          	add	s2,s3,-1 # ffff <DMEM_TOTAL_SIZE+0x7fff>
    19f8:	0123feb3          	and	t4,t2,s2
    19fc:	01277733          	and	a4,a4,s2
    1a00:	010e9e93          	sll	t4,t4,0x10
    1a04:	01247933          	and	s2,s0,s2
    1a08:	0103d393          	srl	t2,t2,0x10
    1a0c:	00ee8eb3          	add	t4,t4,a4
    1a10:	01045413          	srl	s0,s0,0x10
    1a14:	000f0513          	mv	a0,t5
    1a18:	00090593          	mv	a1,s2
    1a1c:	458010ef          	jal	2e74 <__mulsi3>
    1a20:	00050f93          	mv	t6,a0
    1a24:	00040593          	mv	a1,s0
    1a28:	000f0513          	mv	a0,t5
    1a2c:	448010ef          	jal	2e74 <__mulsi3>
    1a30:	00050713          	mv	a4,a0
    1a34:	00090593          	mv	a1,s2
    1a38:	000a0513          	mv	a0,s4
    1a3c:	438010ef          	jal	2e74 <__mulsi3>
    1a40:	00050f13          	mv	t5,a0
    1a44:	00040593          	mv	a1,s0
    1a48:	000a0513          	mv	a0,s4
    1a4c:	428010ef          	jal	2e74 <__mulsi3>
    1a50:	010fd693          	srl	a3,t6,0x10
    1a54:	01e70733          	add	a4,a4,t5
    1a58:	00e686b3          	add	a3,a3,a4
    1a5c:	01e6f463          	bgeu	a3,t5,1a64 <__muldf3+0x328>
    1a60:	01350533          	add	a0,a0,s3
    1a64:	00010a37          	lui	s4,0x10
    1a68:	fffa0f13          	add	t5,s4,-1 # ffff <DMEM_TOTAL_SIZE+0x7fff>
    1a6c:	01e6f733          	and	a4,a3,t5
    1a70:	01efffb3          	and	t6,t6,t5
    1a74:	01071713          	sll	a4,a4,0x10
    1a78:	01f70733          	add	a4,a4,t6
    1a7c:	01e4ff33          	and	t5,s1,t5
    1a80:	0106d693          	srl	a3,a3,0x10
    1a84:	00a68fb3          	add	t6,a3,a0
    1a88:	00e383b3          	add	t2,t2,a4
    1a8c:	0104d493          	srl	s1,s1,0x10
    1a90:	000f0513          	mv	a0,t5
    1a94:	00028593          	mv	a1,t0
    1a98:	3dc010ef          	jal	2e74 <__mulsi3>
    1a9c:	00050a93          	mv	s5,a0
    1aa0:	000e0593          	mv	a1,t3
    1aa4:	000f0513          	mv	a0,t5
    1aa8:	3cc010ef          	jal	2e74 <__mulsi3>
    1aac:	00050993          	mv	s3,a0
    1ab0:	00028593          	mv	a1,t0
    1ab4:	00048513          	mv	a0,s1
    1ab8:	3bc010ef          	jal	2e74 <__mulsi3>
    1abc:	00050293          	mv	t0,a0
    1ac0:	000e0593          	mv	a1,t3
    1ac4:	00048513          	mv	a0,s1
    1ac8:	3ac010ef          	jal	2e74 <__mulsi3>
    1acc:	010ad613          	srl	a2,s5,0x10
    1ad0:	005989b3          	add	s3,s3,t0
    1ad4:	01360633          	add	a2,a2,s3
    1ad8:	00567463          	bgeu	a2,t0,1ae0 <__muldf3+0x3a4>
    1adc:	01450533          	add	a0,a0,s4
    1ae0:	00010a37          	lui	s4,0x10
    1ae4:	fffa0693          	add	a3,s4,-1 # ffff <DMEM_TOTAL_SIZE+0x7fff>
    1ae8:	00d672b3          	and	t0,a2,a3
    1aec:	00dafab3          	and	s5,s5,a3
    1af0:	01065613          	srl	a2,a2,0x10
    1af4:	01029293          	sll	t0,t0,0x10
    1af8:	00a60e33          	add	t3,a2,a0
    1afc:	015282b3          	add	t0,t0,s5
    1b00:	000f0513          	mv	a0,t5
    1b04:	00090593          	mv	a1,s2
    1b08:	36c010ef          	jal	2e74 <__mulsi3>
    1b0c:	00050993          	mv	s3,a0
    1b10:	00040593          	mv	a1,s0
    1b14:	000f0513          	mv	a0,t5
    1b18:	35c010ef          	jal	2e74 <__mulsi3>
    1b1c:	00050f13          	mv	t5,a0
    1b20:	00090593          	mv	a1,s2
    1b24:	00048513          	mv	a0,s1
    1b28:	34c010ef          	jal	2e74 <__mulsi3>
    1b2c:	00050913          	mv	s2,a0
    1b30:	00040593          	mv	a1,s0
    1b34:	00048513          	mv	a0,s1
    1b38:	33c010ef          	jal	2e74 <__mulsi3>
    1b3c:	012f06b3          	add	a3,t5,s2
    1b40:	0109d593          	srl	a1,s3,0x10
    1b44:	00d58433          	add	s0,a1,a3
    1b48:	00050f13          	mv	t5,a0
    1b4c:	01247463          	bgeu	s0,s2,1b54 <__muldf3+0x418>
    1b50:	01450f33          	add	t5,a0,s4
    1b54:	00010637          	lui	a2,0x10
    1b58:	fff60613          	add	a2,a2,-1 # ffff <DMEM_TOTAL_SIZE+0x7fff>
    1b5c:	00c476b3          	and	a3,s0,a2
    1b60:	00c9f9b3          	and	s3,s3,a2
    1b64:	01069693          	sll	a3,a3,0x10
    1b68:	007787b3          	add	a5,a5,t2
    1b6c:	013686b3          	add	a3,a3,s3
    1b70:	01f685b3          	add	a1,a3,t6
    1b74:	00e7b733          	sltu	a4,a5,a4
    1b78:	00e58733          	add	a4,a1,a4
    1b7c:	005782b3          	add	t0,a5,t0
    1b80:	01c70633          	add	a2,a4,t3
    1b84:	00f2b7b3          	sltu	a5,t0,a5
    1b88:	00f607b3          	add	a5,a2,a5
    1b8c:	00d5b6b3          	sltu	a3,a1,a3
    1b90:	00b735b3          	sltu	a1,a4,a1
    1b94:	00b6e6b3          	or	a3,a3,a1
    1b98:	00e63733          	sltu	a4,a2,a4
    1b9c:	01045593          	srl	a1,s0,0x10
    1ba0:	00c7b633          	sltu	a2,a5,a2
    1ba4:	00b686b3          	add	a3,a3,a1
    1ba8:	00929a13          	sll	s4,t0,0x9
    1bac:	00c76733          	or	a4,a4,a2
    1bb0:	00d70733          	add	a4,a4,a3
    1bb4:	01da6a33          	or	s4,s4,t4
    1bb8:	01e70733          	add	a4,a4,t5
    1bbc:	01403a33          	snez	s4,s4
    1bc0:	0172d293          	srl	t0,t0,0x17
    1bc4:	00971713          	sll	a4,a4,0x9
    1bc8:	0177d693          	srl	a3,a5,0x17
    1bcc:	005a6a33          	or	s4,s4,t0
    1bd0:	00979793          	sll	a5,a5,0x9
    1bd4:	00fa6a33          	or	s4,s4,a5
    1bd8:	00771793          	sll	a5,a4,0x7
    1bdc:	00d764b3          	or	s1,a4,a3
    1be0:	0207d063          	bgez	a5,1c00 <__muldf3+0x4c4>
    1be4:	001a5793          	srl	a5,s4,0x1
    1be8:	001a7a13          	and	s4,s4,1
    1bec:	01f49713          	sll	a4,s1,0x1f
    1bf0:	0147e7b3          	or	a5,a5,s4
    1bf4:	00e7ea33          	or	s4,a5,a4
    1bf8:	0014d493          	srl	s1,s1,0x1
    1bfc:	00088313          	mv	t1,a7
    1c00:	3ff30793          	add	a5,t1,1023
    1c04:	12f05663          	blez	a5,1d30 <__muldf3+0x5f4>
    1c08:	007a7713          	and	a4,s4,7
    1c0c:	02070063          	beqz	a4,1c2c <__muldf3+0x4f0>
    1c10:	00fa7713          	and	a4,s4,15
    1c14:	00400693          	li	a3,4
    1c18:	00d70a63          	beq	a4,a3,1c2c <__muldf3+0x4f0>
    1c1c:	004a0713          	add	a4,s4,4
    1c20:	01473a33          	sltu	s4,a4,s4
    1c24:	014484b3          	add	s1,s1,s4
    1c28:	00070a13          	mv	s4,a4
    1c2c:	00749713          	sll	a4,s1,0x7
    1c30:	00075a63          	bgez	a4,1c44 <__muldf3+0x508>
    1c34:	ff0007b7          	lui	a5,0xff000
    1c38:	fff78793          	add	a5,a5,-1 # feffffff <MTSSV_BASE+0xfeef8007>
    1c3c:	00f4f4b3          	and	s1,s1,a5
    1c40:	40030793          	add	a5,t1,1024
    1c44:	7fe00713          	li	a4,2046
    1c48:	1cf74463          	blt	a4,a5,1e10 <__muldf3+0x6d4>
    1c4c:	003a5a13          	srl	s4,s4,0x3
    1c50:	01d49713          	sll	a4,s1,0x1d
    1c54:	00949693          	sll	a3,s1,0x9
    1c58:	01476733          	or	a4,a4,s4
    1c5c:	00c6d693          	srl	a3,a3,0xc
    1c60:	7ff7f793          	and	a5,a5,2047
    1c64:	c89ff06f          	j	18ec <__muldf3+0x1b0>
    1c68:	00a4ea33          	or	s4,s1,a0
    1c6c:	060a0863          	beqz	s4,1cdc <__muldf3+0x5a0>
    1c70:	12048e63          	beqz	s1,1dac <__muldf3+0x670>
    1c74:	00048513          	mv	a0,s1
    1c78:	2d4010ef          	jal	2f4c <__clzsi2>
    1c7c:	00050713          	mv	a4,a0
    1c80:	ff550693          	add	a3,a0,-11
    1c84:	01d00793          	li	a5,29
    1c88:	ff870a13          	add	s4,a4,-8
    1c8c:	40d787b3          	sub	a5,a5,a3
    1c90:	00f457b3          	srl	a5,s0,a5
    1c94:	014496b3          	sll	a3,s1,s4
    1c98:	00d7e4b3          	or	s1,a5,a3
    1c9c:	01441a33          	sll	s4,s0,s4
    1ca0:	c0d00793          	li	a5,-1011
    1ca4:	40e78c33          	sub	s8,a5,a4
    1ca8:	00000b13          	li	s6,0
    1cac:	00000b93          	li	s7,0
    1cb0:	b09ff06f          	j	17b8 <__muldf3+0x7c>
    1cb4:	00058813          	mv	a6,a1
    1cb8:	7ff00793          	li	a5,2047
    1cbc:	00000693          	li	a3,0
    1cc0:	00000713          	li	a4,0
    1cc4:	c29ff06f          	j	18ec <__muldf3+0x1b0>
    1cc8:	00050a13          	mv	s4,a0
    1ccc:	00c00b13          	li	s6,12
    1cd0:	7ff00c13          	li	s8,2047
    1cd4:	00300b93          	li	s7,3
    1cd8:	ae1ff06f          	j	17b8 <__muldf3+0x7c>
    1cdc:	00000493          	li	s1,0
    1ce0:	00400b13          	li	s6,4
    1ce4:	00000c13          	li	s8,0
    1ce8:	00100b93          	li	s7,1
    1cec:	acdff06f          	j	17b8 <__muldf3+0x7c>
    1cf0:	001b6b13          	or	s6,s6,1
    1cf4:	000c0313          	mv	t1,s8
    1cf8:	00000413          	li	s0,0
    1cfc:	00000e13          	li	t3,0
    1d00:	00100693          	li	a3,1
    1d04:	afdff06f          	j	1800 <__muldf3+0xc4>
    1d08:	002b6b13          	or	s6,s6,2
    1d0c:	00000413          	li	s0,0
    1d10:	00000e13          	li	t3,0
    1d14:	00200693          	li	a3,2
    1d18:	ae9ff06f          	j	1800 <__muldf3+0xc4>
    1d1c:	00040493          	mv	s1,s0
    1d20:	000e0a13          	mv	s4,t3
    1d24:	00068b93          	mv	s7,a3
    1d28:	00098593          	mv	a1,s3
    1d2c:	b99ff06f          	j	18c4 <__muldf3+0x188>
    1d30:	00100713          	li	a4,1
    1d34:	10079063          	bnez	a5,1e34 <__muldf3+0x6f8>
    1d38:	41e30313          	add	t1,t1,1054
    1d3c:	006a1633          	sll	a2,s4,t1
    1d40:	00c03633          	snez	a2,a2
    1d44:	00649333          	sll	t1,s1,t1
    1d48:	00ea5a33          	srl	s4,s4,a4
    1d4c:	00666633          	or	a2,a2,t1
    1d50:	01466633          	or	a2,a2,s4
    1d54:	00767793          	and	a5,a2,7
    1d58:	00e4d5b3          	srl	a1,s1,a4
    1d5c:	02078063          	beqz	a5,1d7c <__muldf3+0x640>
    1d60:	00f67793          	and	a5,a2,15
    1d64:	00400713          	li	a4,4
    1d68:	00e78a63          	beq	a5,a4,1d7c <__muldf3+0x640>
    1d6c:	00460793          	add	a5,a2,4
    1d70:	00c7b633          	sltu	a2,a5,a2
    1d74:	00c585b3          	add	a1,a1,a2
    1d78:	00078613          	mv	a2,a5
    1d7c:	00859513          	sll	a0,a1,0x8
    1d80:	00100793          	li	a5,1
    1d84:	00000693          	li	a3,0
    1d88:	00000713          	li	a4,0
    1d8c:	b60540e3          	bltz	a0,18ec <__muldf3+0x1b0>
    1d90:	10c0006f          	j	1e9c <__muldf3+0x760>
    1d94:	00f00713          	li	a4,15
    1d98:	12eb1063          	bne	s6,a4,1eb8 <__muldf3+0x77c>
    1d9c:	00000813          	li	a6,0
    1da0:	000806b7          	lui	a3,0x80
    1da4:	00000713          	li	a4,0
    1da8:	b45ff06f          	j	18ec <__muldf3+0x1b0>
    1dac:	1a0010ef          	jal	2f4c <__clzsi2>
    1db0:	01550693          	add	a3,a0,21
    1db4:	01c00793          	li	a5,28
    1db8:	02050713          	add	a4,a0,32
    1dbc:	ecd7d4e3          	bge	a5,a3,1c84 <__muldf3+0x548>
    1dc0:	ff850513          	add	a0,a0,-8
    1dc4:	00000a13          	li	s4,0
    1dc8:	00a414b3          	sll	s1,s0,a0
    1dcc:	ed5ff06f          	j	1ca0 <__muldf3+0x564>
    1dd0:	000a8513          	mv	a0,s5
    1dd4:	178010ef          	jal	2f4c <__clzsi2>
    1dd8:	01550713          	add	a4,a0,21
    1ddc:	01c00793          	li	a5,28
    1de0:	02050313          	add	t1,a0,32
    1de4:	aae7d4e3          	bge	a5,a4,188c <__muldf3+0x150>
    1de8:	ff850513          	add	a0,a0,-8
    1dec:	00000e13          	li	t3,0
    1df0:	00aa9433          	sll	s0,s5,a0
    1df4:	ab5ff06f          	j	18a8 <__muldf3+0x16c>
    1df8:	00000813          	li	a6,0
    1dfc:	7ff00793          	li	a5,2047
    1e00:	000806b7          	lui	a3,0x80
    1e04:	ae9ff06f          	j	18ec <__muldf3+0x1b0>
    1e08:	00088313          	mv	t1,a7
    1e0c:	df5ff06f          	j	1c00 <__muldf3+0x4c4>
    1e10:	7ff00793          	li	a5,2047
    1e14:	00000693          	li	a3,0
    1e18:	00000713          	li	a4,0
    1e1c:	ad1ff06f          	j	18ec <__muldf3+0x1b0>
    1e20:	00000813          	li	a6,0
    1e24:	7ff00793          	li	a5,2047
    1e28:	000806b7          	lui	a3,0x80
    1e2c:	00000713          	li	a4,0
    1e30:	abdff06f          	j	18ec <__muldf3+0x1b0>
    1e34:	40f70733          	sub	a4,a4,a5
    1e38:	03800693          	li	a3,56
    1e3c:	aae6c2e3          	blt	a3,a4,18e0 <__muldf3+0x1a4>
    1e40:	01f00693          	li	a3,31
    1e44:	eee6dae3          	bge	a3,a4,1d38 <__muldf3+0x5fc>
    1e48:	fe100693          	li	a3,-31
    1e4c:	40f687b3          	sub	a5,a3,a5
    1e50:	02000693          	li	a3,32
    1e54:	00f4d7b3          	srl	a5,s1,a5
    1e58:	00d70863          	beq	a4,a3,1e68 <__muldf3+0x72c>
    1e5c:	43e30313          	add	t1,t1,1086
    1e60:	00649333          	sll	t1,s1,t1
    1e64:	006a6a33          	or	s4,s4,t1
    1e68:	01403633          	snez	a2,s4
    1e6c:	00f66633          	or	a2,a2,a5
    1e70:	00767713          	and	a4,a2,7
    1e74:	00000693          	li	a3,0
    1e78:	02070863          	beqz	a4,1ea8 <__muldf3+0x76c>
    1e7c:	00f67793          	and	a5,a2,15
    1e80:	00400713          	li	a4,4
    1e84:	00000593          	li	a1,0
    1e88:	00e78a63          	beq	a5,a4,1e9c <__muldf3+0x760>
    1e8c:	00460793          	add	a5,a2,4
    1e90:	00c7b633          	sltu	a2,a5,a2
    1e94:	00c035b3          	snez	a1,a2
    1e98:	00078613          	mv	a2,a5
    1e9c:	00959693          	sll	a3,a1,0x9
    1ea0:	01d59713          	sll	a4,a1,0x1d
    1ea4:	00c6d693          	srl	a3,a3,0xc
    1ea8:	00365613          	srl	a2,a2,0x3
    1eac:	00e66733          	or	a4,a2,a4
    1eb0:	00000793          	li	a5,0
    1eb4:	a39ff06f          	j	18ec <__muldf3+0x1b0>
    1eb8:	00040493          	mv	s1,s0
    1ebc:	000a8a13          	mv	s4,s5
    1ec0:	00300b93          	li	s7,3
    1ec4:	00098593          	mv	a1,s3
    1ec8:	9fdff06f          	j	18c4 <__muldf3+0x188>

00001ecc <__subdf3>:
    1ecc:	001007b7          	lui	a5,0x100
    1ed0:	fff78793          	add	a5,a5,-1 # fffff <IMEM_SIZE+0xebfff>
    1ed4:	fe010113          	add	sp,sp,-32
    1ed8:	00b7f8b3          	and	a7,a5,a1
    1edc:	00d7f833          	and	a6,a5,a3
    1ee0:	0146d793          	srl	a5,a3,0x14
    1ee4:	00389893          	sll	a7,a7,0x3
    1ee8:	00812c23          	sw	s0,24(sp)
    1eec:	01312623          	sw	s3,12(sp)
    1ef0:	01f5d413          	srl	s0,a1,0x1f
    1ef4:	0145d993          	srl	s3,a1,0x14
    1ef8:	01d55713          	srl	a4,a0,0x1d
    1efc:	00381813          	sll	a6,a6,0x3
    1f00:	01d65593          	srl	a1,a2,0x1d
    1f04:	00112e23          	sw	ra,28(sp)
    1f08:	00912a23          	sw	s1,20(sp)
    1f0c:	01212823          	sw	s2,16(sp)
    1f10:	7ff7ff13          	and	t5,a5,2047
    1f14:	7ff00313          	li	t1,2047
    1f18:	01176733          	or	a4,a4,a7
    1f1c:	7ff9f993          	and	s3,s3,2047
    1f20:	00040e13          	mv	t3,s0
    1f24:	00351893          	sll	a7,a0,0x3
    1f28:	01f6d693          	srl	a3,a3,0x1f
    1f2c:	0105e5b3          	or	a1,a1,a6
    1f30:	00361e93          	sll	t4,a2,0x3
    1f34:	206f0c63          	beq	t5,t1,214c <DMEM_SHARED_SIZE+0x14c>
    1f38:	0016c693          	xor	a3,a3,1
    1f3c:	41e987b3          	sub	a5,s3,t5
    1f40:	16d40263          	beq	s0,a3,20a4 <DMEM_SHARED_SIZE+0xa4>
    1f44:	00f05ae3          	blez	a5,2758 <DMEM_SHARED_SIZE+0x758>
    1f48:	240f0a63          	beqz	t5,219c <DMEM_SHARED_SIZE+0x19c>
    1f4c:	3c698463          	beq	s3,t1,2314 <DMEM_SHARED_SIZE+0x314>
    1f50:	03800693          	li	a3,56
    1f54:	00100513          	li	a0,1
    1f58:	02f6ce63          	blt	a3,a5,1f94 <__subdf3+0xc8>
    1f5c:	008006b7          	lui	a3,0x800
    1f60:	00d5e5b3          	or	a1,a1,a3
    1f64:	01f00693          	li	a3,31
    1f68:	4ef6c463          	blt	a3,a5,2450 <DMEM_SHARED_SIZE+0x450>
    1f6c:	02000693          	li	a3,32
    1f70:	40f686b3          	sub	a3,a3,a5
    1f74:	00d59533          	sll	a0,a1,a3
    1f78:	00fed633          	srl	a2,t4,a5
    1f7c:	00de96b3          	sll	a3,t4,a3
    1f80:	00c56533          	or	a0,a0,a2
    1f84:	00d036b3          	snez	a3,a3
    1f88:	00f5d7b3          	srl	a5,a1,a5
    1f8c:	00d56533          	or	a0,a0,a3
    1f90:	40f70733          	sub	a4,a4,a5
    1f94:	40a88533          	sub	a0,a7,a0
    1f98:	00a8b633          	sltu	a2,a7,a0
    1f9c:	00050493          	mv	s1,a0
    1fa0:	40c70933          	sub	s2,a4,a2
    1fa4:	00891793          	sll	a5,s2,0x8
    1fa8:	3407d863          	bgez	a5,22f8 <DMEM_SHARED_SIZE+0x2f8>
    1fac:	008007b7          	lui	a5,0x800
    1fb0:	fff78793          	add	a5,a5,-1 # 7fffff <MTSSV_BASE+0x6f8007>
    1fb4:	00f97933          	and	s2,s2,a5
    1fb8:	2e090663          	beqz	s2,22a4 <DMEM_SHARED_SIZE+0x2a4>
    1fbc:	00090513          	mv	a0,s2
    1fc0:	78d000ef          	jal	2f4c <__clzsi2>
    1fc4:	ff850793          	add	a5,a0,-8
    1fc8:	02000693          	li	a3,32
    1fcc:	40f68733          	sub	a4,a3,a5
    1fd0:	00e4d733          	srl	a4,s1,a4
    1fd4:	00f91933          	sll	s2,s2,a5
    1fd8:	01276733          	or	a4,a4,s2
    1fdc:	00f494b3          	sll	s1,s1,a5
    1fe0:	3f37c463          	blt	a5,s3,23c8 <DMEM_SHARED_SIZE+0x3c8>
    1fe4:	413787b3          	sub	a5,a5,s3
    1fe8:	00178793          	add	a5,a5,1
    1fec:	40f686b3          	sub	a3,a3,a5
    1ff0:	00d49633          	sll	a2,s1,a3
    1ff4:	00f4d933          	srl	s2,s1,a5
    1ff8:	00c03633          	snez	a2,a2
    1ffc:	00c96633          	or	a2,s2,a2
    2000:	00d716b3          	sll	a3,a4,a3
    2004:	00c6e4b3          	or	s1,a3,a2
    2008:	00f75933          	srl	s2,a4,a5
    200c:	00000993          	li	s3,0
    2010:	0074f793          	and	a5,s1,7
    2014:	02078063          	beqz	a5,2034 <DMEM_SHARED_SIZE+0x34>
    2018:	00f4f793          	and	a5,s1,15
    201c:	00400713          	li	a4,4
    2020:	00e78a63          	beq	a5,a4,2034 <DMEM_SHARED_SIZE+0x34>
    2024:	00448793          	add	a5,s1,4
    2028:	0097b533          	sltu	a0,a5,s1
    202c:	00a90933          	add	s2,s2,a0
    2030:	00078493          	mv	s1,a5
    2034:	00891793          	sll	a5,s2,0x8
    2038:	6c07d063          	bgez	a5,26f8 <DMEM_SHARED_SIZE+0x6f8>
    203c:	00198793          	add	a5,s3,1
    2040:	7ff00713          	li	a4,2047
    2044:	24e78663          	beq	a5,a4,2290 <DMEM_SHARED_SIZE+0x290>
    2048:	ff800737          	lui	a4,0xff800
    204c:	fff70713          	add	a4,a4,-1 # ff7fffff <MTSSV_BASE+0xff6f8007>
    2050:	00e97733          	and	a4,s2,a4
    2054:	7ff7f793          	and	a5,a5,2047
    2058:	01d71813          	sll	a6,a4,0x1d
    205c:	0034d513          	srl	a0,s1,0x3
    2060:	00971713          	sll	a4,a4,0x9
    2064:	00a86833          	or	a6,a6,a0
    2068:	00c75713          	srl	a4,a4,0xc
    206c:	00147e13          	and	t3,s0,1
    2070:	01c12083          	lw	ra,28(sp)
    2074:	01812403          	lw	s0,24(sp)
    2078:	01479793          	sll	a5,a5,0x14
    207c:	00e7e7b3          	or	a5,a5,a4
    2080:	01fe1713          	sll	a4,t3,0x1f
    2084:	00e7e7b3          	or	a5,a5,a4
    2088:	01412483          	lw	s1,20(sp)
    208c:	01012903          	lw	s2,16(sp)
    2090:	00c12983          	lw	s3,12(sp)
    2094:	00080513          	mv	a0,a6
    2098:	00078593          	mv	a1,a5
    209c:	02010113          	add	sp,sp,32
    20a0:	00008067          	ret
    20a4:	70f05263          	blez	a5,27a8 <DMEM_SHARED_SIZE+0x7a8>
    20a8:	1c0f1663          	bnez	t5,2274 <DMEM_SHARED_SIZE+0x274>
    20ac:	01d5e6b3          	or	a3,a1,t4
    20b0:	26068e63          	beqz	a3,232c <DMEM_SHARED_SIZE+0x32c>
    20b4:	fff78693          	add	a3,a5,-1
    20b8:	46068863          	beqz	a3,2528 <DMEM_SHARED_SIZE+0x528>
    20bc:	24678c63          	beq	a5,t1,2314 <DMEM_SHARED_SIZE+0x314>
    20c0:	03800793          	li	a5,56
    20c4:	00100913          	li	s2,1
    20c8:	02d7cc63          	blt	a5,a3,2100 <DMEM_SHARED_SIZE+0x100>
    20cc:	00068793          	mv	a5,a3
    20d0:	01f00693          	li	a3,31
    20d4:	48f6ca63          	blt	a3,a5,2568 <DMEM_SHARED_SIZE+0x568>
    20d8:	02000693          	li	a3,32
    20dc:	40f686b3          	sub	a3,a3,a5
    20e0:	00d59933          	sll	s2,a1,a3
    20e4:	00fed633          	srl	a2,t4,a5
    20e8:	00de96b3          	sll	a3,t4,a3
    20ec:	00c96933          	or	s2,s2,a2
    20f0:	00d036b3          	snez	a3,a3
    20f4:	00f5d7b3          	srl	a5,a1,a5
    20f8:	00d96933          	or	s2,s2,a3
    20fc:	00f70733          	add	a4,a4,a5
    2100:	01190633          	add	a2,s2,a7
    2104:	01263933          	sltu	s2,a2,s2
    2108:	00060493          	mv	s1,a2
    210c:	00e90933          	add	s2,s2,a4
    2110:	00891793          	sll	a5,s2,0x8
    2114:	1e07d263          	bgez	a5,22f8 <DMEM_SHARED_SIZE+0x2f8>
    2118:	00198993          	add	s3,s3,1
    211c:	7ff00793          	li	a5,2047
    2120:	16f98863          	beq	s3,a5,2290 <DMEM_SHARED_SIZE+0x290>
    2124:	ff8007b7          	lui	a5,0xff800
    2128:	fff78793          	add	a5,a5,-1 # ff7fffff <MTSSV_BASE+0xff6f8007>
    212c:	0014f513          	and	a0,s1,1
    2130:	00f977b3          	and	a5,s2,a5
    2134:	0014d713          	srl	a4,s1,0x1
    2138:	00a76733          	or	a4,a4,a0
    213c:	01f79513          	sll	a0,a5,0x1f
    2140:	00e564b3          	or	s1,a0,a4
    2144:	0017d913          	srl	s2,a5,0x1
    2148:	ec9ff06f          	j	2010 <DMEM_SHARED_SIZE+0x10>
    214c:	01d5e833          	or	a6,a1,t4
    2150:	80198313          	add	t1,s3,-2047
    2154:	06080863          	beqz	a6,21c4 <DMEM_SHARED_SIZE+0x1c4>
    2158:	06d40a63          	beq	s0,a3,21cc <DMEM_SHARED_SIZE+0x1cc>
    215c:	0e030463          	beqz	t1,2244 <DMEM_SHARED_SIZE+0x244>
    2160:	26098e63          	beqz	s3,23dc <DMEM_SHARED_SIZE+0x3dc>
    2164:	00361513          	sll	a0,a2,0x3
    2168:	00355513          	srl	a0,a0,0x3
    216c:	00068413          	mv	s0,a3
    2170:	00058713          	mv	a4,a1
    2174:	01d71813          	sll	a6,a4,0x1d
    2178:	00a86833          	or	a6,a6,a0
    217c:	00375713          	srl	a4,a4,0x3
    2180:	01076733          	or	a4,a4,a6
    2184:	10070663          	beqz	a4,2290 <DMEM_SHARED_SIZE+0x290>
    2188:	00000e13          	li	t3,0
    218c:	7ff00793          	li	a5,2047
    2190:	00080737          	lui	a4,0x80
    2194:	00000813          	li	a6,0
    2198:	ed9ff06f          	j	2070 <DMEM_SHARED_SIZE+0x70>
    219c:	01d5e6b3          	or	a3,a1,t4
    21a0:	18068663          	beqz	a3,232c <DMEM_SHARED_SIZE+0x32c>
    21a4:	fff78693          	add	a3,a5,-1
    21a8:	3a068263          	beqz	a3,254c <DMEM_SHARED_SIZE+0x54c>
    21ac:	16678463          	beq	a5,t1,2314 <DMEM_SHARED_SIZE+0x314>
    21b0:	03800793          	li	a5,56
    21b4:	00100513          	li	a0,1
    21b8:	dcd7cee3          	blt	a5,a3,1f94 <__subdf3+0xc8>
    21bc:	00068793          	mv	a5,a3
    21c0:	da5ff06f          	j	1f64 <__subdf3+0x98>
    21c4:	0016c693          	xor	a3,a3,1
    21c8:	f8d41ae3          	bne	s0,a3,215c <DMEM_SHARED_SIZE+0x15c>
    21cc:	18030863          	beqz	t1,235c <DMEM_SHARED_SIZE+0x35c>
    21d0:	2c099063          	bnez	s3,2490 <DMEM_SHARED_SIZE+0x490>
    21d4:	7ff00793          	li	a5,2047
    21d8:	011766b3          	or	a3,a4,a7
    21dc:	48068863          	beqz	a3,266c <DMEM_SHARED_SIZE+0x66c>
    21e0:	fff78693          	add	a3,a5,-1
    21e4:	34068263          	beqz	a3,2528 <DMEM_SHARED_SIZE+0x528>
    21e8:	7ff00513          	li	a0,2047
    21ec:	2aa78263          	beq	a5,a0,2490 <DMEM_SHARED_SIZE+0x490>
    21f0:	03800793          	li	a5,56
    21f4:	00100913          	li	s2,1
    21f8:	02d7ca63          	blt	a5,a3,222c <DMEM_SHARED_SIZE+0x22c>
    21fc:	01f00793          	li	a5,31
    2200:	4cd7c663          	blt	a5,a3,26cc <DMEM_SHARED_SIZE+0x6cc>
    2204:	02000793          	li	a5,32
    2208:	40d787b3          	sub	a5,a5,a3
    220c:	00f71933          	sll	s2,a4,a5
    2210:	00d8d633          	srl	a2,a7,a3
    2214:	00f897b3          	sll	a5,a7,a5
    2218:	00c96933          	or	s2,s2,a2
    221c:	00f037b3          	snez	a5,a5
    2220:	00d756b3          	srl	a3,a4,a3
    2224:	00f96933          	or	s2,s2,a5
    2228:	00d585b3          	add	a1,a1,a3
    222c:	01d90733          	add	a4,s2,t4
    2230:	01273933          	sltu	s2,a4,s2
    2234:	00070493          	mv	s1,a4
    2238:	00b90933          	add	s2,s2,a1
    223c:	000f0993          	mv	s3,t5
    2240:	ed1ff06f          	j	2110 <DMEM_SHARED_SIZE+0x110>
    2244:	00198793          	add	a5,s3,1
    2248:	7fe7f793          	and	a5,a5,2046
    224c:	14079463          	bnez	a5,2394 <DMEM_SHARED_SIZE+0x394>
    2250:	01d5e833          	or	a6,a1,t4
    2254:	011767b3          	or	a5,a4,a7
    2258:	2a099463          	bnez	s3,2500 <DMEM_SHARED_SIZE+0x500>
    225c:	38078e63          	beqz	a5,25f8 <DMEM_SHARED_SIZE+0x5f8>
    2260:	3c081063          	bnez	a6,2620 <DMEM_SHARED_SIZE+0x620>
    2264:	00351513          	sll	a0,a0,0x3
    2268:	00355913          	srl	s2,a0,0x3
    226c:	00000793          	li	a5,0
    2270:	1140006f          	j	2384 <DMEM_SHARED_SIZE+0x384>
    2274:	0a698063          	beq	s3,t1,2314 <DMEM_SHARED_SIZE+0x314>
    2278:	03800693          	li	a3,56
    227c:	00100913          	li	s2,1
    2280:	e8f6c0e3          	blt	a3,a5,2100 <DMEM_SHARED_SIZE+0x100>
    2284:	008006b7          	lui	a3,0x800
    2288:	00d5e5b3          	or	a1,a1,a3
    228c:	e45ff06f          	j	20d0 <DMEM_SHARED_SIZE+0xd0>
    2290:	00147e13          	and	t3,s0,1
    2294:	7ff00793          	li	a5,2047
    2298:	00000713          	li	a4,0
    229c:	00000813          	li	a6,0
    22a0:	dd1ff06f          	j	2070 <DMEM_SHARED_SIZE+0x70>
    22a4:	00048513          	mv	a0,s1
    22a8:	4a5000ef          	jal	2f4c <__clzsi2>
    22ac:	01850793          	add	a5,a0,24
    22b0:	01f00693          	li	a3,31
    22b4:	d0f6dae3          	bge	a3,a5,1fc8 <__subdf3+0xfc>
    22b8:	ff850713          	add	a4,a0,-8
    22bc:	00e49733          	sll	a4,s1,a4
    22c0:	1b37ce63          	blt	a5,s3,247c <DMEM_SHARED_SIZE+0x47c>
    22c4:	413789b3          	sub	s3,a5,s3
    22c8:	00198793          	add	a5,s3,1
    22cc:	42f6de63          	bge	a3,a5,2708 <DMEM_SHARED_SIZE+0x708>
    22d0:	fe198993          	add	s3,s3,-31
    22d4:	02000693          	li	a3,32
    22d8:	013754b3          	srl	s1,a4,s3
    22dc:	00d78c63          	beq	a5,a3,22f4 <DMEM_SHARED_SIZE+0x2f4>
    22e0:	04000693          	li	a3,64
    22e4:	40f687b3          	sub	a5,a3,a5
    22e8:	00f71733          	sll	a4,a4,a5
    22ec:	00e03733          	snez	a4,a4
    22f0:	00e4e4b3          	or	s1,s1,a4
    22f4:	00000993          	li	s3,0
    22f8:	0074f793          	and	a5,s1,7
    22fc:	d0079ee3          	bnez	a5,2018 <DMEM_SHARED_SIZE+0x18>
    2300:	00098793          	mv	a5,s3
    2304:	0034d513          	srl	a0,s1,0x3
    2308:	00090713          	mv	a4,s2
    230c:	0280006f          	j	2334 <DMEM_SHARED_SIZE+0x334>
    2310:	e6081ce3          	bnez	a6,2188 <DMEM_SHARED_SIZE+0x188>
    2314:	00351513          	sll	a0,a0,0x3
    2318:	01d71813          	sll	a6,a4,0x1d
    231c:	00355513          	srl	a0,a0,0x3
    2320:	00a86833          	or	a6,a6,a0
    2324:	00375713          	srl	a4,a4,0x3
    2328:	e59ff06f          	j	2180 <DMEM_SHARED_SIZE+0x180>
    232c:	00351513          	sll	a0,a0,0x3
    2330:	00355513          	srl	a0,a0,0x3
    2334:	01d71813          	sll	a6,a4,0x1d
    2338:	7ff00693          	li	a3,2047
    233c:	00a86833          	or	a6,a6,a0
    2340:	00375713          	srl	a4,a4,0x3
    2344:	e2d78ee3          	beq	a5,a3,2180 <DMEM_SHARED_SIZE+0x180>
    2348:	00c71713          	sll	a4,a4,0xc
    234c:	00c75713          	srl	a4,a4,0xc
    2350:	7ff7f793          	and	a5,a5,2047
    2354:	00147e13          	and	t3,s0,1
    2358:	d19ff06f          	j	2070 <DMEM_SHARED_SIZE+0x70>
    235c:	00198693          	add	a3,s3,1
    2360:	7fe6f793          	and	a5,a3,2046
    2364:	12079e63          	bnez	a5,24a0 <DMEM_SHARED_SIZE+0x4a0>
    2368:	011767b3          	or	a5,a4,a7
    236c:	24099a63          	bnez	s3,25c0 <DMEM_SHARED_SIZE+0x5c0>
    2370:	30078663          	beqz	a5,267c <DMEM_SHARED_SIZE+0x67c>
    2374:	01d5e7b3          	or	a5,a1,t4
    2378:	30079a63          	bnez	a5,268c <DMEM_SHARED_SIZE+0x68c>
    237c:	00351513          	sll	a0,a0,0x3
    2380:	00355913          	srl	s2,a0,0x3
    2384:	01d71813          	sll	a6,a4,0x1d
    2388:	01286833          	or	a6,a6,s2
    238c:	00375713          	srl	a4,a4,0x3
    2390:	fb9ff06f          	j	2348 <DMEM_SHARED_SIZE+0x348>
    2394:	41d88833          	sub	a6,a7,t4
    2398:	0108b7b3          	sltu	a5,a7,a6
    239c:	40b70933          	sub	s2,a4,a1
    23a0:	40f90933          	sub	s2,s2,a5
    23a4:	00891793          	sll	a5,s2,0x8
    23a8:	00080493          	mv	s1,a6
    23ac:	1207c263          	bltz	a5,24d0 <DMEM_SHARED_SIZE+0x4d0>
    23b0:	01286833          	or	a6,a6,s2
    23b4:	c00812e3          	bnez	a6,1fb8 <__subdf3+0xec>
    23b8:	00000e13          	li	t3,0
    23bc:	00000793          	li	a5,0
    23c0:	00000713          	li	a4,0
    23c4:	cadff06f          	j	2070 <DMEM_SHARED_SIZE+0x70>
    23c8:	ff800937          	lui	s2,0xff800
    23cc:	fff90913          	add	s2,s2,-1 # ff7fffff <MTSSV_BASE+0xff6f8007>
    23d0:	40f989b3          	sub	s3,s3,a5
    23d4:	01277933          	and	s2,a4,s2
    23d8:	c39ff06f          	j	2010 <DMEM_SHARED_SIZE+0x10>
    23dc:	7ff00793          	li	a5,2047
    23e0:	01176533          	or	a0,a4,a7
    23e4:	10050463          	beqz	a0,24ec <DMEM_SHARED_SIZE+0x4ec>
    23e8:	fff78813          	add	a6,a5,-1
    23ec:	1e080263          	beqz	a6,25d0 <DMEM_SHARED_SIZE+0x5d0>
    23f0:	7ff00513          	li	a0,2047
    23f4:	d6a788e3          	beq	a5,a0,2164 <DMEM_SHARED_SIZE+0x164>
    23f8:	03800793          	li	a5,56
    23fc:	00068413          	mv	s0,a3
    2400:	00100513          	li	a0,1
    2404:	0307ca63          	blt	a5,a6,2438 <DMEM_SHARED_SIZE+0x438>
    2408:	01f00793          	li	a5,31
    240c:	1907c463          	blt	a5,a6,2594 <DMEM_SHARED_SIZE+0x594>
    2410:	02000793          	li	a5,32
    2414:	410787b3          	sub	a5,a5,a6
    2418:	00f71533          	sll	a0,a4,a5
    241c:	0108d6b3          	srl	a3,a7,a6
    2420:	00f897b3          	sll	a5,a7,a5
    2424:	00d56533          	or	a0,a0,a3
    2428:	00f037b3          	snez	a5,a5
    242c:	01075833          	srl	a6,a4,a6
    2430:	00f56533          	or	a0,a0,a5
    2434:	410585b3          	sub	a1,a1,a6
    2438:	40ae8533          	sub	a0,t4,a0
    243c:	00aeb733          	sltu	a4,t4,a0
    2440:	00050493          	mv	s1,a0
    2444:	40e58933          	sub	s2,a1,a4
    2448:	000f0993          	mv	s3,t5
    244c:	b59ff06f          	j	1fa4 <__subdf3+0xd8>
    2450:	fe078693          	add	a3,a5,-32
    2454:	02000613          	li	a2,32
    2458:	00d5d6b3          	srl	a3,a1,a3
    245c:	00c78a63          	beq	a5,a2,2470 <DMEM_SHARED_SIZE+0x470>
    2460:	04000613          	li	a2,64
    2464:	40f607b3          	sub	a5,a2,a5
    2468:	00f597b3          	sll	a5,a1,a5
    246c:	00feeeb3          	or	t4,t4,a5
    2470:	01d03533          	snez	a0,t4
    2474:	00d56533          	or	a0,a0,a3
    2478:	b1dff06f          	j	1f94 <__subdf3+0xc8>
    247c:	ff8006b7          	lui	a3,0xff800
    2480:	fff68693          	add	a3,a3,-1 # ff7fffff <MTSSV_BASE+0xff6f8007>
    2484:	40f987b3          	sub	a5,s3,a5
    2488:	00d77733          	and	a4,a4,a3
    248c:	ef9ff06f          	j	2384 <DMEM_SHARED_SIZE+0x384>
    2490:	00361513          	sll	a0,a2,0x3
    2494:	00355513          	srl	a0,a0,0x3
    2498:	00058713          	mv	a4,a1
    249c:	cd9ff06f          	j	2174 <DMEM_SHARED_SIZE+0x174>
    24a0:	7ff00793          	li	a5,2047
    24a4:	def686e3          	beq	a3,a5,2290 <DMEM_SHARED_SIZE+0x290>
    24a8:	01d88eb3          	add	t4,a7,t4
    24ac:	011eb633          	sltu	a2,t4,a7
    24b0:	00b707b3          	add	a5,a4,a1
    24b4:	00c787b3          	add	a5,a5,a2
    24b8:	01f79513          	sll	a0,a5,0x1f
    24bc:	001ede93          	srl	t4,t4,0x1
    24c0:	01d564b3          	or	s1,a0,t4
    24c4:	0017d913          	srl	s2,a5,0x1
    24c8:	00068993          	mv	s3,a3
    24cc:	b45ff06f          	j	2010 <DMEM_SHARED_SIZE+0x10>
    24d0:	411e8633          	sub	a2,t4,a7
    24d4:	40e587b3          	sub	a5,a1,a4
    24d8:	00ceb733          	sltu	a4,t4,a2
    24dc:	00060493          	mv	s1,a2
    24e0:	40e78933          	sub	s2,a5,a4
    24e4:	00068413          	mv	s0,a3
    24e8:	ad1ff06f          	j	1fb8 <__subdf3+0xec>
    24ec:	00361613          	sll	a2,a2,0x3
    24f0:	00365513          	srl	a0,a2,0x3
    24f4:	00068413          	mv	s0,a3
    24f8:	00058713          	mv	a4,a1
    24fc:	e39ff06f          	j	2334 <DMEM_SHARED_SIZE+0x334>
    2500:	e00798e3          	bnez	a5,2310 <DMEM_SHARED_SIZE+0x310>
    2504:	22080663          	beqz	a6,2730 <DMEM_SHARED_SIZE+0x730>
    2508:	0035d713          	srl	a4,a1,0x3
    250c:	00361613          	sll	a2,a2,0x3
    2510:	01d59593          	sll	a1,a1,0x1d
    2514:	00b76733          	or	a4,a4,a1
    2518:	00365613          	srl	a2,a2,0x3
    251c:	00c76733          	or	a4,a4,a2
    2520:	00068413          	mv	s0,a3
    2524:	c61ff06f          	j	2184 <DMEM_SHARED_SIZE+0x184>
    2528:	01d88eb3          	add	t4,a7,t4
    252c:	00b705b3          	add	a1,a4,a1
    2530:	011eb633          	sltu	a2,t4,a7
    2534:	00c58933          	add	s2,a1,a2
    2538:	00891793          	sll	a5,s2,0x8
    253c:	000e8493          	mv	s1,t4
    2540:	0a07d863          	bgez	a5,25f0 <DMEM_SHARED_SIZE+0x5f0>
    2544:	00200993          	li	s3,2
    2548:	bddff06f          	j	2124 <DMEM_SHARED_SIZE+0x124>
    254c:	41d88eb3          	sub	t4,a7,t4
    2550:	40b705b3          	sub	a1,a4,a1
    2554:	01d8b633          	sltu	a2,a7,t4
    2558:	000e8493          	mv	s1,t4
    255c:	40c58933          	sub	s2,a1,a2
    2560:	00100993          	li	s3,1
    2564:	a41ff06f          	j	1fa4 <__subdf3+0xd8>
    2568:	fe078693          	add	a3,a5,-32
    256c:	02000613          	li	a2,32
    2570:	00d5d6b3          	srl	a3,a1,a3
    2574:	00c78a63          	beq	a5,a2,2588 <DMEM_SHARED_SIZE+0x588>
    2578:	04000613          	li	a2,64
    257c:	40f607b3          	sub	a5,a2,a5
    2580:	00f597b3          	sll	a5,a1,a5
    2584:	00feeeb3          	or	t4,t4,a5
    2588:	01d03933          	snez	s2,t4
    258c:	00d96933          	or	s2,s2,a3
    2590:	b71ff06f          	j	2100 <DMEM_SHARED_SIZE+0x100>
    2594:	fe080793          	add	a5,a6,-32
    2598:	02000693          	li	a3,32
    259c:	00f757b3          	srl	a5,a4,a5
    25a0:	00d80a63          	beq	a6,a3,25b4 <DMEM_SHARED_SIZE+0x5b4>
    25a4:	04000693          	li	a3,64
    25a8:	410686b3          	sub	a3,a3,a6
    25ac:	00d71733          	sll	a4,a4,a3
    25b0:	00e8e8b3          	or	a7,a7,a4
    25b4:	01103533          	snez	a0,a7
    25b8:	00f56533          	or	a0,a0,a5
    25bc:	e7dff06f          	j	2438 <DMEM_SHARED_SIZE+0x438>
    25c0:	ec0788e3          	beqz	a5,2490 <DMEM_SHARED_SIZE+0x490>
    25c4:	01d5eeb3          	or	t4,a1,t4
    25c8:	bc0e90e3          	bnez	t4,2188 <DMEM_SHARED_SIZE+0x188>
    25cc:	d49ff06f          	j	2314 <DMEM_SHARED_SIZE+0x314>
    25d0:	411e8633          	sub	a2,t4,a7
    25d4:	40e585b3          	sub	a1,a1,a4
    25d8:	00ceb733          	sltu	a4,t4,a2
    25dc:	00060493          	mv	s1,a2
    25e0:	40e58933          	sub	s2,a1,a4
    25e4:	00068413          	mv	s0,a3
    25e8:	00100993          	li	s3,1
    25ec:	9b9ff06f          	j	1fa4 <__subdf3+0xd8>
    25f0:	00100793          	li	a5,1
    25f4:	d11ff06f          	j	2304 <DMEM_SHARED_SIZE+0x304>
    25f8:	dc0800e3          	beqz	a6,23b8 <DMEM_SHARED_SIZE+0x3b8>
    25fc:	00361613          	sll	a2,a2,0x3
    2600:	00365793          	srl	a5,a2,0x3
    2604:	01d59813          	sll	a6,a1,0x1d
    2608:	00959713          	sll	a4,a1,0x9
    260c:	00f86833          	or	a6,a6,a5
    2610:	00c75713          	srl	a4,a4,0xc
    2614:	00068e13          	mv	t3,a3
    2618:	00000793          	li	a5,0
    261c:	a55ff06f          	j	2070 <DMEM_SHARED_SIZE+0x70>
    2620:	41d88933          	sub	s2,a7,t4
    2624:	0128b7b3          	sltu	a5,a7,s2
    2628:	40b70633          	sub	a2,a4,a1
    262c:	40f60633          	sub	a2,a2,a5
    2630:	00861793          	sll	a5,a2,0x8
    2634:	0e07d263          	bgez	a5,2718 <DMEM_SHARED_SIZE+0x718>
    2638:	411e8633          	sub	a2,t4,a7
    263c:	40e58733          	sub	a4,a1,a4
    2640:	00cebeb3          	sltu	t4,t4,a2
    2644:	41d70733          	sub	a4,a4,t4
    2648:	00871793          	sll	a5,a4,0x8
    264c:	00060493          	mv	s1,a2
    2650:	1207de63          	bgez	a5,278c <DMEM_SHARED_SIZE+0x78c>
    2654:	ff8007b7          	lui	a5,0xff800
    2658:	fff78793          	add	a5,a5,-1 # ff7fffff <MTSSV_BASE+0xff6f8007>
    265c:	00f77733          	and	a4,a4,a5
    2660:	00068413          	mv	s0,a3
    2664:	00100793          	li	a5,1
    2668:	9f1ff06f          	j	2058 <DMEM_SHARED_SIZE+0x58>
    266c:	00361613          	sll	a2,a2,0x3
    2670:	00365513          	srl	a0,a2,0x3
    2674:	00058713          	mv	a4,a1
    2678:	cbdff06f          	j	2334 <DMEM_SHARED_SIZE+0x334>
    267c:	00361613          	sll	a2,a2,0x3
    2680:	00365913          	srl	s2,a2,0x3
    2684:	00058713          	mv	a4,a1
    2688:	cfdff06f          	j	2384 <DMEM_SHARED_SIZE+0x384>
    268c:	01d886b3          	add	a3,a7,t4
    2690:	00b707b3          	add	a5,a4,a1
    2694:	0116b633          	sltu	a2,a3,a7
    2698:	00c787b3          	add	a5,a5,a2
    269c:	00879713          	sll	a4,a5,0x8
    26a0:	0036d813          	srl	a6,a3,0x3
    26a4:	08075e63          	bgez	a4,2740 <DMEM_SHARED_SIZE+0x740>
    26a8:	ff800737          	lui	a4,0xff800
    26ac:	fff70713          	add	a4,a4,-1 # ff7fffff <MTSSV_BASE+0xff6f8007>
    26b0:	00e7f7b3          	and	a5,a5,a4
    26b4:	01d79713          	sll	a4,a5,0x1d
    26b8:	00979793          	sll	a5,a5,0x9
    26bc:	01076833          	or	a6,a4,a6
    26c0:	00c7d713          	srl	a4,a5,0xc
    26c4:	00100793          	li	a5,1
    26c8:	9a9ff06f          	j	2070 <DMEM_SHARED_SIZE+0x70>
    26cc:	fe068793          	add	a5,a3,-32
    26d0:	02000613          	li	a2,32
    26d4:	00f757b3          	srl	a5,a4,a5
    26d8:	00c68a63          	beq	a3,a2,26ec <DMEM_SHARED_SIZE+0x6ec>
    26dc:	04000613          	li	a2,64
    26e0:	40d606b3          	sub	a3,a2,a3
    26e4:	00d71733          	sll	a4,a4,a3
    26e8:	00e8e8b3          	or	a7,a7,a4
    26ec:	01103933          	snez	s2,a7
    26f0:	00f96933          	or	s2,s2,a5
    26f4:	b39ff06f          	j	222c <DMEM_SHARED_SIZE+0x22c>
    26f8:	0034d513          	srl	a0,s1,0x3
    26fc:	00098793          	mv	a5,s3
    2700:	00090713          	mv	a4,s2
    2704:	c31ff06f          	j	2334 <DMEM_SHARED_SIZE+0x334>
    2708:	02000693          	li	a3,32
    270c:	40f686b3          	sub	a3,a3,a5
    2710:	00000613          	li	a2,0
    2714:	8e9ff06f          	j	1ffc <__subdf3+0x130>
    2718:	00c96833          	or	a6,s2,a2
    271c:	c8080ee3          	beqz	a6,23b8 <DMEM_SHARED_SIZE+0x3b8>
    2720:	00395913          	srl	s2,s2,0x3
    2724:	00000793          	li	a5,0
    2728:	00060713          	mv	a4,a2
    272c:	c59ff06f          	j	2384 <DMEM_SHARED_SIZE+0x384>
    2730:	00000e13          	li	t3,0
    2734:	7ff00793          	li	a5,2047
    2738:	00080737          	lui	a4,0x80
    273c:	935ff06f          	j	2070 <DMEM_SHARED_SIZE+0x70>
    2740:	01d79713          	sll	a4,a5,0x1d
    2744:	00979793          	sll	a5,a5,0x9
    2748:	01076833          	or	a6,a4,a6
    274c:	00c7d713          	srl	a4,a5,0xc
    2750:	00000793          	li	a5,0
    2754:	91dff06f          	j	2070 <DMEM_SHARED_SIZE+0x70>
    2758:	ae0786e3          	beqz	a5,2244 <DMEM_SHARED_SIZE+0x244>
    275c:	413f0833          	sub	a6,t5,s3
    2760:	00080793          	mv	a5,a6
    2764:	c6098ee3          	beqz	s3,23e0 <DMEM_SHARED_SIZE+0x3e0>
    2768:	03800793          	li	a5,56
    276c:	0107ca63          	blt	a5,a6,2780 <DMEM_SHARED_SIZE+0x780>
    2770:	008007b7          	lui	a5,0x800
    2774:	00f76733          	or	a4,a4,a5
    2778:	00068413          	mv	s0,a3
    277c:	c8dff06f          	j	2408 <DMEM_SHARED_SIZE+0x408>
    2780:	00068413          	mv	s0,a3
    2784:	00100513          	li	a0,1
    2788:	cb1ff06f          	j	2438 <DMEM_SHARED_SIZE+0x438>
    278c:	01d71813          	sll	a6,a4,0x1d
    2790:	00365613          	srl	a2,a2,0x3
    2794:	00c86833          	or	a6,a6,a2
    2798:	00375713          	srl	a4,a4,0x3
    279c:	00000793          	li	a5,0
    27a0:	00068413          	mv	s0,a3
    27a4:	ba5ff06f          	j	2348 <DMEM_SHARED_SIZE+0x348>
    27a8:	ba078ae3          	beqz	a5,235c <DMEM_SHARED_SIZE+0x35c>
    27ac:	413f06b3          	sub	a3,t5,s3
    27b0:	00099663          	bnez	s3,27bc <DMEM_SHARED_SIZE+0x7bc>
    27b4:	00068793          	mv	a5,a3
    27b8:	a21ff06f          	j	21d8 <DMEM_SHARED_SIZE+0x1d8>
    27bc:	03800793          	li	a5,56
    27c0:	00100913          	li	s2,1
    27c4:	a6d7c4e3          	blt	a5,a3,222c <DMEM_SHARED_SIZE+0x22c>
    27c8:	008007b7          	lui	a5,0x800
    27cc:	00f76733          	or	a4,a4,a5
    27d0:	a2dff06f          	j	21fc <DMEM_SHARED_SIZE+0x1fc>

000027d4 <__fixdfsi>:
    27d4:	0145d793          	srl	a5,a1,0x14
    27d8:	001006b7          	lui	a3,0x100
    27dc:	fff68713          	add	a4,a3,-1 # fffff <IMEM_SIZE+0xebfff>
    27e0:	7ff7f793          	and	a5,a5,2047
    27e4:	3fe00613          	li	a2,1022
    27e8:	00b77733          	and	a4,a4,a1
    27ec:	01f5d593          	srl	a1,a1,0x1f
    27f0:	00f65e63          	bge	a2,a5,280c <IMEM_SIZE_PER_THREAD+0xc>
    27f4:	41d00613          	li	a2,1053
    27f8:	00f65e63          	bge	a2,a5,2814 <IMEM_SIZE_PER_THREAD+0x14>
    27fc:	80000537          	lui	a0,0x80000
    2800:	fff50513          	add	a0,a0,-1 # 7fffffff <MTSSV_BASE+0x7fef8007>
    2804:	00a58533          	add	a0,a1,a0
    2808:	00008067          	ret
    280c:	00000513          	li	a0,0
    2810:	00008067          	ret
    2814:	43300613          	li	a2,1075
    2818:	40f60633          	sub	a2,a2,a5
    281c:	01f00813          	li	a6,31
    2820:	00d76733          	or	a4,a4,a3
    2824:	02c85063          	bge	a6,a2,2844 <IMEM_SIZE_PER_THREAD+0x44>
    2828:	41300693          	li	a3,1043
    282c:	40f687b3          	sub	a5,a3,a5
    2830:	00f75733          	srl	a4,a4,a5
    2834:	40e00533          	neg	a0,a4
    2838:	fc059ce3          	bnez	a1,2810 <IMEM_SIZE_PER_THREAD+0x10>
    283c:	00070513          	mv	a0,a4
    2840:	00008067          	ret
    2844:	bed78793          	add	a5,a5,-1043 # 7ffbed <MTSSV_BASE+0x6f7bf5>
    2848:	00f71733          	sll	a4,a4,a5
    284c:	00c55533          	srl	a0,a0,a2
    2850:	00a76733          	or	a4,a4,a0
    2854:	fe1ff06f          	j	2834 <IMEM_SIZE_PER_THREAD+0x34>

00002858 <__mulsf3>:
    2858:	fd010113          	add	sp,sp,-48
    285c:	01755793          	srl	a5,a0,0x17
    2860:	03212023          	sw	s2,32(sp)
    2864:	01412c23          	sw	s4,24(sp)
    2868:	02112623          	sw	ra,44(sp)
    286c:	00951a13          	sll	s4,a0,0x9
    2870:	02812423          	sw	s0,40(sp)
    2874:	02912223          	sw	s1,36(sp)
    2878:	01312e23          	sw	s3,28(sp)
    287c:	01512a23          	sw	s5,20(sp)
    2880:	01612823          	sw	s6,16(sp)
    2884:	0ff7f793          	zext.b	a5,a5
    2888:	009a5a13          	srl	s4,s4,0x9
    288c:	01f55913          	srl	s2,a0,0x1f
    2890:	26078663          	beqz	a5,2afc <__mulsf3+0x2a4>
    2894:	0ff00713          	li	a4,255
    2898:	18e78c63          	beq	a5,a4,2a30 <__mulsf3+0x1d8>
    289c:	003a1a13          	sll	s4,s4,0x3
    28a0:	04000737          	lui	a4,0x4000
    28a4:	00ea6a33          	or	s4,s4,a4
    28a8:	f8178993          	add	s3,a5,-127
    28ac:	00000493          	li	s1,0
    28b0:	00000b13          	li	s6,0
    28b4:	0175d793          	srl	a5,a1,0x17
    28b8:	00959a93          	sll	s5,a1,0x9
    28bc:	0ff7f793          	zext.b	a5,a5
    28c0:	009ada93          	srl	s5,s5,0x9
    28c4:	01f5d413          	srl	s0,a1,0x1f
    28c8:	18078863          	beqz	a5,2a58 <__mulsf3+0x200>
    28cc:	0ff00713          	li	a4,255
    28d0:	20e78063          	beq	a5,a4,2ad0 <__mulsf3+0x278>
    28d4:	003a9a93          	sll	s5,s5,0x3
    28d8:	f8178793          	add	a5,a5,-127
    28dc:	04000737          	lui	a4,0x4000
    28e0:	00eaeab3          	or	s5,s5,a4
    28e4:	00f989b3          	add	s3,s3,a5
    28e8:	00000693          	li	a3,0
    28ec:	00a00793          	li	a5,10
    28f0:	00198893          	add	a7,s3,1
    28f4:	1697ce63          	blt	a5,s1,2a70 <__mulsf3+0x218>
    28f8:	00894533          	xor	a0,s2,s0
    28fc:	00200793          	li	a5,2
    2900:	00050813          	mv	a6,a0
    2904:	2097de63          	bge	a5,s1,2b20 <__mulsf3+0x2c8>
    2908:	00100713          	li	a4,1
    290c:	00971733          	sll	a4,a4,s1
    2910:	53077793          	and	a5,a4,1328
    2914:	16079063          	bnez	a5,2a74 <__mulsf3+0x21c>
    2918:	24077793          	and	a5,a4,576
    291c:	28079e63          	bnez	a5,2bb8 <__mulsf3+0x360>
    2920:	08877713          	and	a4,a4,136
    2924:	28071263          	bnez	a4,2ba8 <__mulsf3+0x350>
    2928:	00010eb7          	lui	t4,0x10
    292c:	fffe8713          	add	a4,t4,-1 # ffff <DMEM_TOTAL_SIZE+0x7fff>
    2930:	00ea77b3          	and	a5,s4,a4
    2934:	00eaf733          	and	a4,s5,a4
    2938:	010a5a13          	srl	s4,s4,0x10
    293c:	010ada93          	srl	s5,s5,0x10
    2940:	00078513          	mv	a0,a5
    2944:	00070593          	mv	a1,a4
    2948:	52c000ef          	jal	2e74 <__mulsi3>
    294c:	00050313          	mv	t1,a0
    2950:	000a8593          	mv	a1,s5
    2954:	00078513          	mv	a0,a5
    2958:	51c000ef          	jal	2e74 <__mulsi3>
    295c:	00050793          	mv	a5,a0
    2960:	00070593          	mv	a1,a4
    2964:	000a0513          	mv	a0,s4
    2968:	50c000ef          	jal	2e74 <__mulsi3>
    296c:	00050e13          	mv	t3,a0
    2970:	000a8593          	mv	a1,s5
    2974:	000a0513          	mv	a0,s4
    2978:	4fc000ef          	jal	2e74 <__mulsi3>
    297c:	01035713          	srl	a4,t1,0x10
    2980:	01c787b3          	add	a5,a5,t3
    2984:	00f70733          	add	a4,a4,a5
    2988:	01c77463          	bgeu	a4,t3,2990 <__mulsf3+0x138>
    298c:	01d50533          	add	a0,a0,t4
    2990:	000106b7          	lui	a3,0x10
    2994:	fff68693          	add	a3,a3,-1 # ffff <DMEM_TOTAL_SIZE+0x7fff>
    2998:	00d777b3          	and	a5,a4,a3
    299c:	01079793          	sll	a5,a5,0x10
    29a0:	00d37333          	and	t1,t1,a3
    29a4:	006787b3          	add	a5,a5,t1
    29a8:	01075713          	srl	a4,a4,0x10
    29ac:	00679a13          	sll	s4,a5,0x6
    29b0:	00a70733          	add	a4,a4,a0
    29b4:	01a7d793          	srl	a5,a5,0x1a
    29b8:	00671713          	sll	a4,a4,0x6
    29bc:	01403a33          	snez	s4,s4
    29c0:	00fa6a33          	or	s4,s4,a5
    29c4:	00471793          	sll	a5,a4,0x4
    29c8:	01476a33          	or	s4,a4,s4
    29cc:	0007da63          	bgez	a5,29e0 <__mulsf3+0x188>
    29d0:	001a5793          	srl	a5,s4,0x1
    29d4:	001a7a13          	and	s4,s4,1
    29d8:	0147ea33          	or	s4,a5,s4
    29dc:	00088993          	mv	s3,a7
    29e0:	07f98793          	add	a5,s3,127
    29e4:	1ef05263          	blez	a5,2bc8 <__mulsf3+0x370>
    29e8:	007a7713          	and	a4,s4,7
    29ec:	00070a63          	beqz	a4,2a00 <__mulsf3+0x1a8>
    29f0:	00fa7713          	and	a4,s4,15
    29f4:	00400693          	li	a3,4
    29f8:	00d70463          	beq	a4,a3,2a00 <__mulsf3+0x1a8>
    29fc:	004a0a13          	add	s4,s4,4
    2a00:	004a1713          	sll	a4,s4,0x4
    2a04:	00075a63          	bgez	a4,2a18 <__mulsf3+0x1c0>
    2a08:	f80007b7          	lui	a5,0xf8000
    2a0c:	fff78793          	add	a5,a5,-1 # f7ffffff <MTSSV_BASE+0xf7ef8007>
    2a10:	00fa7a33          	and	s4,s4,a5
    2a14:	08098793          	add	a5,s3,128
    2a18:	0fe00713          	li	a4,254
    2a1c:	22f74663          	blt	a4,a5,2c48 <__mulsf3+0x3f0>
    2a20:	006a1713          	sll	a4,s4,0x6
    2a24:	00975713          	srl	a4,a4,0x9
    2a28:	0ff7f793          	zext.b	a5,a5
    2a2c:	06c0006f          	j	2a98 <__mulsf3+0x240>
    2a30:	160a1463          	bnez	s4,2b98 <__mulsf3+0x340>
    2a34:	0175d793          	srl	a5,a1,0x17
    2a38:	00959a93          	sll	s5,a1,0x9
    2a3c:	0ff7f793          	zext.b	a5,a5
    2a40:	00800493          	li	s1,8
    2a44:	0ff00993          	li	s3,255
    2a48:	00200b13          	li	s6,2
    2a4c:	009ada93          	srl	s5,s5,0x9
    2a50:	01f5d413          	srl	s0,a1,0x1f
    2a54:	e6079ce3          	bnez	a5,28cc <__mulsf3+0x74>
    2a58:	100a9863          	bnez	s5,2b68 <__mulsf3+0x310>
    2a5c:	0014e493          	or	s1,s1,1
    2a60:	00a00793          	li	a5,10
    2a64:	00100693          	li	a3,1
    2a68:	00198893          	add	a7,s3,1
    2a6c:	e897d6e3          	bge	a5,s1,28f8 <__mulsf3+0xa0>
    2a70:	00090513          	mv	a0,s2
    2a74:	00200793          	li	a5,2
    2a78:	08fb0c63          	beq	s6,a5,2b10 <__mulsf3+0x2b8>
    2a7c:	00300793          	li	a5,3
    2a80:	12fb0c63          	beq	s6,a5,2bb8 <__mulsf3+0x360>
    2a84:	00100793          	li	a5,1
    2a88:	00050813          	mv	a6,a0
    2a8c:	1afb1a63          	bne	s6,a5,2c40 <__mulsf3+0x3e8>
    2a90:	00000793          	li	a5,0
    2a94:	00000713          	li	a4,0
    2a98:	02c12083          	lw	ra,44(sp)
    2a9c:	02812403          	lw	s0,40(sp)
    2aa0:	01779513          	sll	a0,a5,0x17
    2aa4:	00e56533          	or	a0,a0,a4
    2aa8:	01f81793          	sll	a5,a6,0x1f
    2aac:	02412483          	lw	s1,36(sp)
    2ab0:	02012903          	lw	s2,32(sp)
    2ab4:	01c12983          	lw	s3,28(sp)
    2ab8:	01812a03          	lw	s4,24(sp)
    2abc:	01412a83          	lw	s5,20(sp)
    2ac0:	01012b03          	lw	s6,16(sp)
    2ac4:	00f56533          	or	a0,a0,a5
    2ac8:	03010113          	add	sp,sp,48
    2acc:	00008067          	ret
    2ad0:	0ff98713          	add	a4,s3,255
    2ad4:	0a0a8a63          	beqz	s5,2b88 <__mulsf3+0x330>
    2ad8:	0034e493          	or	s1,s1,3
    2adc:	00a00693          	li	a3,10
    2ae0:	10098893          	add	a7,s3,256
    2ae4:	1496c063          	blt	a3,s1,2c24 <__mulsf3+0x3cc>
    2ae8:	00894833          	xor	a6,s2,s0
    2aec:	00080513          	mv	a0,a6
    2af0:	00070993          	mv	s3,a4
    2af4:	00300693          	li	a3,3
    2af8:	e11ff06f          	j	2908 <__mulsf3+0xb0>
    2afc:	040a1063          	bnez	s4,2b3c <__mulsf3+0x2e4>
    2b00:	00400493          	li	s1,4
    2b04:	00000993          	li	s3,0
    2b08:	00100b13          	li	s6,1
    2b0c:	da9ff06f          	j	28b4 <__mulsf3+0x5c>
    2b10:	00050813          	mv	a6,a0
    2b14:	0ff00793          	li	a5,255
    2b18:	00000713          	li	a4,0
    2b1c:	f7dff06f          	j	2a98 <__mulsf3+0x240>
    2b20:	fff48493          	add	s1,s1,-1
    2b24:	00100713          	li	a4,1
    2b28:	e09760e3          	bltu	a4,s1,2928 <__mulsf3+0xd0>
    2b2c:	fef682e3          	beq	a3,a5,2b10 <__mulsf3+0x2b8>
    2b30:	000a8a13          	mv	s4,s5
    2b34:	00068b13          	mv	s6,a3
    2b38:	f4dff06f          	j	2a84 <__mulsf3+0x22c>
    2b3c:	000a0513          	mv	a0,s4
    2b40:	00b12623          	sw	a1,12(sp)
    2b44:	408000ef          	jal	2f4c <__clzsi2>
    2b48:	ffb50793          	add	a5,a0,-5
    2b4c:	00fa1a33          	sll	s4,s4,a5
    2b50:	f8a00793          	li	a5,-118
    2b54:	00c12583          	lw	a1,12(sp)
    2b58:	40a789b3          	sub	s3,a5,a0
    2b5c:	00000493          	li	s1,0
    2b60:	00000b13          	li	s6,0
    2b64:	d51ff06f          	j	28b4 <__mulsf3+0x5c>
    2b68:	000a8513          	mv	a0,s5
    2b6c:	3e0000ef          	jal	2f4c <__clzsi2>
    2b70:	ffb50793          	add	a5,a0,-5
    2b74:	40a98533          	sub	a0,s3,a0
    2b78:	00fa9ab3          	sll	s5,s5,a5
    2b7c:	f8a50993          	add	s3,a0,-118
    2b80:	00000693          	li	a3,0
    2b84:	d69ff06f          	j	28ec <__mulsf3+0x94>
    2b88:	0024e493          	or	s1,s1,2
    2b8c:	00070993          	mv	s3,a4
    2b90:	00200693          	li	a3,2
    2b94:	d59ff06f          	j	28ec <__mulsf3+0x94>
    2b98:	00c00493          	li	s1,12
    2b9c:	0ff00993          	li	s3,255
    2ba0:	00300b13          	li	s6,3
    2ba4:	d11ff06f          	j	28b4 <__mulsf3+0x5c>
    2ba8:	000a8a13          	mv	s4,s5
    2bac:	00068b13          	mv	s6,a3
    2bb0:	00040513          	mv	a0,s0
    2bb4:	ec1ff06f          	j	2a74 <__mulsf3+0x21c>
    2bb8:	00000813          	li	a6,0
    2bbc:	0ff00793          	li	a5,255
    2bc0:	00400737          	lui	a4,0x400
    2bc4:	ed5ff06f          	j	2a98 <__mulsf3+0x240>
    2bc8:	00100693          	li	a3,1
    2bcc:	00078c63          	beqz	a5,2be4 <__mulsf3+0x38c>
    2bd0:	40f686b3          	sub	a3,a3,a5
    2bd4:	01b00613          	li	a2,27
    2bd8:	00000793          	li	a5,0
    2bdc:	00000713          	li	a4,0
    2be0:	ead64ce3          	blt	a2,a3,2a98 <__mulsf3+0x240>
    2be4:	09e98713          	add	a4,s3,158
    2be8:	00ea1733          	sll	a4,s4,a4
    2bec:	00e03733          	snez	a4,a4
    2bf0:	00da57b3          	srl	a5,s4,a3
    2bf4:	00e7e7b3          	or	a5,a5,a4
    2bf8:	0077f713          	and	a4,a5,7
    2bfc:	00070a63          	beqz	a4,2c10 <__mulsf3+0x3b8>
    2c00:	00f7f713          	and	a4,a5,15
    2c04:	00400693          	li	a3,4
    2c08:	00d70463          	beq	a4,a3,2c10 <__mulsf3+0x3b8>
    2c0c:	00478793          	add	a5,a5,4
    2c10:	00579713          	sll	a4,a5,0x5
    2c14:	04075063          	bgez	a4,2c54 <__mulsf3+0x3fc>
    2c18:	00100793          	li	a5,1
    2c1c:	00000713          	li	a4,0
    2c20:	e79ff06f          	j	2a98 <__mulsf3+0x240>
    2c24:	00f00693          	li	a3,15
    2c28:	00000813          	li	a6,0
    2c2c:	00400737          	lui	a4,0x400
    2c30:	000a8a13          	mv	s4,s5
    2c34:	00300b13          	li	s6,3
    2c38:	e6d480e3          	beq	s1,a3,2a98 <__mulsf3+0x240>
    2c3c:	f75ff06f          	j	2bb0 <__mulsf3+0x358>
    2c40:	00088993          	mv	s3,a7
    2c44:	d9dff06f          	j	29e0 <__mulsf3+0x188>
    2c48:	0ff00793          	li	a5,255
    2c4c:	00000713          	li	a4,0
    2c50:	e49ff06f          	j	2a98 <__mulsf3+0x240>
    2c54:	00679793          	sll	a5,a5,0x6
    2c58:	0097d713          	srl	a4,a5,0x9
    2c5c:	00000793          	li	a5,0
    2c60:	e39ff06f          	j	2a98 <__mulsf3+0x240>

00002c64 <__floatsisf>:
    2c64:	ff010113          	add	sp,sp,-16
    2c68:	00112623          	sw	ra,12(sp)
    2c6c:	00812423          	sw	s0,8(sp)
    2c70:	00912223          	sw	s1,4(sp)
    2c74:	04050863          	beqz	a0,2cc4 <__floatsisf+0x60>
    2c78:	41f55713          	sra	a4,a0,0x1f
    2c7c:	00a74433          	xor	s0,a4,a0
    2c80:	40e40433          	sub	s0,s0,a4
    2c84:	00050793          	mv	a5,a0
    2c88:	00040513          	mv	a0,s0
    2c8c:	01f7d493          	srl	s1,a5,0x1f
    2c90:	2bc000ef          	jal	2f4c <__clzsi2>
    2c94:	09e00793          	li	a5,158
    2c98:	40a787b3          	sub	a5,a5,a0
    2c9c:	09600713          	li	a4,150
    2ca0:	04f74a63          	blt	a4,a5,2cf4 <__floatsisf+0x90>
    2ca4:	00800713          	li	a4,8
    2ca8:	0ce50263          	beq	a0,a4,2d6c <__floatsisf+0x108>
    2cac:	ff850513          	add	a0,a0,-8
    2cb0:	00a41433          	sll	s0,s0,a0
    2cb4:	00941413          	sll	s0,s0,0x9
    2cb8:	00945413          	srl	s0,s0,0x9
    2cbc:	0ff7f793          	zext.b	a5,a5
    2cc0:	0100006f          	j	2cd0 <__floatsisf+0x6c>
    2cc4:	00000493          	li	s1,0
    2cc8:	00000793          	li	a5,0
    2ccc:	00000413          	li	s0,0
    2cd0:	01779793          	sll	a5,a5,0x17
    2cd4:	00c12083          	lw	ra,12(sp)
    2cd8:	0087e7b3          	or	a5,a5,s0
    2cdc:	00812403          	lw	s0,8(sp)
    2ce0:	01f49513          	sll	a0,s1,0x1f
    2ce4:	00a7e533          	or	a0,a5,a0
    2ce8:	00412483          	lw	s1,4(sp)
    2cec:	01010113          	add	sp,sp,16
    2cf0:	00008067          	ret
    2cf4:	09900713          	li	a4,153
    2cf8:	04f74a63          	blt	a4,a5,2d4c <__floatsisf+0xe8>
    2cfc:	ffb50713          	add	a4,a0,-5
    2d00:	00e41733          	sll	a4,s0,a4
    2d04:	fc0006b7          	lui	a3,0xfc000
    2d08:	fff68693          	add	a3,a3,-1 # fbffffff <MTSSV_BASE+0xfbef8007>
    2d0c:	00777613          	and	a2,a4,7
    2d10:	00d77433          	and	s0,a4,a3
    2d14:	02060463          	beqz	a2,2d3c <__floatsisf+0xd8>
    2d18:	00f77713          	and	a4,a4,15
    2d1c:	00400613          	li	a2,4
    2d20:	00c70e63          	beq	a4,a2,2d3c <__floatsisf+0xd8>
    2d24:	00440413          	add	s0,s0,4
    2d28:	00541713          	sll	a4,s0,0x5
    2d2c:	00075863          	bgez	a4,2d3c <__floatsisf+0xd8>
    2d30:	09f00793          	li	a5,159
    2d34:	00d47433          	and	s0,s0,a3
    2d38:	40a787b3          	sub	a5,a5,a0
    2d3c:	00641413          	sll	s0,s0,0x6
    2d40:	00945413          	srl	s0,s0,0x9
    2d44:	0ff7f793          	zext.b	a5,a5
    2d48:	f89ff06f          	j	2cd0 <__floatsisf+0x6c>
    2d4c:	01b50713          	add	a4,a0,27
    2d50:	00500693          	li	a3,5
    2d54:	00e41733          	sll	a4,s0,a4
    2d58:	40a686b3          	sub	a3,a3,a0
    2d5c:	00d45433          	srl	s0,s0,a3
    2d60:	00e03733          	snez	a4,a4
    2d64:	00e46733          	or	a4,s0,a4
    2d68:	f9dff06f          	j	2d04 <__floatsisf+0xa0>
    2d6c:	00941413          	sll	s0,s0,0x9
    2d70:	00945413          	srl	s0,s0,0x9
    2d74:	09600793          	li	a5,150
    2d78:	f59ff06f          	j	2cd0 <__floatsisf+0x6c>

00002d7c <__extendsfdf2>:
    2d7c:	01755793          	srl	a5,a0,0x17
    2d80:	0ff7f793          	zext.b	a5,a5
    2d84:	ff010113          	add	sp,sp,-16
    2d88:	00178713          	add	a4,a5,1
    2d8c:	00812423          	sw	s0,8(sp)
    2d90:	00912223          	sw	s1,4(sp)
    2d94:	00112623          	sw	ra,12(sp)
    2d98:	00951493          	sll	s1,a0,0x9
    2d9c:	0fe77713          	and	a4,a4,254
    2da0:	0094d493          	srl	s1,s1,0x9
    2da4:	01f55413          	srl	s0,a0,0x1f
    2da8:	02070e63          	beqz	a4,2de4 <__extendsfdf2+0x68>
    2dac:	0034d713          	srl	a4,s1,0x3
    2db0:	38078793          	add	a5,a5,896
    2db4:	01d49493          	sll	s1,s1,0x1d
    2db8:	01f41513          	sll	a0,s0,0x1f
    2dbc:	00c12083          	lw	ra,12(sp)
    2dc0:	00812403          	lw	s0,8(sp)
    2dc4:	01479793          	sll	a5,a5,0x14
    2dc8:	00e7e7b3          	or	a5,a5,a4
    2dcc:	00a7e7b3          	or	a5,a5,a0
    2dd0:	00078593          	mv	a1,a5
    2dd4:	00048513          	mv	a0,s1
    2dd8:	00412483          	lw	s1,4(sp)
    2ddc:	01010113          	add	sp,sp,16
    2de0:	00008067          	ret
    2de4:	04079263          	bnez	a5,2e28 <__extendsfdf2+0xac>
    2de8:	06048263          	beqz	s1,2e4c <__extendsfdf2+0xd0>
    2dec:	00048513          	mv	a0,s1
    2df0:	15c000ef          	jal	2f4c <__clzsi2>
    2df4:	00a00793          	li	a5,10
    2df8:	06a7c663          	blt	a5,a0,2e64 <__extendsfdf2+0xe8>
    2dfc:	00b00713          	li	a4,11
    2e00:	40a70733          	sub	a4,a4,a0
    2e04:	01550793          	add	a5,a0,21
    2e08:	00e4d733          	srl	a4,s1,a4
    2e0c:	00f494b3          	sll	s1,s1,a5
    2e10:	38900793          	li	a5,905
    2e14:	00c71713          	sll	a4,a4,0xc
    2e18:	40a787b3          	sub	a5,a5,a0
    2e1c:	00c75713          	srl	a4,a4,0xc
    2e20:	7ff7f793          	and	a5,a5,2047
    2e24:	f95ff06f          	j	2db8 <__extendsfdf2+0x3c>
    2e28:	02048863          	beqz	s1,2e58 <__extendsfdf2+0xdc>
    2e2c:	0034d713          	srl	a4,s1,0x3
    2e30:	000807b7          	lui	a5,0x80
    2e34:	00f76733          	or	a4,a4,a5
    2e38:	00c71713          	sll	a4,a4,0xc
    2e3c:	01d49493          	sll	s1,s1,0x1d
    2e40:	00c75713          	srl	a4,a4,0xc
    2e44:	7ff00793          	li	a5,2047
    2e48:	f71ff06f          	j	2db8 <__extendsfdf2+0x3c>
    2e4c:	00000793          	li	a5,0
    2e50:	00000713          	li	a4,0
    2e54:	f65ff06f          	j	2db8 <__extendsfdf2+0x3c>
    2e58:	7ff00793          	li	a5,2047
    2e5c:	00000713          	li	a4,0
    2e60:	f59ff06f          	j	2db8 <__extendsfdf2+0x3c>
    2e64:	ff550713          	add	a4,a0,-11
    2e68:	00e49733          	sll	a4,s1,a4
    2e6c:	00000493          	li	s1,0
    2e70:	fa1ff06f          	j	2e10 <__extendsfdf2+0x94>

00002e74 <__mulsi3>:
    2e74:	00050613          	mv	a2,a0
    2e78:	00000513          	li	a0,0
    2e7c:	0015f693          	and	a3,a1,1
    2e80:	00068463          	beqz	a3,2e88 <__mulsi3+0x14>
    2e84:	00c50533          	add	a0,a0,a2
    2e88:	0015d593          	srl	a1,a1,0x1
    2e8c:	00161613          	sll	a2,a2,0x1
    2e90:	fe0596e3          	bnez	a1,2e7c <__mulsi3+0x8>
    2e94:	00008067          	ret

00002e98 <__divsi3>:
    2e98:	06054063          	bltz	a0,2ef8 <__umodsi3+0x10>
    2e9c:	0605c663          	bltz	a1,2f08 <__umodsi3+0x20>

00002ea0 <__hidden___udivsi3>:
    2ea0:	00058613          	mv	a2,a1
    2ea4:	00050593          	mv	a1,a0
    2ea8:	fff00513          	li	a0,-1
    2eac:	02060c63          	beqz	a2,2ee4 <__hidden___udivsi3+0x44>
    2eb0:	00100693          	li	a3,1
    2eb4:	00b67a63          	bgeu	a2,a1,2ec8 <__hidden___udivsi3+0x28>
    2eb8:	00c05863          	blez	a2,2ec8 <__hidden___udivsi3+0x28>
    2ebc:	00161613          	sll	a2,a2,0x1
    2ec0:	00169693          	sll	a3,a3,0x1
    2ec4:	feb66ae3          	bltu	a2,a1,2eb8 <__hidden___udivsi3+0x18>
    2ec8:	00000513          	li	a0,0
    2ecc:	00c5e663          	bltu	a1,a2,2ed8 <__hidden___udivsi3+0x38>
    2ed0:	40c585b3          	sub	a1,a1,a2
    2ed4:	00d56533          	or	a0,a0,a3
    2ed8:	0016d693          	srl	a3,a3,0x1
    2edc:	00165613          	srl	a2,a2,0x1
    2ee0:	fe0696e3          	bnez	a3,2ecc <__hidden___udivsi3+0x2c>
    2ee4:	00008067          	ret

00002ee8 <__umodsi3>:
    2ee8:	00008293          	mv	t0,ra
    2eec:	fb5ff0ef          	jal	2ea0 <__hidden___udivsi3>
    2ef0:	00058513          	mv	a0,a1
    2ef4:	00028067          	jr	t0
    2ef8:	40a00533          	neg	a0,a0
    2efc:	00b04863          	bgtz	a1,2f0c <__umodsi3+0x24>
    2f00:	40b005b3          	neg	a1,a1
    2f04:	f9dff06f          	j	2ea0 <__hidden___udivsi3>
    2f08:	40b005b3          	neg	a1,a1
    2f0c:	00008293          	mv	t0,ra
    2f10:	f91ff0ef          	jal	2ea0 <__hidden___udivsi3>
    2f14:	40a00533          	neg	a0,a0
    2f18:	00028067          	jr	t0

00002f1c <__modsi3>:
    2f1c:	00008293          	mv	t0,ra
    2f20:	0005ca63          	bltz	a1,2f34 <__modsi3+0x18>
    2f24:	00054c63          	bltz	a0,2f3c <__modsi3+0x20>
    2f28:	f79ff0ef          	jal	2ea0 <__hidden___udivsi3>
    2f2c:	00058513          	mv	a0,a1
    2f30:	00028067          	jr	t0
    2f34:	40b005b3          	neg	a1,a1
    2f38:	fe0558e3          	bgez	a0,2f28 <__modsi3+0xc>
    2f3c:	40a00533          	neg	a0,a0
    2f40:	f61ff0ef          	jal	2ea0 <__hidden___udivsi3>
    2f44:	40b00533          	neg	a0,a1
    2f48:	00028067          	jr	t0

00002f4c <__clzsi2>:
    2f4c:	000107b7          	lui	a5,0x10
    2f50:	02f57a63          	bgeu	a0,a5,2f84 <__clzsi2+0x38>
    2f54:	10053713          	sltiu	a4,a0,256
    2f58:	00173713          	seqz	a4,a4
    2f5c:	00371713          	sll	a4,a4,0x3
    2f60:	001007b7          	lui	a5,0x100
    2f64:	00e55533          	srl	a0,a0,a4
    2f68:	04078793          	add	a5,a5,64 # 100040 <__clz_tab>
    2f6c:	00a787b3          	add	a5,a5,a0
    2f70:	0007c503          	lbu	a0,0(a5)
    2f74:	02000693          	li	a3,32
    2f78:	40e686b3          	sub	a3,a3,a4
    2f7c:	40a68533          	sub	a0,a3,a0
    2f80:	00008067          	ret
    2f84:	010007b7          	lui	a5,0x1000
    2f88:	02f57463          	bgeu	a0,a5,2fb0 <__clzsi2+0x64>
    2f8c:	01000713          	li	a4,16
    2f90:	001007b7          	lui	a5,0x100
    2f94:	00e55533          	srl	a0,a0,a4
    2f98:	04078793          	add	a5,a5,64 # 100040 <__clz_tab>
    2f9c:	00a787b3          	add	a5,a5,a0
    2fa0:	0007c503          	lbu	a0,0(a5)
    2fa4:	01000693          	li	a3,16
    2fa8:	40a68533          	sub	a0,a3,a0
    2fac:	00008067          	ret
    2fb0:	01800713          	li	a4,24
    2fb4:	001007b7          	lui	a5,0x100
    2fb8:	00e55533          	srl	a0,a0,a4
    2fbc:	04078793          	add	a5,a5,64 # 100040 <__clz_tab>
    2fc0:	00a787b3          	add	a5,a5,a0
    2fc4:	0007c503          	lbu	a0,0(a5)
    2fc8:	00800693          	li	a3,8
    2fcc:	40a68533          	sub	a0,a3,a0
    2fd0:	00008067          	ret

00002fd4 <__libc_init_array>:
    2fd4:	ff010113          	add	sp,sp,-16
    2fd8:	00812423          	sw	s0,8(sp)
    2fdc:	01212023          	sw	s2,0(sp)
    2fe0:	000fd797          	auipc	a5,0xfd
    2fe4:	02078793          	add	a5,a5,32 # 100000 <DMEM_BASE>
    2fe8:	000fd417          	auipc	s0,0xfd
    2fec:	01840413          	add	s0,s0,24 # 100000 <DMEM_BASE>
    2ff0:	00112623          	sw	ra,12(sp)
    2ff4:	00912223          	sw	s1,4(sp)
    2ff8:	40878933          	sub	s2,a5,s0
    2ffc:	02878063          	beq	a5,s0,301c <__libc_init_array+0x48>
    3000:	40295913          	sra	s2,s2,0x2
    3004:	00000493          	li	s1,0
    3008:	00042783          	lw	a5,0(s0)
    300c:	00148493          	add	s1,s1,1
    3010:	00440413          	add	s0,s0,4
    3014:	000780e7          	jalr	a5
    3018:	ff24e8e3          	bltu	s1,s2,3008 <__libc_init_array+0x34>
    301c:	000fd797          	auipc	a5,0xfd
    3020:	fe478793          	add	a5,a5,-28 # 100000 <DMEM_BASE>
    3024:	000fd417          	auipc	s0,0xfd
    3028:	fdc40413          	add	s0,s0,-36 # 100000 <DMEM_BASE>
    302c:	40878933          	sub	s2,a5,s0
    3030:	40295913          	sra	s2,s2,0x2
    3034:	00878e63          	beq	a5,s0,3050 <__libc_init_array+0x7c>
    3038:	00000493          	li	s1,0
    303c:	00042783          	lw	a5,0(s0)
    3040:	00148493          	add	s1,s1,1
    3044:	00440413          	add	s0,s0,4
    3048:	000780e7          	jalr	a5
    304c:	ff24e8e3          	bltu	s1,s2,303c <__libc_init_array+0x68>
    3050:	00c12083          	lw	ra,12(sp)
    3054:	00812403          	lw	s0,8(sp)
    3058:	00412483          	lw	s1,4(sp)
    305c:	00012903          	lw	s2,0(sp)
    3060:	01010113          	add	sp,sp,16
    3064:	00008067          	ret

00003068 <memmove>:
    3068:	02a5f663          	bgeu	a1,a0,3094 <memmove+0x2c>
    306c:	00c58733          	add	a4,a1,a2
    3070:	02e57263          	bgeu	a0,a4,3094 <memmove+0x2c>
    3074:	00c507b3          	add	a5,a0,a2
    3078:	04060663          	beqz	a2,30c4 <memmove+0x5c>
    307c:	fff74683          	lbu	a3,-1(a4) # 3fffff <MTSSV_BASE+0x2f8007>
    3080:	fff78793          	add	a5,a5,-1
    3084:	fff70713          	add	a4,a4,-1
    3088:	00d78023          	sb	a3,0(a5)
    308c:	fef518e3          	bne	a0,a5,307c <memmove+0x14>
    3090:	00008067          	ret
    3094:	00f00793          	li	a5,15
    3098:	02c7e863          	bltu	a5,a2,30c8 <memmove+0x60>
    309c:	00050793          	mv	a5,a0
    30a0:	fff60693          	add	a3,a2,-1
    30a4:	0c060263          	beqz	a2,3168 <memmove+0x100>
    30a8:	00168693          	add	a3,a3,1
    30ac:	00d786b3          	add	a3,a5,a3
    30b0:	0005c703          	lbu	a4,0(a1)
    30b4:	00178793          	add	a5,a5,1
    30b8:	00158593          	add	a1,a1,1
    30bc:	fee78fa3          	sb	a4,-1(a5)
    30c0:	fed798e3          	bne	a5,a3,30b0 <memmove+0x48>
    30c4:	00008067          	ret
    30c8:	00b567b3          	or	a5,a0,a1
    30cc:	0037f793          	and	a5,a5,3
    30d0:	08079663          	bnez	a5,315c <memmove+0xf4>
    30d4:	ff060893          	add	a7,a2,-16
    30d8:	ff08f893          	and	a7,a7,-16
    30dc:	01088893          	add	a7,a7,16 # 7fe00010 <MTSSV_BASE+0x7fcf8018>
    30e0:	011506b3          	add	a3,a0,a7
    30e4:	00058713          	mv	a4,a1
    30e8:	00050793          	mv	a5,a0
    30ec:	00072803          	lw	a6,0(a4)
    30f0:	01070713          	add	a4,a4,16
    30f4:	01078793          	add	a5,a5,16
    30f8:	ff07a823          	sw	a6,-16(a5)
    30fc:	ff472803          	lw	a6,-12(a4)
    3100:	ff07aa23          	sw	a6,-12(a5)
    3104:	ff872803          	lw	a6,-8(a4)
    3108:	ff07ac23          	sw	a6,-8(a5)
    310c:	ffc72803          	lw	a6,-4(a4)
    3110:	ff07ae23          	sw	a6,-4(a5)
    3114:	fcd79ce3          	bne	a5,a3,30ec <memmove+0x84>
    3118:	00c67813          	and	a6,a2,12
    311c:	011585b3          	add	a1,a1,a7
    3120:	00f67713          	and	a4,a2,15
    3124:	04080463          	beqz	a6,316c <memmove+0x104>
    3128:	ffc70813          	add	a6,a4,-4
    312c:	ffc87813          	and	a6,a6,-4
    3130:	00480813          	add	a6,a6,4
    3134:	010687b3          	add	a5,a3,a6
    3138:	00058713          	mv	a4,a1
    313c:	00072883          	lw	a7,0(a4)
    3140:	00468693          	add	a3,a3,4
    3144:	00470713          	add	a4,a4,4
    3148:	ff16ae23          	sw	a7,-4(a3)
    314c:	fef698e3          	bne	a3,a5,313c <memmove+0xd4>
    3150:	00367613          	and	a2,a2,3
    3154:	010585b3          	add	a1,a1,a6
    3158:	f49ff06f          	j	30a0 <memmove+0x38>
    315c:	fff60693          	add	a3,a2,-1
    3160:	00050793          	mv	a5,a0
    3164:	f45ff06f          	j	30a8 <memmove+0x40>
    3168:	00008067          	ret
    316c:	00070613          	mv	a2,a4
    3170:	f31ff06f          	j	30a0 <memmove+0x38>

00003174 <memset>:
    3174:	00f00313          	li	t1,15
    3178:	00050713          	mv	a4,a0
    317c:	02c37e63          	bgeu	t1,a2,31b8 <memset+0x44>
    3180:	00f77793          	and	a5,a4,15
    3184:	0a079063          	bnez	a5,3224 <memset+0xb0>
    3188:	08059263          	bnez	a1,320c <memset+0x98>
    318c:	ff067693          	and	a3,a2,-16
    3190:	00f67613          	and	a2,a2,15
    3194:	00e686b3          	add	a3,a3,a4
    3198:	00b72023          	sw	a1,0(a4)
    319c:	00b72223          	sw	a1,4(a4)
    31a0:	00b72423          	sw	a1,8(a4)
    31a4:	00b72623          	sw	a1,12(a4)
    31a8:	01070713          	add	a4,a4,16
    31ac:	fed766e3          	bltu	a4,a3,3198 <memset+0x24>
    31b0:	00061463          	bnez	a2,31b8 <memset+0x44>
    31b4:	00008067          	ret
    31b8:	40c306b3          	sub	a3,t1,a2
    31bc:	00269693          	sll	a3,a3,0x2
    31c0:	00000297          	auipc	t0,0x0
    31c4:	005686b3          	add	a3,a3,t0
    31c8:	00c68067          	jr	12(a3)
    31cc:	00b70723          	sb	a1,14(a4)
    31d0:	00b706a3          	sb	a1,13(a4)
    31d4:	00b70623          	sb	a1,12(a4)
    31d8:	00b705a3          	sb	a1,11(a4)
    31dc:	00b70523          	sb	a1,10(a4)
    31e0:	00b704a3          	sb	a1,9(a4)
    31e4:	00b70423          	sb	a1,8(a4)
    31e8:	00b703a3          	sb	a1,7(a4)
    31ec:	00b70323          	sb	a1,6(a4)
    31f0:	00b702a3          	sb	a1,5(a4)
    31f4:	00b70223          	sb	a1,4(a4)
    31f8:	00b701a3          	sb	a1,3(a4)
    31fc:	00b70123          	sb	a1,2(a4)
    3200:	00b700a3          	sb	a1,1(a4)
    3204:	00b70023          	sb	a1,0(a4)
    3208:	00008067          	ret
    320c:	0ff5f593          	zext.b	a1,a1
    3210:	00859693          	sll	a3,a1,0x8
    3214:	00d5e5b3          	or	a1,a1,a3
    3218:	01059693          	sll	a3,a1,0x10
    321c:	00d5e5b3          	or	a1,a1,a3
    3220:	f6dff06f          	j	318c <memset+0x18>
    3224:	00279693          	sll	a3,a5,0x2
    3228:	00000297          	auipc	t0,0x0
    322c:	005686b3          	add	a3,a3,t0
    3230:	00008293          	mv	t0,ra
    3234:	fa0680e7          	jalr	-96(a3)
    3238:	00028093          	mv	ra,t0
    323c:	ff078793          	add	a5,a5,-16
    3240:	40f70733          	sub	a4,a4,a5
    3244:	00f60633          	add	a2,a2,a5
    3248:	f6c378e3          	bgeu	t1,a2,31b8 <memset+0x44>
    324c:	f3dff06f          	j	3188 <memset+0x14>

00003250 <memcpy>:
    3250:	00a5c7b3          	xor	a5,a1,a0
    3254:	0037f793          	and	a5,a5,3
    3258:	00c508b3          	add	a7,a0,a2
    325c:	06079463          	bnez	a5,32c4 <memcpy+0x74>
    3260:	00300793          	li	a5,3
    3264:	06c7f063          	bgeu	a5,a2,32c4 <memcpy+0x74>
    3268:	00357793          	and	a5,a0,3
    326c:	00050713          	mv	a4,a0
    3270:	06079a63          	bnez	a5,32e4 <memcpy+0x94>
    3274:	ffc8f613          	and	a2,a7,-4
    3278:	40e606b3          	sub	a3,a2,a4
    327c:	02000793          	li	a5,32
    3280:	08d7ce63          	blt	a5,a3,331c <memcpy+0xcc>
    3284:	00058693          	mv	a3,a1
    3288:	00070793          	mv	a5,a4
    328c:	02c77863          	bgeu	a4,a2,32bc <memcpy+0x6c>
    3290:	0006a803          	lw	a6,0(a3)
    3294:	00478793          	add	a5,a5,4
    3298:	00468693          	add	a3,a3,4
    329c:	ff07ae23          	sw	a6,-4(a5)
    32a0:	fec7e8e3          	bltu	a5,a2,3290 <memcpy+0x40>
    32a4:	fff60793          	add	a5,a2,-1
    32a8:	40e787b3          	sub	a5,a5,a4
    32ac:	ffc7f793          	and	a5,a5,-4
    32b0:	00478793          	add	a5,a5,4
    32b4:	00f70733          	add	a4,a4,a5
    32b8:	00f585b3          	add	a1,a1,a5
    32bc:	01176863          	bltu	a4,a7,32cc <memcpy+0x7c>
    32c0:	00008067          	ret
    32c4:	00050713          	mv	a4,a0
    32c8:	05157863          	bgeu	a0,a7,3318 <memcpy+0xc8>
    32cc:	0005c783          	lbu	a5,0(a1)
    32d0:	00170713          	add	a4,a4,1
    32d4:	00158593          	add	a1,a1,1
    32d8:	fef70fa3          	sb	a5,-1(a4)
    32dc:	fee898e3          	bne	a7,a4,32cc <memcpy+0x7c>
    32e0:	00008067          	ret
    32e4:	0005c683          	lbu	a3,0(a1)
    32e8:	00170713          	add	a4,a4,1
    32ec:	00377793          	and	a5,a4,3
    32f0:	fed70fa3          	sb	a3,-1(a4)
    32f4:	00158593          	add	a1,a1,1
    32f8:	f6078ee3          	beqz	a5,3274 <memcpy+0x24>
    32fc:	0005c683          	lbu	a3,0(a1)
    3300:	00170713          	add	a4,a4,1
    3304:	00377793          	and	a5,a4,3
    3308:	fed70fa3          	sb	a3,-1(a4)
    330c:	00158593          	add	a1,a1,1
    3310:	fc079ae3          	bnez	a5,32e4 <memcpy+0x94>
    3314:	f61ff06f          	j	3274 <memcpy+0x24>
    3318:	00008067          	ret
    331c:	ff010113          	add	sp,sp,-16
    3320:	00812623          	sw	s0,12(sp)
    3324:	02000413          	li	s0,32
    3328:	0005a383          	lw	t2,0(a1)
    332c:	0045a283          	lw	t0,4(a1)
    3330:	0085af83          	lw	t6,8(a1)
    3334:	00c5af03          	lw	t5,12(a1)
    3338:	0105ae83          	lw	t4,16(a1)
    333c:	0145ae03          	lw	t3,20(a1)
    3340:	0185a303          	lw	t1,24(a1)
    3344:	01c5a803          	lw	a6,28(a1)
    3348:	0205a683          	lw	a3,32(a1)
    334c:	02470713          	add	a4,a4,36
    3350:	40e607b3          	sub	a5,a2,a4
    3354:	fc772e23          	sw	t2,-36(a4)
    3358:	fe572023          	sw	t0,-32(a4)
    335c:	fff72223          	sw	t6,-28(a4)
    3360:	ffe72423          	sw	t5,-24(a4)
    3364:	ffd72623          	sw	t4,-20(a4)
    3368:	ffc72823          	sw	t3,-16(a4)
    336c:	fe672a23          	sw	t1,-12(a4)
    3370:	ff072c23          	sw	a6,-8(a4)
    3374:	fed72e23          	sw	a3,-4(a4)
    3378:	02458593          	add	a1,a1,36
    337c:	faf446e3          	blt	s0,a5,3328 <memcpy+0xd8>
    3380:	00058693          	mv	a3,a1
    3384:	00070793          	mv	a5,a4
    3388:	02c77863          	bgeu	a4,a2,33b8 <memcpy+0x168>
    338c:	0006a803          	lw	a6,0(a3)
    3390:	00478793          	add	a5,a5,4
    3394:	00468693          	add	a3,a3,4
    3398:	ff07ae23          	sw	a6,-4(a5)
    339c:	fec7e8e3          	bltu	a5,a2,338c <memcpy+0x13c>
    33a0:	fff60793          	add	a5,a2,-1
    33a4:	40e787b3          	sub	a5,a5,a4
    33a8:	ffc7f793          	and	a5,a5,-4
    33ac:	00478793          	add	a5,a5,4
    33b0:	00f70733          	add	a4,a4,a5
    33b4:	00f585b3          	add	a1,a1,a5
    33b8:	01176863          	bltu	a4,a7,33c8 <memcpy+0x178>
    33bc:	00c12403          	lw	s0,12(sp)
    33c0:	01010113          	add	sp,sp,16
    33c4:	00008067          	ret
    33c8:	0005c783          	lbu	a5,0(a1)
    33cc:	00170713          	add	a4,a4,1
    33d0:	00158593          	add	a1,a1,1
    33d4:	fef70fa3          	sb	a5,-1(a4)
    33d8:	fee882e3          	beq	a7,a4,33bc <memcpy+0x16c>
    33dc:	0005c783          	lbu	a5,0(a1)
    33e0:	00170713          	add	a4,a4,1
    33e4:	00158593          	add	a1,a1,1
    33e8:	fef70fa3          	sb	a5,-1(a4)
    33ec:	fce89ee3          	bne	a7,a4,33c8 <memcpy+0x178>
    33f0:	fcdff06f          	j	33bc <memcpy+0x16c>

000033f4 <strcmp>:
    33f4:	00b56733          	or	a4,a0,a1
    33f8:	fff00393          	li	t2,-1
    33fc:	00377713          	and	a4,a4,3
    3400:	10071063          	bnez	a4,3500 <strcmp+0x10c>
    3404:	7f7f87b7          	lui	a5,0x7f7f8
    3408:	f7f78793          	add	a5,a5,-129 # 7f7f7f7f <MTSSV_BASE+0x7f6eff87>
    340c:	00052603          	lw	a2,0(a0)
    3410:	0005a683          	lw	a3,0(a1)
    3414:	00f672b3          	and	t0,a2,a5
    3418:	00f66333          	or	t1,a2,a5
    341c:	00f282b3          	add	t0,t0,a5
    3420:	0062e2b3          	or	t0,t0,t1
    3424:	10729263          	bne	t0,t2,3528 <strcmp+0x134>
    3428:	08d61663          	bne	a2,a3,34b4 <strcmp+0xc0>
    342c:	00452603          	lw	a2,4(a0)
    3430:	0045a683          	lw	a3,4(a1)
    3434:	00f672b3          	and	t0,a2,a5
    3438:	00f66333          	or	t1,a2,a5
    343c:	00f282b3          	add	t0,t0,a5
    3440:	0062e2b3          	or	t0,t0,t1
    3444:	0c729e63          	bne	t0,t2,3520 <strcmp+0x12c>
    3448:	06d61663          	bne	a2,a3,34b4 <strcmp+0xc0>
    344c:	00852603          	lw	a2,8(a0)
    3450:	0085a683          	lw	a3,8(a1)
    3454:	00f672b3          	and	t0,a2,a5
    3458:	00f66333          	or	t1,a2,a5
    345c:	00f282b3          	add	t0,t0,a5
    3460:	0062e2b3          	or	t0,t0,t1
    3464:	0c729863          	bne	t0,t2,3534 <strcmp+0x140>
    3468:	04d61663          	bne	a2,a3,34b4 <strcmp+0xc0>
    346c:	00c52603          	lw	a2,12(a0)
    3470:	00c5a683          	lw	a3,12(a1)
    3474:	00f672b3          	and	t0,a2,a5
    3478:	00f66333          	or	t1,a2,a5
    347c:	00f282b3          	add	t0,t0,a5
    3480:	0062e2b3          	or	t0,t0,t1
    3484:	0c729263          	bne	t0,t2,3548 <strcmp+0x154>
    3488:	02d61663          	bne	a2,a3,34b4 <strcmp+0xc0>
    348c:	01052603          	lw	a2,16(a0)
    3490:	0105a683          	lw	a3,16(a1)
    3494:	00f672b3          	and	t0,a2,a5
    3498:	00f66333          	or	t1,a2,a5
    349c:	00f282b3          	add	t0,t0,a5
    34a0:	0062e2b3          	or	t0,t0,t1
    34a4:	0a729c63          	bne	t0,t2,355c <strcmp+0x168>
    34a8:	01450513          	add	a0,a0,20
    34ac:	01458593          	add	a1,a1,20
    34b0:	f4d60ee3          	beq	a2,a3,340c <strcmp+0x18>
    34b4:	01061713          	sll	a4,a2,0x10
    34b8:	01069793          	sll	a5,a3,0x10
    34bc:	00f71e63          	bne	a4,a5,34d8 <strcmp+0xe4>
    34c0:	01065713          	srl	a4,a2,0x10
    34c4:	0106d793          	srl	a5,a3,0x10
    34c8:	40f70533          	sub	a0,a4,a5
    34cc:	0ff57593          	zext.b	a1,a0
    34d0:	02059063          	bnez	a1,34f0 <strcmp+0xfc>
    34d4:	00008067          	ret
    34d8:	01075713          	srl	a4,a4,0x10
    34dc:	0107d793          	srl	a5,a5,0x10
    34e0:	40f70533          	sub	a0,a4,a5
    34e4:	0ff57593          	zext.b	a1,a0
    34e8:	00059463          	bnez	a1,34f0 <strcmp+0xfc>
    34ec:	00008067          	ret
    34f0:	0ff77713          	zext.b	a4,a4
    34f4:	0ff7f793          	zext.b	a5,a5
    34f8:	40f70533          	sub	a0,a4,a5
    34fc:	00008067          	ret
    3500:	00054603          	lbu	a2,0(a0)
    3504:	0005c683          	lbu	a3,0(a1)
    3508:	00150513          	add	a0,a0,1
    350c:	00158593          	add	a1,a1,1
    3510:	00d61463          	bne	a2,a3,3518 <strcmp+0x124>
    3514:	fe0616e3          	bnez	a2,3500 <strcmp+0x10c>
    3518:	40d60533          	sub	a0,a2,a3
    351c:	00008067          	ret
    3520:	00450513          	add	a0,a0,4
    3524:	00458593          	add	a1,a1,4
    3528:	fcd61ce3          	bne	a2,a3,3500 <strcmp+0x10c>
    352c:	00000513          	li	a0,0
    3530:	00008067          	ret
    3534:	00850513          	add	a0,a0,8
    3538:	00858593          	add	a1,a1,8
    353c:	fcd612e3          	bne	a2,a3,3500 <strcmp+0x10c>
    3540:	00000513          	li	a0,0
    3544:	00008067          	ret
    3548:	00c50513          	add	a0,a0,12
    354c:	00c58593          	add	a1,a1,12
    3550:	fad618e3          	bne	a2,a3,3500 <strcmp+0x10c>
    3554:	00000513          	li	a0,0
    3558:	00008067          	ret
    355c:	01050513          	add	a0,a0,16
    3560:	01058593          	add	a1,a1,16
    3564:	f8d61ee3          	bne	a2,a3,3500 <strcmp+0x10c>
    3568:	00000513          	li	a0,0
    356c:	00008067          	ret

00003570 <__CTOR_LIST__>:
	...

00003578 <__CTOR_END__>:
	...

Disassembly of section .text.conv:

00003580 <conv>:
    3580:	40020e37          	lui	t3,0x40020
    3584:	fcde2423          	sw	a3,-56(t3) # 4001ffc8 <MTSSV_BASE+0x3ff17fd0>
    3588:	40020337          	lui	t1,0x40020
    358c:	fce32823          	sw	a4,-48(t1) # 4001ffd0 <MTSSV_BASE+0x3ff17fd8>
    3590:	400208b7          	lui	a7,0x40020
    3594:	fcb8aa23          	sw	a1,-44(a7) # 4001ffd4 <MTSSV_BASE+0x3ff17fdc>
    3598:	40020837          	lui	a6,0x40020
    359c:	fca82c23          	sw	a0,-40(a6) # 4001ffd8 <MTSSV_BASE+0x3ff17fe0>
    35a0:	400206b7          	lui	a3,0x40020
    35a4:	400207b7          	lui	a5,0x40020
    35a8:	40020737          	lui	a4,0x40020
    35ac:	fcc6ae23          	sw	a2,-36(a3) # 4001ffdc <MTSSV_BASE+0x3ff17fe4>
    35b0:	ffc60593          	add	a1,a2,-4
    35b4:	fc07a023          	sw	zero,-64(a5) # 4001ffc0 <MTSSV_BASE+0x3ff17fc8>
    35b8:	fc470713          	add	a4,a4,-60 # 4001ffc4 <MTSSV_BASE+0x3ff17fcc>
    35bc:	00072783          	lw	a5,0(a4)
    35c0:	fe078ee3          	beqz	a5,35bc <conv+0x3c>
    35c4:	00000613          	li	a2,0
    35c8:	04b05863          	blez	a1,3618 <conv+0x98>
    35cc:	400208b7          	lui	a7,0x40020
    35d0:	40020837          	lui	a6,0x40020
    35d4:	40020537          	lui	a0,0x40020
    35d8:	40020737          	lui	a4,0x40020
    35dc:	fe488893          	add	a7,a7,-28 # 4001ffe4 <MTSSV_BASE+0x3ff17fec>
    35e0:	fe880813          	add	a6,a6,-24 # 4001ffe8 <MTSSV_BASE+0x3ff17ff0>
    35e4:	fc050513          	add	a0,a0,-64 # 4001ffc0 <MTSSV_BASE+0x3ff17fc8>
    35e8:	00100313          	li	t1,1
    35ec:	fc470713          	add	a4,a4,-60 # 4001ffc4 <MTSSV_BASE+0x3ff17fcc>
    35f0:	00000693          	li	a3,0
    35f4:	00c8a023          	sw	a2,0(a7)
    35f8:	00d82023          	sw	a3,0(a6)
    35fc:	00652023          	sw	t1,0(a0)
    3600:	00072783          	lw	a5,0(a4)
    3604:	fe078ee3          	beqz	a5,3600 <conv+0x80>
    3608:	00168693          	add	a3,a3,1
    360c:	fed594e3          	bne	a1,a3,35f4 <conv+0x74>
    3610:	00160613          	add	a2,a2,1
    3614:	fcc59ee3          	bne	a1,a2,35f0 <conv+0x70>
    3618:	00008067          	ret

Disassembly of section .text.linear:

0000361c <linear>:
    361c:	40020e37          	lui	t3,0x40020
    3620:	fcae2c23          	sw	a0,-40(t3) # 4001ffd8 <MTSSV_BASE+0x3ff17fe0>
    3624:	40020337          	lui	t1,0x40020
    3628:	fcb32a23          	sw	a1,-44(t1) # 4001ffd4 <MTSSV_BASE+0x3ff17fdc>
    362c:	400208b7          	lui	a7,0x40020
    3630:	fcc8ae23          	sw	a2,-36(a7) # 4001ffdc <MTSSV_BASE+0x3ff17fe4>
    3634:	40020837          	lui	a6,0x40020
    3638:	fed82023          	sw	a3,-32(a6) # 4001ffe0 <MTSSV_BASE+0x3ff17fe8>
    363c:	40020537          	lui	a0,0x40020
    3640:	fce52423          	sw	a4,-56(a0) # 4001ffc8 <MTSSV_BASE+0x3ff17fd0>
    3644:	400205b7          	lui	a1,0x40020
    3648:	fcf5a623          	sw	a5,-52(a1) # 4001ffcc <MTSSV_BASE+0x3ff17fd4>
    364c:	40020637          	lui	a2,0x40020
    3650:	40020737          	lui	a4,0x40020
    3654:	00400793          	li	a5,4
    3658:	fcf62023          	sw	a5,-64(a2) # 4001ffc0 <MTSSV_BASE+0x3ff17fc8>
    365c:	fc470713          	add	a4,a4,-60 # 4001ffc4 <MTSSV_BASE+0x3ff17fcc>
    3660:	00072783          	lw	a5,0(a4)
    3664:	fe078ee3          	beqz	a5,3660 <linear+0x44>
    3668:	02d05e63          	blez	a3,36a4 <linear+0x88>
    366c:	40020537          	lui	a0,0x40020
    3670:	400205b7          	lui	a1,0x40020
    3674:	40020737          	lui	a4,0x40020
    3678:	00000613          	li	a2,0
    367c:	fe850513          	add	a0,a0,-24 # 4001ffe8 <MTSSV_BASE+0x3ff17ff0>
    3680:	fc058593          	add	a1,a1,-64 # 4001ffc0 <MTSSV_BASE+0x3ff17fc8>
    3684:	00500813          	li	a6,5
    3688:	fc470713          	add	a4,a4,-60 # 4001ffc4 <MTSSV_BASE+0x3ff17fcc>
    368c:	00c52023          	sw	a2,0(a0)
    3690:	0105a023          	sw	a6,0(a1)
    3694:	00072783          	lw	a5,0(a4)
    3698:	fe078ee3          	beqz	a5,3694 <linear+0x78>
    369c:	00160613          	add	a2,a2,1
    36a0:	fec696e3          	bne	a3,a2,368c <linear+0x70>
    36a4:	00008067          	ret

Disassembly of section .text.pool_max_2x2:

000036a8 <pool_max_2x2>:
    36a8:	400208b7          	lui	a7,0x40020
    36ac:	fcb8aa23          	sw	a1,-44(a7) # 4001ffd4 <MTSSV_BASE+0x3ff17fdc>
    36b0:	40020837          	lui	a6,0x40020
    36b4:	400206b7          	lui	a3,0x40020
    36b8:	fca82c23          	sw	a0,-40(a6) # 4001ffd8 <MTSSV_BASE+0x3ff17fe0>
    36bc:	01f65593          	srl	a1,a2,0x1f
    36c0:	fcc6ae23          	sw	a2,-36(a3) # 4001ffdc <MTSSV_BASE+0x3ff17fe4>
    36c4:	400207b7          	lui	a5,0x40020
    36c8:	00c585b3          	add	a1,a1,a2
    36cc:	40020737          	lui	a4,0x40020
    36d0:	00200693          	li	a3,2
    36d4:	4015d593          	sra	a1,a1,0x1
    36d8:	fcd7a023          	sw	a3,-64(a5) # 4001ffc0 <MTSSV_BASE+0x3ff17fc8>
    36dc:	fc470713          	add	a4,a4,-60 # 4001ffc4 <MTSSV_BASE+0x3ff17fcc>
    36e0:	00072783          	lw	a5,0(a4)
    36e4:	fe078ee3          	beqz	a5,36e0 <pool_max_2x2+0x38>
    36e8:	00100793          	li	a5,1
    36ec:	02c7de63          	bge	a5,a2,3728 <pool_max_2x2+0x80>
    36f0:	40020537          	lui	a0,0x40020
    36f4:	40020637          	lui	a2,0x40020
    36f8:	40020737          	lui	a4,0x40020
    36fc:	00000693          	li	a3,0
    3700:	fe450513          	add	a0,a0,-28 # 4001ffe4 <MTSSV_BASE+0x3ff17fec>
    3704:	fc060613          	add	a2,a2,-64 # 4001ffc0 <MTSSV_BASE+0x3ff17fc8>
    3708:	00300813          	li	a6,3
    370c:	fc470713          	add	a4,a4,-60 # 4001ffc4 <MTSSV_BASE+0x3ff17fcc>
    3710:	00d52023          	sw	a3,0(a0)
    3714:	01062023          	sw	a6,0(a2)
    3718:	00072783          	lw	a5,0(a4)
    371c:	fe078ee3          	beqz	a5,3718 <pool_max_2x2+0x70>
    3720:	00168693          	add	a3,a3,1
    3724:	feb6c6e3          	blt	a3,a1,3710 <pool_max_2x2+0x68>
    3728:	00008067          	ret

Disassembly of section .text.infer:

0000372c <infer>:
    372c:	fb010113          	add	sp,sp,-80
    3730:	04812423          	sw	s0,72(sp)
    3734:	04912223          	sw	s1,68(sp)
    3738:	05212023          	sw	s2,64(sp)
    373c:	03312e23          	sw	s3,60(sp)
    3740:	04112623          	sw	ra,76(sp)
    3744:	03412c23          	sw	s4,56(sp)
    3748:	00068993          	mv	s3,a3
    374c:	00050413          	mv	s0,a0
    3750:	00058913          	mv	s2,a1
    3754:	00060493          	mv	s1,a2
    3758:	1e069063          	bnez	a3,3938 <infer+0x20c>
    375c:	01c5a703          	lw	a4,28(a1)
    3760:	00058693          	mv	a3,a1
    3764:	02000613          	li	a2,32
    3768:	00050593          	mv	a1,a0
    376c:	00048513          	mv	a0,s1
    3770:	e11ff0ef          	jal	3580 <conv>
    3774:	31048413          	add	s0,s1,784
    3778:	00040513          	mv	a0,s0
    377c:	01c00613          	li	a2,28
    3780:	00048593          	mv	a1,s1
    3784:	f25ff0ef          	jal	36a8 <pool_max_2x2>
    3788:	03c92703          	lw	a4,60(s2)
    378c:	3d448a13          	add	s4,s1,980
    3790:	02090693          	add	a3,s2,32
    3794:	00040593          	mv	a1,s0
    3798:	000a0513          	mv	a0,s4
    379c:	00e00613          	li	a2,14
    37a0:	de1ff0ef          	jal	3580 <conv>
    37a4:	4ec48413          	add	s0,s1,1260
    37a8:	000a0593          	mv	a1,s4
    37ac:	00040513          	mv	a0,s0
    37b0:	00a00613          	li	a2,10
    37b4:	ef5ff0ef          	jal	36a8 <pool_max_2x2>
    37b8:	53248a13          	add	s4,s1,1330
    37bc:	00040593          	mv	a1,s0
    37c0:	36090793          	add	a5,s2,864
    37c4:	04090713          	add	a4,s2,64
    37c8:	02000693          	li	a3,32
    37cc:	01900613          	li	a2,25
    37d0:	000a0513          	mv	a0,s4
    37d4:	e49ff0ef          	jal	361c <linear>
    37d8:	55248413          	add	s0,s1,1362
    37dc:	74090793          	add	a5,s2,1856
    37e0:	3e090713          	add	a4,s2,992
    37e4:	01b00693          	li	a3,27
    37e8:	02000613          	li	a2,32
    37ec:	000a0593          	mv	a1,s4
    37f0:	00040513          	mv	a0,s0
    37f4:	e29ff0ef          	jal	361c <linear>
    37f8:	5524c703          	lbu	a4,1362(s1)
    37fc:	00140513          	add	a0,s0,1
    3800:	00100793          	li	a5,1
    3804:	01871713          	sll	a4,a4,0x18
    3808:	00000413          	li	s0,0
    380c:	41875713          	sra	a4,a4,0x18
    3810:	01b00593          	li	a1,27
    3814:	00054603          	lbu	a2,0(a0)
    3818:	00c75a63          	bge	a4,a2,382c <infer+0x100>
    381c:	00054703          	lbu	a4,0(a0)
    3820:	00078413          	mv	s0,a5
    3824:	01871713          	sll	a4,a4,0x18
    3828:	41875713          	sra	a4,a4,0x18
    382c:	00178793          	add	a5,a5,1
    3830:	00150513          	add	a0,a0,1
    3834:	feb790e3          	bne	a5,a1,3814 <infer+0xe8>
    3838:	00098e63          	beqz	s3,3854 <infer+0x128>
    383c:	00101937          	lui	s2,0x101
    3840:	90894983          	lbu	s3,-1784(s2) # 100908 <report_task_performance_off>
    3844:	02098a63          	beqz	s3,3878 <infer+0x14c>
    3848:	00100537          	lui	a0,0x100
    384c:	1e450513          	add	a0,a0,484 # 1001e4 <__clz_tab+0x1a4>
    3850:	539010ef          	jal	5588 <bm_printf>
    3854:	04c12083          	lw	ra,76(sp)
    3858:	00040513          	mv	a0,s0
    385c:	04812403          	lw	s0,72(sp)
    3860:	04412483          	lw	s1,68(sp)
    3864:	04012903          	lw	s2,64(sp)
    3868:	03c12983          	lw	s3,60(sp)
    386c:	03812a03          	lw	s4,56(sp)
    3870:	05010113          	add	sp,sp,80
    3874:	00008067          	ret
    3878:	03512a23          	sw	s5,52(sp)
    387c:	780027f3          	csrr	a5,0x780
    3880:	00101737          	lui	a4,0x101
    3884:	ffe78793          	add	a5,a5,-2
    3888:	90f72e23          	sw	a5,-1764(a4) # 10091c <end_cycle>
    388c:	00101ab7          	lui	s5,0x101
    3890:	00101837          	lui	a6,0x101
    3894:	920aa603          	lw	a2,-1760(s5) # 100920 <start_cycle>
    3898:	91c72503          	lw	a0,-1764(a4)
    389c:	91882683          	lw	a3,-1768(a6) # 100918 <paused_cycle_count>
    38a0:	001014b7          	lui	s1,0x101
    38a4:	9104a783          	lw	a5,-1776(s1) # 100910 <total_cycle_count>
    38a8:	9144a703          	lw	a4,-1772(s1)
    38ac:	40c50533          	sub	a0,a0,a2
    38b0:	40d50533          	sub	a0,a0,a3
    38b4:	00a786b3          	add	a3,a5,a0
    38b8:	41f55593          	sra	a1,a0,0x1f
    38bc:	00b70733          	add	a4,a4,a1
    38c0:	00f6b7b3          	sltu	a5,a3,a5
    38c4:	00e787b3          	add	a5,a5,a4
    38c8:	00810613          	add	a2,sp,8
    38cc:	90082c23          	sw	zero,-1768(a6)
    38d0:	90d4a823          	sw	a3,-1776(s1)
    38d4:	90f4aa23          	sw	a5,-1772(s1)
    38d8:	549010ef          	jal	5620 <bm_format_with_commas>
    38dc:	00100a37          	lui	s4,0x100
    38e0:	001005b7          	lui	a1,0x100
    38e4:	00810613          	add	a2,sp,8
    38e8:	1a858593          	add	a1,a1,424 # 1001a8 <__clz_tab+0x168>
    38ec:	16ca0513          	add	a0,s4,364 # 10016c <__clz_tab+0x12c>
    38f0:	499010ef          	jal	5588 <bm_printf>
    38f4:	78099073          	csrw	0x780,s3
    38f8:	780027f3          	csrr	a5,0x780
    38fc:	00378793          	add	a5,a5,3
    3900:	92faa023          	sw	a5,-1760(s5)
    3904:	90894783          	lbu	a5,-1784(s2)
    3908:	4a079c63          	bnez	a5,3dc0 <infer+0x694>
    390c:	9104a503          	lw	a0,-1776(s1)
    3910:	9144a583          	lw	a1,-1772(s1)
    3914:	00810613          	add	a2,sp,8
    3918:	509010ef          	jal	5620 <bm_format_with_commas>
    391c:	001005b7          	lui	a1,0x100
    3920:	00810613          	add	a2,sp,8
    3924:	1b058593          	add	a1,a1,432 # 1001b0 <__clz_tab+0x170>
    3928:	16ca0513          	add	a0,s4,364
    392c:	45d010ef          	jal	5588 <bm_printf>
    3930:	03412a83          	lw	s5,52(sp)
    3934:	f15ff06f          	j	3848 <infer+0x11c>
    3938:	00101a37          	lui	s4,0x101
    393c:	03512a23          	sw	s5,52(sp)
    3940:	908a4a83          	lbu	s5,-1784(s4) # 100908 <report_task_performance_off>
    3944:	03612823          	sw	s6,48(sp)
    3948:	400a8663          	beqz	s5,3d54 <infer+0x628>
    394c:	01c5a703          	lw	a4,28(a1)
    3950:	00058693          	mv	a3,a1
    3954:	02000613          	li	a2,32
    3958:	00050593          	mv	a1,a0
    395c:	00048513          	mv	a0,s1
    3960:	c21ff0ef          	jal	3580 <conv>
    3964:	908a4403          	lbu	s0,-1784(s4)
    3968:	08041663          	bnez	s0,39f4 <infer+0x2c8>
    396c:	780027f3          	csrr	a5,0x780
    3970:	00101737          	lui	a4,0x101
    3974:	ffe78793          	add	a5,a5,-2
    3978:	90f72e23          	sw	a5,-1764(a4) # 10091c <end_cycle>
    397c:	00101ab7          	lui	s5,0x101
    3980:	001018b7          	lui	a7,0x101
    3984:	920aa583          	lw	a1,-1760(s5) # 100920 <start_cycle>
    3988:	91c72503          	lw	a0,-1764(a4)
    398c:	9188a603          	lw	a2,-1768(a7) # 100918 <paused_cycle_count>
    3990:	00101737          	lui	a4,0x101
    3994:	91072783          	lw	a5,-1776(a4) # 100910 <total_cycle_count>
    3998:	91472683          	lw	a3,-1772(a4)
    399c:	40b50533          	sub	a0,a0,a1
    39a0:	40c50533          	sub	a0,a0,a2
    39a4:	00a78833          	add	a6,a5,a0
    39a8:	41f55593          	sra	a1,a0,0x1f
    39ac:	00b686b3          	add	a3,a3,a1
    39b0:	00f837b3          	sltu	a5,a6,a5
    39b4:	00d787b3          	add	a5,a5,a3
    39b8:	00810613          	add	a2,sp,8
    39bc:	9008ac23          	sw	zero,-1768(a7)
    39c0:	91072823          	sw	a6,-1776(a4)
    39c4:	90f72a23          	sw	a5,-1772(a4)
    39c8:	459010ef          	jal	5620 <bm_format_with_commas>
    39cc:	001005b7          	lui	a1,0x100
    39d0:	00100537          	lui	a0,0x100
    39d4:	00810613          	add	a2,sp,8
    39d8:	16458593          	add	a1,a1,356 # 100164 <__clz_tab+0x124>
    39dc:	16c50513          	add	a0,a0,364 # 10016c <__clz_tab+0x12c>
    39e0:	3a9010ef          	jal	5588 <bm_printf>
    39e4:	78041073          	csrw	0x780,s0
    39e8:	780027f3          	csrr	a5,0x780
    39ec:	00378793          	add	a5,a5,3
    39f0:	92faa023          	sw	a5,-1760(s5)
    39f4:	31048413          	add	s0,s1,784
    39f8:	01c00613          	li	a2,28
    39fc:	00048593          	mv	a1,s1
    3a00:	00040513          	mv	a0,s0
    3a04:	ca5ff0ef          	jal	36a8 <pool_max_2x2>
    3a08:	908a4a83          	lbu	s5,-1784(s4)
    3a0c:	080a9663          	bnez	s5,3a98 <infer+0x36c>
    3a10:	780027f3          	csrr	a5,0x780
    3a14:	00101737          	lui	a4,0x101
    3a18:	ffe78793          	add	a5,a5,-2
    3a1c:	90f72e23          	sw	a5,-1764(a4) # 10091c <end_cycle>
    3a20:	00101b37          	lui	s6,0x101
    3a24:	001018b7          	lui	a7,0x101
    3a28:	920b2583          	lw	a1,-1760(s6) # 100920 <start_cycle>
    3a2c:	91c72503          	lw	a0,-1764(a4)
    3a30:	9188a603          	lw	a2,-1768(a7) # 100918 <paused_cycle_count>
    3a34:	00101737          	lui	a4,0x101
    3a38:	91072783          	lw	a5,-1776(a4) # 100910 <total_cycle_count>
    3a3c:	91472683          	lw	a3,-1772(a4)
    3a40:	40b50533          	sub	a0,a0,a1
    3a44:	40c50533          	sub	a0,a0,a2
    3a48:	00a78833          	add	a6,a5,a0
    3a4c:	41f55593          	sra	a1,a0,0x1f
    3a50:	00b686b3          	add	a3,a3,a1
    3a54:	00f837b3          	sltu	a5,a6,a5
    3a58:	00d787b3          	add	a5,a5,a3
    3a5c:	00810613          	add	a2,sp,8
    3a60:	9008ac23          	sw	zero,-1768(a7)
    3a64:	91072823          	sw	a6,-1776(a4)
    3a68:	90f72a23          	sw	a5,-1772(a4)
    3a6c:	3b5010ef          	jal	5620 <bm_format_with_commas>
    3a70:	001005b7          	lui	a1,0x100
    3a74:	00100537          	lui	a0,0x100
    3a78:	00810613          	add	a2,sp,8
    3a7c:	18058593          	add	a1,a1,384 # 100180 <__clz_tab+0x140>
    3a80:	16c50513          	add	a0,a0,364 # 10016c <__clz_tab+0x12c>
    3a84:	305010ef          	jal	5588 <bm_printf>
    3a88:	780a9073          	csrw	0x780,s5
    3a8c:	780027f3          	csrr	a5,0x780
    3a90:	00378793          	add	a5,a5,3
    3a94:	92fb2023          	sw	a5,-1760(s6)
    3a98:	03c92703          	lw	a4,60(s2)
    3a9c:	3d448a93          	add	s5,s1,980
    3aa0:	00040593          	mv	a1,s0
    3aa4:	02090693          	add	a3,s2,32
    3aa8:	00e00613          	li	a2,14
    3aac:	000a8513          	mv	a0,s5
    3ab0:	ad1ff0ef          	jal	3580 <conv>
    3ab4:	908a4403          	lbu	s0,-1784(s4)
    3ab8:	08041663          	bnez	s0,3b44 <infer+0x418>
    3abc:	780027f3          	csrr	a5,0x780
    3ac0:	00101737          	lui	a4,0x101
    3ac4:	ffe78793          	add	a5,a5,-2
    3ac8:	90f72e23          	sw	a5,-1764(a4) # 10091c <end_cycle>
    3acc:	00101b37          	lui	s6,0x101
    3ad0:	001018b7          	lui	a7,0x101
    3ad4:	920b2583          	lw	a1,-1760(s6) # 100920 <start_cycle>
    3ad8:	91c72503          	lw	a0,-1764(a4)
    3adc:	9188a603          	lw	a2,-1768(a7) # 100918 <paused_cycle_count>
    3ae0:	00101737          	lui	a4,0x101
    3ae4:	91072783          	lw	a5,-1776(a4) # 100910 <total_cycle_count>
    3ae8:	91472683          	lw	a3,-1772(a4)
    3aec:	40b50533          	sub	a0,a0,a1
    3af0:	40c50533          	sub	a0,a0,a2
    3af4:	00a78833          	add	a6,a5,a0
    3af8:	41f55593          	sra	a1,a0,0x1f
    3afc:	00b686b3          	add	a3,a3,a1
    3b00:	00f837b3          	sltu	a5,a6,a5
    3b04:	00d787b3          	add	a5,a5,a3
    3b08:	00810613          	add	a2,sp,8
    3b0c:	9008ac23          	sw	zero,-1768(a7)
    3b10:	91072823          	sw	a6,-1776(a4)
    3b14:	90f72a23          	sw	a5,-1772(a4)
    3b18:	309010ef          	jal	5620 <bm_format_with_commas>
    3b1c:	001005b7          	lui	a1,0x100
    3b20:	00100537          	lui	a0,0x100
    3b24:	00810613          	add	a2,sp,8
    3b28:	18858593          	add	a1,a1,392 # 100188 <__clz_tab+0x148>
    3b2c:	16c50513          	add	a0,a0,364 # 10016c <__clz_tab+0x12c>
    3b30:	259010ef          	jal	5588 <bm_printf>
    3b34:	78041073          	csrw	0x780,s0
    3b38:	780027f3          	csrr	a5,0x780
    3b3c:	00378793          	add	a5,a5,3
    3b40:	92fb2023          	sw	a5,-1760(s6)
    3b44:	4ec48413          	add	s0,s1,1260
    3b48:	000a8593          	mv	a1,s5
    3b4c:	00a00613          	li	a2,10
    3b50:	00040513          	mv	a0,s0
    3b54:	b55ff0ef          	jal	36a8 <pool_max_2x2>
    3b58:	908a4a83          	lbu	s5,-1784(s4)
    3b5c:	080a9663          	bnez	s5,3be8 <infer+0x4bc>
    3b60:	780027f3          	csrr	a5,0x780
    3b64:	00101737          	lui	a4,0x101
    3b68:	ffe78793          	add	a5,a5,-2
    3b6c:	90f72e23          	sw	a5,-1764(a4) # 10091c <end_cycle>
    3b70:	00101b37          	lui	s6,0x101
    3b74:	001018b7          	lui	a7,0x101
    3b78:	920b2583          	lw	a1,-1760(s6) # 100920 <start_cycle>
    3b7c:	91c72503          	lw	a0,-1764(a4)
    3b80:	9188a603          	lw	a2,-1768(a7) # 100918 <paused_cycle_count>
    3b84:	00101737          	lui	a4,0x101
    3b88:	91072783          	lw	a5,-1776(a4) # 100910 <total_cycle_count>
    3b8c:	91472683          	lw	a3,-1772(a4)
    3b90:	40b50533          	sub	a0,a0,a1
    3b94:	40c50533          	sub	a0,a0,a2
    3b98:	00a78833          	add	a6,a5,a0
    3b9c:	41f55593          	sra	a1,a0,0x1f
    3ba0:	00b686b3          	add	a3,a3,a1
    3ba4:	00f837b3          	sltu	a5,a6,a5
    3ba8:	00d787b3          	add	a5,a5,a3
    3bac:	00810613          	add	a2,sp,8
    3bb0:	9008ac23          	sw	zero,-1768(a7)
    3bb4:	91072823          	sw	a6,-1776(a4)
    3bb8:	90f72a23          	sw	a5,-1772(a4)
    3bbc:	265010ef          	jal	5620 <bm_format_with_commas>
    3bc0:	001005b7          	lui	a1,0x100
    3bc4:	00100537          	lui	a0,0x100
    3bc8:	00810613          	add	a2,sp,8
    3bcc:	19058593          	add	a1,a1,400 # 100190 <__clz_tab+0x150>
    3bd0:	16c50513          	add	a0,a0,364 # 10016c <__clz_tab+0x12c>
    3bd4:	1b5010ef          	jal	5588 <bm_printf>
    3bd8:	780a9073          	csrw	0x780,s5
    3bdc:	780027f3          	csrr	a5,0x780
    3be0:	00378793          	add	a5,a5,3
    3be4:	92fb2023          	sw	a5,-1760(s6)
    3be8:	53248a93          	add	s5,s1,1330
    3bec:	00040593          	mv	a1,s0
    3bf0:	36090793          	add	a5,s2,864
    3bf4:	04090713          	add	a4,s2,64
    3bf8:	02000693          	li	a3,32
    3bfc:	01900613          	li	a2,25
    3c00:	000a8513          	mv	a0,s5
    3c04:	a19ff0ef          	jal	361c <linear>
    3c08:	908a4403          	lbu	s0,-1784(s4)
    3c0c:	08041663          	bnez	s0,3c98 <infer+0x56c>
    3c10:	780027f3          	csrr	a5,0x780
    3c14:	00101737          	lui	a4,0x101
    3c18:	ffe78793          	add	a5,a5,-2
    3c1c:	90f72e23          	sw	a5,-1764(a4) # 10091c <end_cycle>
    3c20:	00101b37          	lui	s6,0x101
    3c24:	001018b7          	lui	a7,0x101
    3c28:	920b2583          	lw	a1,-1760(s6) # 100920 <start_cycle>
    3c2c:	91c72503          	lw	a0,-1764(a4)
    3c30:	9188a603          	lw	a2,-1768(a7) # 100918 <paused_cycle_count>
    3c34:	00101737          	lui	a4,0x101
    3c38:	91072783          	lw	a5,-1776(a4) # 100910 <total_cycle_count>
    3c3c:	91472683          	lw	a3,-1772(a4)
    3c40:	40b50533          	sub	a0,a0,a1
    3c44:	40c50533          	sub	a0,a0,a2
    3c48:	00a78833          	add	a6,a5,a0
    3c4c:	41f55593          	sra	a1,a0,0x1f
    3c50:	00b686b3          	add	a3,a3,a1
    3c54:	00f837b3          	sltu	a5,a6,a5
    3c58:	00d787b3          	add	a5,a5,a3
    3c5c:	00810613          	add	a2,sp,8
    3c60:	9008ac23          	sw	zero,-1768(a7)
    3c64:	91072823          	sw	a6,-1776(a4)
    3c68:	90f72a23          	sw	a5,-1772(a4)
    3c6c:	1b5010ef          	jal	5620 <bm_format_with_commas>
    3c70:	001005b7          	lui	a1,0x100
    3c74:	00100537          	lui	a0,0x100
    3c78:	00810613          	add	a2,sp,8
    3c7c:	19858593          	add	a1,a1,408 # 100198 <__clz_tab+0x158>
    3c80:	16c50513          	add	a0,a0,364 # 10016c <__clz_tab+0x12c>
    3c84:	105010ef          	jal	5588 <bm_printf>
    3c88:	78041073          	csrw	0x780,s0
    3c8c:	780027f3          	csrr	a5,0x780
    3c90:	00378793          	add	a5,a5,3
    3c94:	92fb2023          	sw	a5,-1760(s6)
    3c98:	55248413          	add	s0,s1,1362
    3c9c:	74090793          	add	a5,s2,1856
    3ca0:	3e090713          	add	a4,s2,992
    3ca4:	01b00693          	li	a3,27
    3ca8:	02000613          	li	a2,32
    3cac:	000a8593          	mv	a1,s5
    3cb0:	00040513          	mv	a0,s0
    3cb4:	969ff0ef          	jal	361c <linear>
    3cb8:	908a4903          	lbu	s2,-1784(s4)
    3cbc:	0e091c63          	bnez	s2,3db4 <infer+0x688>
    3cc0:	780027f3          	csrr	a5,0x780
    3cc4:	00101737          	lui	a4,0x101
    3cc8:	ffe78793          	add	a5,a5,-2
    3ccc:	90f72e23          	sw	a5,-1764(a4) # 10091c <end_cycle>
    3cd0:	00101a37          	lui	s4,0x101
    3cd4:	001018b7          	lui	a7,0x101
    3cd8:	920a2583          	lw	a1,-1760(s4) # 100920 <start_cycle>
    3cdc:	91c72503          	lw	a0,-1764(a4)
    3ce0:	9188a603          	lw	a2,-1768(a7) # 100918 <paused_cycle_count>
    3ce4:	00101737          	lui	a4,0x101
    3ce8:	91072783          	lw	a5,-1776(a4) # 100910 <total_cycle_count>
    3cec:	91472683          	lw	a3,-1772(a4)
    3cf0:	40b50533          	sub	a0,a0,a1
    3cf4:	40c50533          	sub	a0,a0,a2
    3cf8:	00a78833          	add	a6,a5,a0
    3cfc:	41f55593          	sra	a1,a0,0x1f
    3d00:	00b686b3          	add	a3,a3,a1
    3d04:	00f837b3          	sltu	a5,a6,a5
    3d08:	00d787b3          	add	a5,a5,a3
    3d0c:	00810613          	add	a2,sp,8
    3d10:	9008ac23          	sw	zero,-1768(a7)
    3d14:	91072823          	sw	a6,-1776(a4)
    3d18:	90f72a23          	sw	a5,-1772(a4)
    3d1c:	105010ef          	jal	5620 <bm_format_with_commas>
    3d20:	001005b7          	lui	a1,0x100
    3d24:	00100537          	lui	a0,0x100
    3d28:	00810613          	add	a2,sp,8
    3d2c:	1a058593          	add	a1,a1,416 # 1001a0 <__clz_tab+0x160>
    3d30:	16c50513          	add	a0,a0,364 # 10016c <__clz_tab+0x12c>
    3d34:	055010ef          	jal	5588 <bm_printf>
    3d38:	78091073          	csrw	0x780,s2
    3d3c:	780027f3          	csrr	a5,0x780
    3d40:	00378793          	add	a5,a5,3
    3d44:	92fa2023          	sw	a5,-1760(s4)
    3d48:	03412a83          	lw	s5,52(sp)
    3d4c:	03012b03          	lw	s6,48(sp)
    3d50:	aa9ff06f          	j	37f8 <infer+0xcc>
    3d54:	00100537          	lui	a0,0x100
    3d58:	14050513          	add	a0,a0,320 # 100140 <__clz_tab+0x100>
    3d5c:	02d010ef          	jal	5588 <bm_printf>
    3d60:	00100793          	li	a5,1
    3d64:	cc079073          	csrw	0xcc0,a5
    3d68:	780a9073          	csrw	0x780,s5
    3d6c:	780027f3          	csrr	a5,0x780
    3d70:	00101737          	lui	a4,0x101
    3d74:	00378793          	add	a5,a5,3
    3d78:	92f72023          	sw	a5,-1760(a4) # 100920 <start_cycle>
    3d7c:	01c92703          	lw	a4,28(s2)
    3d80:	001017b7          	lui	a5,0x101
    3d84:	00000813          	li	a6,0
    3d88:	00000893          	li	a7,0
    3d8c:	00090693          	mv	a3,s2
    3d90:	02000613          	li	a2,32
    3d94:	00040593          	mv	a1,s0
    3d98:	00048513          	mv	a0,s1
    3d9c:	9007ac23          	sw	zero,-1768(a5) # 100918 <paused_cycle_count>
    3da0:	001017b7          	lui	a5,0x101
    3da4:	9107a823          	sw	a6,-1776(a5) # 100910 <total_cycle_count>
    3da8:	9117aa23          	sw	a7,-1772(a5)
    3dac:	fd4ff0ef          	jal	3580 <conv>
    3db0:	bb5ff06f          	j	3964 <infer+0x238>
    3db4:	03412a83          	lw	s5,52(sp)
    3db8:	03012b03          	lw	s6,48(sp)
    3dbc:	a3dff06f          	j	37f8 <infer+0xcc>
    3dc0:	03412a83          	lw	s5,52(sp)
    3dc4:	a85ff06f          	j	3848 <infer+0x11c>

Disassembly of section .text.startup.main:

00003dc8 <main>:
    3dc8:	00100537          	lui	a0,0x100
    3dcc:	fd010113          	add	sp,sp,-48
    3dd0:	1b850513          	add	a0,a0,440 # 1001b8 <__clz_tab+0x178>
    3dd4:	02112623          	sw	ra,44(sp)
    3dd8:	02812423          	sw	s0,40(sp)
    3ddc:	02912223          	sw	s1,36(sp)
    3de0:	03212023          	sw	s2,32(sp)
    3de4:	01312e23          	sw	s3,28(sp)
    3de8:	01412c23          	sw	s4,24(sp)
    3dec:	01512a23          	sw	s5,20(sp)
    3df0:	01612823          	sw	s6,16(sp)
    3df4:	794010ef          	jal	5588 <bm_printf>
    3df8:	028020ef          	jal	5e20 <alloc_init>
    3dfc:	06d020ef          	jal	6668 <load_model_params>
    3e00:	00050913          	mv	s2,a0
    3e04:	00100537          	lui	a0,0x100
    3e08:	56d00593          	li	a1,1389
    3e0c:	1e850513          	add	a0,a0,488 # 1001e8 <__clz_tab+0x1a8>
    3e10:	778010ef          	jal	5588 <bm_printf>
    3e14:	001009b7          	lui	s3,0x100
    3e18:	22498593          	add	a1,s3,548 # 100224 <__clz_tab+0x1e4>
    3e1c:	56d00513          	li	a0,1389
    3e20:	134020ef          	jal	5f54 <alloc_get>
    3e24:	00100a37          	lui	s4,0x100
    3e28:	00050493          	mv	s1,a0
    3e2c:	230a0593          	add	a1,s4,560 # 100230 <__clz_tab+0x1f0>
    3e30:	40400513          	li	a0,1028
    3e34:	120020ef          	jal	5f54 <alloc_get>
    3e38:	00050413          	mv	s0,a0
    3e3c:	00100537          	lui	a0,0x100
    3e40:	16050513          	add	a0,a0,352 # 100160 <__clz_tab+0x120>
    3e44:	744010ef          	jal	5588 <bm_printf>
    3e48:	00100537          	lui	a0,0x100
    3e4c:	00040613          	mv	a2,s0
    3e50:	00c10593          	add	a1,sp,12
    3e54:	00000713          	li	a4,0
    3e58:	40400693          	li	a3,1028
    3e5c:	23c50513          	add	a0,a0,572 # 10023c <__clz_tab+0x1fc>
    3e60:	6ad010ef          	jal	5d0c <load_hex_file>
    3e64:	00244b03          	lbu	s6,2(s0)
    3e68:	00344a83          	lbu	s5,3(s0)
    3e6c:	00048613          	mv	a2,s1
    3e70:	00090593          	mv	a1,s2
    3e74:	00000713          	li	a4,0
    3e78:	00100693          	li	a3,1
    3e7c:	00440513          	add	a0,s0,4
    3e80:	8adff0ef          	jal	372c <infer>
    3e84:	000b0693          	mv	a3,s6
    3e88:	00100713          	li	a4,1
    3e8c:	00000613          	li	a2,0
    3e90:	000a8593          	mv	a1,s5
    3e94:	041020ef          	jal	66d4 <output_detection>
    3e98:	00c12503          	lw	a0,12(sp)
    3e9c:	1a4000ef          	jal	4040 <bm_fclose>
    3ea0:	001005b7          	lui	a1,0x100
    3ea4:	00090513          	mv	a0,s2
    3ea8:	27458593          	add	a1,a1,628 # 100274 <__clz_tab+0x234>
    3eac:	464020ef          	jal	6310 <alloc_free>
    3eb0:	230a0593          	add	a1,s4,560
    3eb4:	00040513          	mv	a0,s0
    3eb8:	458020ef          	jal	6310 <alloc_free>
    3ebc:	22498593          	add	a1,s3,548
    3ec0:	00048513          	mv	a0,s1
    3ec4:	44c020ef          	jal	6310 <alloc_free>
    3ec8:	2a0000ef          	jal	4168 <bm_quit_app>
    3ecc:	02c12083          	lw	ra,44(sp)
    3ed0:	02812403          	lw	s0,40(sp)
    3ed4:	02412483          	lw	s1,36(sp)
    3ed8:	02012903          	lw	s2,32(sp)
    3edc:	01c12983          	lw	s3,28(sp)
    3ee0:	01812a03          	lw	s4,24(sp)
    3ee4:	01412a83          	lw	s5,20(sp)
    3ee8:	01012b03          	lw	s6,16(sp)
    3eec:	00000513          	li	a0,0
    3ef0:	03010113          	add	sp,sp,48
    3ef4:	00008067          	ret

Disassembly of section .text.k5_send_char:

00003ef8 <k5_send_char>:
    3ef8:	001007b7          	lui	a5,0x100
    3efc:	00101f37          	lui	t5,0x101
    3f00:	7f47ae83          	lw	t4,2036(a5) # 1007f4 <sys_reg_com_ptr>
    3f04:	904f2303          	lw	t1,-1788(t5) # 100904 <tx_wr_idx>
    3f08:	10000893          	li	a7,256
    3f0c:	0018d893          	srl	a7,a7,0x1
    3f10:	00106e37          	lui	t3,0x106
    3f14:	00100793          	li	a5,1
    3f18:	ff888f93          	add	t6,a7,-8
    3f1c:	00fea023          	sw	a5,0(t4)
    3f20:	00130593          	add	a1,t1,1
    3f24:	ff788893          	add	a7,a7,-9
    3f28:	f00e0613          	add	a2,t3,-256 # 105f00 <IOBUF_BASE>
    3f2c:	00464803          	lbu	a6,4(a2)
    3f30:	00564683          	lbu	a3,5(a2)
    3f34:	00664703          	lbu	a4,6(a2)
    3f38:	00764783          	lbu	a5,7(a2)
    3f3c:	00869693          	sll	a3,a3,0x8
    3f40:	0106e6b3          	or	a3,a3,a6
    3f44:	01071713          	sll	a4,a4,0x10
    3f48:	00d76733          	or	a4,a4,a3
    3f4c:	01879793          	sll	a5,a5,0x18
    3f50:	00e7e7b3          	or	a5,a5,a4
    3f54:	fcb78ce3          	beq	a5,a1,3f2c <k5_send_char+0x34>
    3f58:	01131463          	bne	t1,a7,3f60 <k5_send_char+0x68>
    3f5c:	fc0788e3          	beqz	a5,3f2c <k5_send_char+0x34>
    3f60:	001067b7          	lui	a5,0x106
    3f64:	f0878793          	add	a5,a5,-248 # 105f08 <IOBUF_BASE+0x8>
    3f68:	00f30333          	add	t1,t1,a5
    3f6c:	90bf2223          	sw	a1,-1788(t5)
    3f70:	00a30023          	sb	a0,0(t1)
    3f74:	01f59663          	bne	a1,t6,3f80 <k5_send_char+0x88>
    3f78:	900f2223          	sw	zero,-1788(t5)
    3f7c:	00000593          	li	a1,0
    3f80:	0ff5f793          	zext.b	a5,a1
    3f84:	0085d713          	srl	a4,a1,0x8
    3f88:	f00e4683          	lbu	a3,-256(t3)
    3f8c:	0ff77713          	zext.b	a4,a4
    3f90:	f0fe0023          	sb	a5,-256(t3)
    3f94:	0105d793          	srl	a5,a1,0x10
    3f98:	f01e4683          	lbu	a3,-255(t3)
    3f9c:	0ff7f793          	zext.b	a5,a5
    3fa0:	f0ee00a3          	sb	a4,-255(t3)
    3fa4:	f02e4703          	lbu	a4,-254(t3)
    3fa8:	0185d593          	srl	a1,a1,0x18
    3fac:	f0fe0123          	sb	a5,-254(t3)
    3fb0:	f03e4783          	lbu	a5,-253(t3)
    3fb4:	f0be01a3          	sb	a1,-253(t3)
    3fb8:	000ea023          	sw	zero,0(t4)
    3fbc:	00008067          	ret

Disassembly of section .text.k5_get_char:

00003fc0 <k5_get_char>:
    3fc0:	00101637          	lui	a2,0x101
    3fc4:	10000793          	li	a5,256
    3fc8:	00106737          	lui	a4,0x106
    3fcc:	90062683          	lw	a3,-1792(a2) # 100900 <rx_rd_idx>
    3fd0:	0017d793          	srl	a5,a5,0x1
    3fd4:	f0070713          	add	a4,a4,-256 # 105f00 <IOBUF_BASE>
    3fd8:	ff878593          	add	a1,a5,-8
    3fdc:	00e787b3          	add	a5,a5,a4
    3fe0:	0047a703          	lw	a4,4(a5)
    3fe4:	fed70ee3          	beq	a4,a3,3fe0 <k5_get_char+0x20>
    3fe8:	00868713          	add	a4,a3,8
    3fec:	00e78733          	add	a4,a5,a4
    3ff0:	00074503          	lbu	a0,0(a4)
    3ff4:	00168693          	add	a3,a3,1
    3ff8:	90d62023          	sw	a3,-1792(a2)
    3ffc:	0ff57513          	zext.b	a0,a0
    4000:	00b69663          	bne	a3,a1,400c <k5_get_char+0x4c>
    4004:	90062023          	sw	zero,-1792(a2)
    4008:	00000693          	li	a3,0
    400c:	00d7a023          	sw	a3,0(a5)
    4010:	00008067          	ret

Disassembly of section .text.bm_fopen_r:

00004014 <bm_fopen_r>:
    4014:	00050593          	mv	a1,a0
    4018:	00100537          	lui	a0,0x100
    401c:	ff010113          	add	sp,sp,-16
    4020:	07200613          	li	a2,114
    4024:	2b050513          	add	a0,a0,688 # 1002b0 <__clz_tab+0x270>
    4028:	00112623          	sw	ra,12(sp)
    402c:	55c010ef          	jal	5588 <bm_printf>
    4030:	f91ff0ef          	jal	3fc0 <k5_get_char>
    4034:	00c12083          	lw	ra,12(sp)
    4038:	01010113          	add	sp,sp,16
    403c:	00008067          	ret

Disassembly of section .text.bm_fclose:

00004040 <bm_fclose>:
    4040:	00050593          	mv	a1,a0
    4044:	00100537          	lui	a0,0x100
    4048:	ff010113          	add	sp,sp,-16
    404c:	2d050513          	add	a0,a0,720 # 1002d0 <__clz_tab+0x290>
    4050:	00112623          	sw	ra,12(sp)
    4054:	534010ef          	jal	5588 <bm_printf>
    4058:	00c12083          	lw	ra,12(sp)
    405c:	00100513          	li	a0,1
    4060:	01010113          	add	sp,sp,16
    4064:	00008067          	ret

Disassembly of section .text.bm_start_soc_load_hex_file:

00004068 <bm_start_soc_load_hex_file>:
    4068:	00060693          	mv	a3,a2
    406c:	00058613          	mv	a2,a1
    4070:	00050593          	mv	a1,a0
    4074:	00100537          	lui	a0,0x100
    4078:	2e850513          	add	a0,a0,744 # 1002e8 <__clz_tab+0x2a8>
    407c:	50c0106f          	j	5588 <bm_printf>

Disassembly of section .text.bm_check_soc_load_hex_file:

00004080 <bm_check_soc_load_hex_file>:
    4080:	00100537          	lui	a0,0x100
    4084:	fe010113          	add	sp,sp,-32
    4088:	31050513          	add	a0,a0,784 # 100310 <__clz_tab+0x2d0>
    408c:	00812c23          	sw	s0,24(sp)
    4090:	00912a23          	sw	s1,20(sp)
    4094:	01212823          	sw	s2,16(sp)
    4098:	00112e23          	sw	ra,28(sp)
    409c:	00410493          	add	s1,sp,4
    40a0:	4e8010ef          	jal	5588 <bm_printf>
    40a4:	00000413          	li	s0,0
    40a8:	0ff00913          	li	s2,255
    40ac:	0080006f          	j	40b4 <bm_check_soc_load_hex_file+0x34>
    40b0:	00140413          	add	s0,s0,1
    40b4:	f0dff0ef          	jal	3fc0 <k5_get_char>
    40b8:	00a48023          	sb	a0,0(s1)
    40bc:	00148493          	add	s1,s1,1
    40c0:	ff2518e3          	bne	a0,s2,40b0 <bm_check_soc_load_hex_file+0x30>
    40c4:	02041063          	bnez	s0,40e4 <bm_check_soc_load_hex_file+0x64>
    40c8:	01c12083          	lw	ra,28(sp)
    40cc:	00040513          	mv	a0,s0
    40d0:	01812403          	lw	s0,24(sp)
    40d4:	01412483          	lw	s1,20(sp)
    40d8:	01012903          	lw	s2,16(sp)
    40dc:	02010113          	add	sp,sp,32
    40e0:	00008067          	ret
    40e4:	01040793          	add	a5,s0,16
    40e8:	00278433          	add	s0,a5,sp
    40ec:	fe040a23          	sb	zero,-12(s0)
    40f0:	00414703          	lbu	a4,4(sp)
    40f4:	06070663          	beqz	a4,4160 <bm_check_soc_load_hex_file+0xe0>
    40f8:	00510613          	add	a2,sp,5
    40fc:	00000413          	li	s0,0
    4100:	00900513          	li	a0,9
    4104:	00500813          	li	a6,5
    4108:	01c0006f          	j	4124 <bm_check_soc_load_hex_file+0xa4>
    410c:	0ff77793          	zext.b	a5,a4
    4110:	00064703          	lbu	a4,0(a2)
    4114:	00441413          	sll	s0,s0,0x4
    4118:	00160613          	add	a2,a2,1
    411c:	00878433          	add	s0,a5,s0
    4120:	fa0704e3          	beqz	a4,40c8 <bm_check_soc_load_hex_file+0x48>
    4124:	fd070793          	add	a5,a4,-48
    4128:	fbf70693          	add	a3,a4,-65
    412c:	0ff7f793          	zext.b	a5,a5
    4130:	0ff6f693          	zext.b	a3,a3
    4134:	fcf57ee3          	bgeu	a0,a5,4110 <bm_check_soc_load_hex_file+0x90>
    4138:	f9f70593          	add	a1,a4,-97
    413c:	fc970793          	add	a5,a4,-55
    4140:	0ff5f593          	zext.b	a1,a1
    4144:	fa970713          	add	a4,a4,-87
    4148:	0ff7f793          	zext.b	a5,a5
    414c:	fcd872e3          	bgeu	a6,a3,4110 <bm_check_soc_load_hex_file+0x90>
    4150:	fab87ee3          	bgeu	a6,a1,410c <bm_check_soc_load_hex_file+0x8c>
    4154:	00100537          	lui	a0,0x100
    4158:	28450513          	add	a0,a0,644 # 100284 <__clz_tab+0x244>
    415c:	42c010ef          	jal	5588 <bm_printf>
    4160:	00000413          	li	s0,0
    4164:	f65ff06f          	j	40c8 <bm_check_soc_load_hex_file+0x48>

Disassembly of section .text.bm_quit_app:

00004168 <bm_quit_app>:
    4168:	00100537          	lui	a0,0x100
    416c:	ff010113          	add	sp,sp,-16
    4170:	33050513          	add	a0,a0,816 # 100330 <__clz_tab+0x2f0>
    4174:	00112623          	sw	ra,12(sp)
    4178:	410010ef          	jal	5588 <bm_printf>
    417c:	00c12083          	lw	ra,12(sp)
    4180:	01010113          	add	sp,sp,16
    4184:	e3dff06f          	j	3fc0 <k5_get_char>

Disassembly of section .text.number:

00004188 <number>:
    4188:	f6010113          	add	sp,sp,-160
    418c:	08812c23          	sw	s0,152(sp)
    4190:	08912a23          	sw	s1,148(sp)
    4194:	09212823          	sw	s2,144(sp)
    4198:	09312623          	sw	s3,140(sp)
    419c:	09612023          	sw	s6,128(sp)
    41a0:	08112e23          	sw	ra,156(sp)
    41a4:	09412423          	sw	s4,136(sp)
    41a8:	09512223          	sw	s5,132(sp)
    41ac:	07712e23          	sw	s7,124(sp)
    41b0:	07812c23          	sw	s8,120(sp)
    41b4:	07a12823          	sw	s10,112(sp)
    41b8:	07b12623          	sw	s11,108(sp)
    41bc:	0407f813          	and	a6,a5,64
    41c0:	00050413          	mv	s0,a0
    41c4:	00058993          	mv	s3,a1
    41c8:	00060493          	mv	s1,a2
    41cc:	00068913          	mv	s2,a3
    41d0:	00070b13          	mv	s6,a4
    41d4:	1c081063          	bnez	a6,4394 <number+0x20c>
    41d8:	00100ab7          	lui	s5,0x100
    41dc:	344a8a93          	add	s5,s5,836 # 100344 <__clz_tab+0x304>
    41e0:	0107fc13          	and	s8,a5,16
    41e4:	180c0463          	beqz	s8,436c <number+0x1e4>
    41e8:	01000713          	li	a4,16
    41ec:	00e12223          	sw	a4,4(sp)
    41f0:	02000713          	li	a4,32
    41f4:	ffe7f793          	and	a5,a5,-2
    41f8:	00e12623          	sw	a4,12(sp)
    41fc:	0027f713          	and	a4,a5,2
    4200:	0207fb93          	and	s7,a5,32
    4204:	18070e63          	beqz	a4,43a0 <number+0x218>
    4208:	2009ca63          	bltz	s3,441c <number+0x294>
    420c:	0047f713          	and	a4,a5,4
    4210:	1e071263          	bnez	a4,43f4 <number+0x26c>
    4214:	0087f793          	and	a5,a5,8
    4218:	00012423          	sw	zero,8(sp)
    421c:	00078863          	beqz	a5,422c <number+0xa4>
    4220:	02000793          	li	a5,32
    4224:	fff90913          	add	s2,s2,-1
    4228:	00f12423          	sw	a5,8(sp)
    422c:	000b8e63          	beqz	s7,4248 <number+0xc0>
    4230:	01000793          	li	a5,16
    4234:	20f48263          	beq	s1,a5,4438 <number+0x2b0>
    4238:	ff848793          	add	a5,s1,-8
    423c:	0017b793          	seqz	a5,a5
    4240:	02000b93          	li	s7,32
    4244:	40f90933          	sub	s2,s2,a5
    4248:	16099063          	bnez	s3,43a8 <number+0x220>
    424c:	03000793          	li	a5,48
    4250:	00f10e23          	sb	a5,28(sp)
    4254:	00100d13          	li	s10,1
    4258:	01c10d93          	add	s11,sp,28
    425c:	000d0a13          	mv	s4,s10
    4260:	016d5463          	bge	s10,s6,4268 <number+0xe0>
    4264:	000b0a13          	mv	s4,s6
    4268:	00412783          	lw	a5,4(sp)
    426c:	41490933          	sub	s2,s2,s4
    4270:	02079063          	bnez	a5,4290 <number+0x108>
    4274:	1f205a63          	blez	s2,4468 <number+0x2e0>
    4278:	00090613          	mv	a2,s2
    427c:	00040513          	mv	a0,s0
    4280:	02000593          	li	a1,32
    4284:	01240433          	add	s0,s0,s2
    4288:	eedfe0ef          	jal	3174 <memset>
    428c:	fff00913          	li	s2,-1
    4290:	00812783          	lw	a5,8(sp)
    4294:	00078663          	beqz	a5,42a0 <number+0x118>
    4298:	00f40023          	sb	a5,0(s0)
    429c:	00140413          	add	s0,s0,1
    42a0:	000b8a63          	beqz	s7,42b4 <number+0x12c>
    42a4:	00800713          	li	a4,8
    42a8:	18e48e63          	beq	s1,a4,4444 <number+0x2bc>
    42ac:	01000713          	li	a4,16
    42b0:	14e48a63          	beq	s1,a4,4404 <number+0x27c>
    42b4:	020c1063          	bnez	s8,42d4 <number+0x14c>
    42b8:	1b205463          	blez	s2,4460 <number+0x2d8>
    42bc:	00c12583          	lw	a1,12(sp)
    42c0:	00090613          	mv	a2,s2
    42c4:	00040513          	mv	a0,s0
    42c8:	eadfe0ef          	jal	3174 <memset>
    42cc:	01240433          	add	s0,s0,s2
    42d0:	fff00913          	li	s2,-1
    42d4:	014d5e63          	bge	s10,s4,42f0 <number+0x168>
    42d8:	41aa0a33          	sub	s4,s4,s10
    42dc:	00040513          	mv	a0,s0
    42e0:	000a0613          	mv	a2,s4
    42e4:	03000593          	li	a1,48
    42e8:	e8dfe0ef          	jal	3174 <memset>
    42ec:	01440433          	add	s0,s0,s4
    42f0:	013d87b3          	add	a5,s11,s3
    42f4:	00040713          	mv	a4,s0
    42f8:	0007c603          	lbu	a2,0(a5)
    42fc:	00078693          	mv	a3,a5
    4300:	00170713          	add	a4,a4,1
    4304:	fec70fa3          	sb	a2,-1(a4)
    4308:	fff78793          	add	a5,a5,-1
    430c:	fedd96e3          	bne	s11,a3,42f8 <number+0x170>
    4310:	00198993          	add	s3,s3,1
    4314:	01340433          	add	s0,s0,s3
    4318:	01205c63          	blez	s2,4330 <number+0x1a8>
    431c:	00040513          	mv	a0,s0
    4320:	00090613          	mv	a2,s2
    4324:	02000593          	li	a1,32
    4328:	e4dfe0ef          	jal	3174 <memset>
    432c:	01240433          	add	s0,s0,s2
    4330:	09c12083          	lw	ra,156(sp)
    4334:	00040513          	mv	a0,s0
    4338:	09812403          	lw	s0,152(sp)
    433c:	09412483          	lw	s1,148(sp)
    4340:	09012903          	lw	s2,144(sp)
    4344:	08c12983          	lw	s3,140(sp)
    4348:	08812a03          	lw	s4,136(sp)
    434c:	08412a83          	lw	s5,132(sp)
    4350:	08012b03          	lw	s6,128(sp)
    4354:	07c12b83          	lw	s7,124(sp)
    4358:	07812c03          	lw	s8,120(sp)
    435c:	07012d03          	lw	s10,112(sp)
    4360:	06c12d83          	lw	s11,108(sp)
    4364:	0a010113          	add	sp,sp,160
    4368:	00008067          	ret
    436c:	0117f693          	and	a3,a5,17
    4370:	0017f713          	and	a4,a5,1
    4374:	00d12223          	sw	a3,4(sp)
    4378:	0e070c63          	beqz	a4,4470 <number+0x2e8>
    437c:	03000713          	li	a4,48
    4380:	00e12623          	sw	a4,12(sp)
    4384:	0027f713          	and	a4,a5,2
    4388:	0207fb93          	and	s7,a5,32
    438c:	00070a63          	beqz	a4,43a0 <number+0x218>
    4390:	e79ff06f          	j	4208 <number+0x80>
    4394:	00100ab7          	lui	s5,0x100
    4398:	36ca8a93          	add	s5,s5,876 # 10036c <__clz_tab+0x32c>
    439c:	e45ff06f          	j	41e0 <number+0x58>
    43a0:	00012423          	sw	zero,8(sp)
    43a4:	e89ff06f          	j	422c <number+0xa4>
    43a8:	07912a23          	sw	s9,116(sp)
    43ac:	00098513          	mv	a0,s3
    43b0:	00000d13          	li	s10,0
    43b4:	01c10d93          	add	s11,sp,28
    43b8:	00048593          	mv	a1,s1
    43bc:	00050a13          	mv	s4,a0
    43c0:	b29fe0ef          	jal	2ee8 <__umodsi3>
    43c4:	00aa8533          	add	a0,s5,a0
    43c8:	00054683          	lbu	a3,0(a0)
    43cc:	000d0993          	mv	s3,s10
    43d0:	001d0d13          	add	s10,s10,1
    43d4:	01ad8cb3          	add	s9,s11,s10
    43d8:	00048593          	mv	a1,s1
    43dc:	000a0513          	mv	a0,s4
    43e0:	fedc8fa3          	sb	a3,-1(s9)
    43e4:	abdfe0ef          	jal	2ea0 <__hidden___udivsi3>
    43e8:	fc9a78e3          	bgeu	s4,s1,43b8 <number+0x230>
    43ec:	07412c83          	lw	s9,116(sp)
    43f0:	e6dff06f          	j	425c <number+0xd4>
    43f4:	02b00793          	li	a5,43
    43f8:	fff90913          	add	s2,s2,-1
    43fc:	00f12423          	sw	a5,8(sp)
    4400:	e2dff06f          	j	422c <number+0xa4>
    4404:	03000713          	li	a4,48
    4408:	00e40023          	sb	a4,0(s0)
    440c:	07800713          	li	a4,120
    4410:	00e400a3          	sb	a4,1(s0)
    4414:	00240413          	add	s0,s0,2
    4418:	e9dff06f          	j	42b4 <number+0x12c>
    441c:	413009b3          	neg	s3,s3
    4420:	fff90913          	add	s2,s2,-1
    4424:	020b9863          	bnez	s7,4454 <number+0x2cc>
    4428:	02d00793          	li	a5,45
    442c:	07912a23          	sw	s9,116(sp)
    4430:	00f12423          	sw	a5,8(sp)
    4434:	f79ff06f          	j	43ac <number+0x224>
    4438:	ffe90913          	add	s2,s2,-2
    443c:	02000b93          	li	s7,32
    4440:	e09ff06f          	j	4248 <number+0xc0>
    4444:	03000713          	li	a4,48
    4448:	00e40023          	sb	a4,0(s0)
    444c:	00140413          	add	s0,s0,1
    4450:	e65ff06f          	j	42b4 <number+0x12c>
    4454:	02d00793          	li	a5,45
    4458:	00f12423          	sw	a5,8(sp)
    445c:	dd5ff06f          	j	4230 <number+0xa8>
    4460:	fff90913          	add	s2,s2,-1
    4464:	e71ff06f          	j	42d4 <number+0x14c>
    4468:	fff90913          	add	s2,s2,-1
    446c:	e25ff06f          	j	4290 <number+0x108>
    4470:	02000713          	li	a4,32
    4474:	00012223          	sw	zero,4(sp)
    4478:	00e12623          	sw	a4,12(sp)
    447c:	d81ff06f          	j	41fc <number+0x74>

Disassembly of section .text.ee_vsprintf:

00004480 <ee_vsprintf>:
    4480:	ef010113          	add	sp,sp,-272
    4484:	10112623          	sw	ra,268(sp)
    4488:	10912223          	sw	s1,260(sp)
    448c:	0005c783          	lbu	a5,0(a1)
    4490:	00a12423          	sw	a0,8(sp)
    4494:	3e078ee3          	beqz	a5,5090 <ee_vsprintf+0xc10>
    4498:	001008b7          	lui	a7,0x100
    449c:	10812423          	sw	s0,264(sp)
    44a0:	11212023          	sw	s2,256(sp)
    44a4:	0f312e23          	sw	s3,252(sp)
    44a8:	0f412c23          	sw	s4,248(sp)
    44ac:	0f512a23          	sw	s5,244(sp)
    44b0:	0f612823          	sw	s6,240(sp)
    44b4:	0f712623          	sw	s7,236(sp)
    44b8:	0f812423          	sw	s8,232(sp)
    44bc:	0f912223          	sw	s9,228(sp)
    44c0:	0fa12023          	sw	s10,224(sp)
    44c4:	0db12e23          	sw	s11,220(sp)
    44c8:	00058413          	mv	s0,a1
    44cc:	00060b93          	mv	s7,a2
    44d0:	00050493          	mv	s1,a0
    44d4:	02500993          	li	s3,37
    44d8:	01000b13          	li	s6,16
    44dc:	5d488913          	add	s2,a7,1492 # 1005d4 <__clz_tab+0x594>
    44e0:	00900a93          	li	s5,9
    44e4:	02e00a13          	li	s4,46
    44e8:	07378063          	beq	a5,s3,4548 <ee_vsprintf+0xc8>
    44ec:	00f48023          	sb	a5,0(s1)
    44f0:	00144783          	lbu	a5,1(s0)
    44f4:	00148493          	add	s1,s1,1
    44f8:	00140413          	add	s0,s0,1
    44fc:	fe0796e3          	bnez	a5,44e8 <ee_vsprintf+0x68>
    4500:	10812403          	lw	s0,264(sp)
    4504:	10012903          	lw	s2,256(sp)
    4508:	0fc12983          	lw	s3,252(sp)
    450c:	0f812a03          	lw	s4,248(sp)
    4510:	0f412a83          	lw	s5,244(sp)
    4514:	0f012b03          	lw	s6,240(sp)
    4518:	0ec12b83          	lw	s7,236(sp)
    451c:	0e812c03          	lw	s8,232(sp)
    4520:	0e412c83          	lw	s9,228(sp)
    4524:	0e012d03          	lw	s10,224(sp)
    4528:	0dc12d83          	lw	s11,220(sp)
    452c:	00048023          	sb	zero,0(s1)
    4530:	00812783          	lw	a5,8(sp)
    4534:	10c12083          	lw	ra,268(sp)
    4538:	40f48533          	sub	a0,s1,a5
    453c:	10412483          	lw	s1,260(sp)
    4540:	11010113          	add	sp,sp,272
    4544:	00008067          	ret
    4548:	00000793          	li	a5,0
    454c:	00144803          	lbu	a6,1(s0)
    4550:	00140c93          	add	s9,s0,1
    4554:	fe080713          	add	a4,a6,-32
    4558:	0ff77713          	zext.b	a4,a4
    455c:	00eb6a63          	bltu	s6,a4,4570 <ee_vsprintf+0xf0>
    4560:	00271713          	sll	a4,a4,0x2
    4564:	01270733          	add	a4,a4,s2
    4568:	00072703          	lw	a4,0(a4)
    456c:	00070067          	jr	a4
    4570:	fd080713          	add	a4,a6,-48
    4574:	0ff77713          	zext.b	a4,a4
    4578:	10eafe63          	bgeu	s5,a4,4694 <ee_vsprintf+0x214>
    457c:	02a00713          	li	a4,42
    4580:	fff00d13          	li	s10,-1
    4584:	14e80263          	beq	a6,a4,46c8 <ee_vsprintf+0x248>
    4588:	fff00d93          	li	s11,-1
    458c:	0d480e63          	beq	a6,s4,4668 <ee_vsprintf+0x1e8>
    4590:	0df87713          	and	a4,a6,223
    4594:	04c00693          	li	a3,76
    4598:	08d70e63          	beq	a4,a3,4634 <ee_vsprintf+0x1b4>
    459c:	fbf80713          	add	a4,a6,-65
    45a0:	0ff77713          	zext.b	a4,a4
    45a4:	03700693          	li	a3,55
    45a8:	04e6ec63          	bltu	a3,a4,4600 <ee_vsprintf+0x180>
    45ac:	001006b7          	lui	a3,0x100
    45b0:	00271713          	sll	a4,a4,0x2
    45b4:	61868693          	add	a3,a3,1560 # 100618 <__clz_tab+0x5d8>
    45b8:	00d70733          	add	a4,a4,a3
    45bc:	00072703          	lw	a4,0(a4)
    45c0:	00070067          	jr	a4
    45c4:	0017e793          	or	a5,a5,1
    45c8:	000c8413          	mv	s0,s9
    45cc:	f81ff06f          	j	454c <ee_vsprintf+0xcc>
    45d0:	0107e793          	or	a5,a5,16
    45d4:	000c8413          	mv	s0,s9
    45d8:	f75ff06f          	j	454c <ee_vsprintf+0xcc>
    45dc:	0047e793          	or	a5,a5,4
    45e0:	000c8413          	mv	s0,s9
    45e4:	f69ff06f          	j	454c <ee_vsprintf+0xcc>
    45e8:	0207e793          	or	a5,a5,32
    45ec:	000c8413          	mv	s0,s9
    45f0:	f5dff06f          	j	454c <ee_vsprintf+0xcc>
    45f4:	0087e793          	or	a5,a5,8
    45f8:	000c8413          	mv	s0,s9
    45fc:	f51ff06f          	j	454c <ee_vsprintf+0xcc>
    4600:	000c8c13          	mv	s8,s9
    4604:	02500793          	li	a5,37
    4608:	00f80a63          	beq	a6,a5,461c <ee_vsprintf+0x19c>
    460c:	00f48023          	sb	a5,0(s1)
    4610:	000c4803          	lbu	a6,0(s8)
    4614:	00148493          	add	s1,s1,1
    4618:	ee0804e3          	beqz	a6,4500 <ee_vsprintf+0x80>
    461c:	01048023          	sb	a6,0(s1)
    4620:	001c4783          	lbu	a5,1(s8)
    4624:	001c0413          	add	s0,s8,1
    4628:	00148493          	add	s1,s1,1
    462c:	ea079ee3          	bnez	a5,44e8 <ee_vsprintf+0x68>
    4630:	ed1ff06f          	j	4500 <ee_vsprintf+0x80>
    4634:	00080593          	mv	a1,a6
    4638:	001cc803          	lbu	a6,1(s9)
    463c:	03700693          	li	a3,55
    4640:	001c8c13          	add	s8,s9,1
    4644:	fbf80713          	add	a4,a6,-65
    4648:	0ff77713          	zext.b	a4,a4
    464c:	fae6ece3          	bltu	a3,a4,4604 <ee_vsprintf+0x184>
    4650:	001006b7          	lui	a3,0x100
    4654:	00271713          	sll	a4,a4,0x2
    4658:	6f868693          	add	a3,a3,1784 # 1006f8 <__clz_tab+0x6b8>
    465c:	00d70733          	add	a4,a4,a3
    4660:	00072703          	lw	a4,0(a4)
    4664:	00070067          	jr	a4
    4668:	001cc803          	lbu	a6,1(s9)
    466c:	00900613          	li	a2,9
    4670:	001c8693          	add	a3,s9,1
    4674:	fd080713          	add	a4,a6,-48
    4678:	0ff77713          	zext.b	a4,a4
    467c:	0ae67063          	bgeu	a2,a4,471c <ee_vsprintf+0x29c>
    4680:	02a00713          	li	a4,42
    4684:	0ce80c63          	beq	a6,a4,475c <ee_vsprintf+0x2dc>
    4688:	00068c93          	mv	s9,a3
    468c:	00000d93          	li	s11,0
    4690:	f01ff06f          	j	4590 <ee_vsprintf+0x110>
    4694:	00000d13          	li	s10,0
    4698:	00900693          	li	a3,9
    469c:	002d1713          	sll	a4,s10,0x2
    46a0:	01a70733          	add	a4,a4,s10
    46a4:	001c8c93          	add	s9,s9,1
    46a8:	00171713          	sll	a4,a4,0x1
    46ac:	01070733          	add	a4,a4,a6
    46b0:	000cc803          	lbu	a6,0(s9)
    46b4:	fd070d13          	add	s10,a4,-48
    46b8:	fd080713          	add	a4,a6,-48
    46bc:	0ff77713          	zext.b	a4,a4
    46c0:	fce6fee3          	bgeu	a3,a4,469c <ee_vsprintf+0x21c>
    46c4:	ec5ff06f          	j	4588 <ee_vsprintf+0x108>
    46c8:	000bad03          	lw	s10,0(s7)
    46cc:	00244803          	lbu	a6,2(s0)
    46d0:	00240c93          	add	s9,s0,2
    46d4:	004b8b93          	add	s7,s7,4
    46d8:	ea0d58e3          	bgez	s10,4588 <ee_vsprintf+0x108>
    46dc:	41a00d33          	neg	s10,s10
    46e0:	0107e793          	or	a5,a5,16
    46e4:	ea5ff06f          	j	4588 <ee_vsprintf+0x108>
    46e8:	000c8c13          	mv	s8,s9
    46ec:	00a00613          	li	a2,10
    46f0:	000ba583          	lw	a1,0(s7)
    46f4:	004b8b93          	add	s7,s7,4
    46f8:	00048513          	mv	a0,s1
    46fc:	000d8713          	mv	a4,s11
    4700:	000d0693          	mv	a3,s10
    4704:	a85ff0ef          	jal	4188 <number>
    4708:	001c4783          	lbu	a5,1(s8)
    470c:	00050493          	mv	s1,a0
    4710:	001c0413          	add	s0,s8,1
    4714:	dc079ae3          	bnez	a5,44e8 <ee_vsprintf+0x68>
    4718:	de9ff06f          	j	4500 <ee_vsprintf+0x80>
    471c:	00000e93          	li	t4,0
    4720:	002e9713          	sll	a4,t4,0x2
    4724:	01d70733          	add	a4,a4,t4
    4728:	00168693          	add	a3,a3,1
    472c:	00171713          	sll	a4,a4,0x1
    4730:	01070733          	add	a4,a4,a6
    4734:	0006c803          	lbu	a6,0(a3)
    4738:	fd070e93          	add	t4,a4,-48
    473c:	fd080713          	add	a4,a6,-48
    4740:	0ff77713          	zext.b	a4,a4
    4744:	fce67ee3          	bgeu	a2,a4,4720 <ee_vsprintf+0x2a0>
    4748:	fffec713          	not	a4,t4
    474c:	41f75713          	sra	a4,a4,0x1f
    4750:	00eefdb3          	and	s11,t4,a4
    4754:	00068c93          	mv	s9,a3
    4758:	e39ff06f          	j	4590 <ee_vsprintf+0x110>
    475c:	000bad83          	lw	s11,0(s7)
    4760:	002cc803          	lbu	a6,2(s9)
    4764:	004b8b93          	add	s7,s7,4
    4768:	fffdc713          	not	a4,s11
    476c:	41f75713          	sra	a4,a4,0x1f
    4770:	00edfdb3          	and	s11,s11,a4
    4774:	002c8c93          	add	s9,s9,2
    4778:	e19ff06f          	j	4590 <ee_vsprintf+0x110>
    477c:	06c00713          	li	a4,108
    4780:	0027e793          	or	a5,a5,2
    4784:	f6e584e3          	beq	a1,a4,46ec <ee_vsprintf+0x26c>
    4788:	004b8713          	add	a4,s7,4
    478c:	000ba583          	lw	a1,0(s7)
    4790:	00a00613          	li	a2,10
    4794:	00070b93          	mv	s7,a4
    4798:	f61ff06f          	j	46f8 <ee_vsprintf+0x278>
    479c:	000c8c13          	mv	s8,s9
    47a0:	00800613          	li	a2,8
    47a4:	f4dff06f          	j	46f0 <ee_vsprintf+0x270>
    47a8:	000c8c13          	mv	s8,s9
    47ac:	01000613          	li	a2,16
    47b0:	f41ff06f          	j	46f0 <ee_vsprintf+0x270>
    47b4:	000c8c13          	mv	s8,s9
    47b8:	000ba403          	lw	s0,0(s7)
    47bc:	004b8b93          	add	s7,s7,4
    47c0:	2e0404e3          	beqz	s0,52a8 <ee_vsprintf+0xe28>
    47c4:	00044703          	lbu	a4,0(s0)
    47c8:	380704e3          	beqz	a4,5350 <ee_vsprintf+0xed0>
    47cc:	380d82e3          	beqz	s11,5350 <ee_vsprintf+0xed0>
    47d0:	00040713          	mv	a4,s0
    47d4:	00c0006f          	j	47e0 <ee_vsprintf+0x360>
    47d8:	41b706b3          	sub	a3,a4,s11
    47dc:	00868863          	beq	a3,s0,47ec <ee_vsprintf+0x36c>
    47e0:	00174683          	lbu	a3,1(a4)
    47e4:	00170713          	add	a4,a4,1
    47e8:	fe0698e3          	bnez	a3,47d8 <ee_vsprintf+0x358>
    47ec:	0107f793          	and	a5,a5,16
    47f0:	40870cb3          	sub	s9,a4,s0
    47f4:	0a078a63          	beqz	a5,48a8 <ee_vsprintf+0x428>
    47f8:	09905263          	blez	s9,487c <ee_vsprintf+0x3fc>
    47fc:	fffc8793          	add	a5,s9,-1
    4800:	00600713          	li	a4,6
    4804:	0af774e3          	bgeu	a4,a5,50ac <ee_vsprintf+0xc2c>
    4808:	0084e7b3          	or	a5,s1,s0
    480c:	0037f793          	and	a5,a5,3
    4810:	08079ee3          	bnez	a5,50ac <ee_vsprintf+0xc2c>
    4814:	00140793          	add	a5,s0,1
    4818:	40f48733          	sub	a4,s1,a5
    481c:	00373713          	sltiu	a4,a4,3
    4820:	080718e3          	bnez	a4,50b0 <ee_vsprintf+0xc30>
    4824:	ffccf593          	and	a1,s9,-4
    4828:	00048793          	mv	a5,s1
    482c:	00b40633          	add	a2,s0,a1
    4830:	00042703          	lw	a4,0(s0)
    4834:	00440413          	add	s0,s0,4
    4838:	00478793          	add	a5,a5,4
    483c:	fee7ae23          	sw	a4,-4(a5)
    4840:	fe8618e3          	bne	a2,s0,4830 <ee_vsprintf+0x3b0>
    4844:	00b48733          	add	a4,s1,a1
    4848:	019486b3          	add	a3,s1,s9
    484c:	03958663          	beq	a1,s9,4878 <ee_vsprintf+0x3f8>
    4850:	00064503          	lbu	a0,0(a2)
    4854:	00158793          	add	a5,a1,1
    4858:	00a70023          	sb	a0,0(a4)
    485c:	0197de63          	bge	a5,s9,4878 <ee_vsprintf+0x3f8>
    4860:	00164783          	lbu	a5,1(a2)
    4864:	00258593          	add	a1,a1,2
    4868:	00f700a3          	sb	a5,1(a4)
    486c:	0195d663          	bge	a1,s9,4878 <ee_vsprintf+0x3f8>
    4870:	00264783          	lbu	a5,2(a2)
    4874:	00f70123          	sb	a5,2(a4)
    4878:	00068493          	mv	s1,a3
    487c:	001c0413          	add	s0,s8,1
    4880:	3dacdae3          	bge	s9,s10,5454 <ee_vsprintf+0xfd4>
    4884:	419d0cb3          	sub	s9,s10,s9
    4888:	00048513          	mv	a0,s1
    488c:	000c8613          	mv	a2,s9
    4890:	02000593          	li	a1,32
    4894:	8e1fe0ef          	jal	3174 <memset>
    4898:	001c4783          	lbu	a5,1(s8)
    489c:	019484b3          	add	s1,s1,s9
    48a0:	c40794e3          	bnez	a5,44e8 <ee_vsprintf+0x68>
    48a4:	c5dff06f          	j	4500 <ee_vsprintf+0x80>
    48a8:	33acd4e3          	bge	s9,s10,53d0 <ee_vsprintf+0xf50>
    48ac:	419d0db3          	sub	s11,s10,s9
    48b0:	00048513          	mv	a0,s1
    48b4:	000d8613          	mv	a2,s11
    48b8:	02000593          	li	a1,32
    48bc:	8b9fe0ef          	jal	3174 <memset>
    48c0:	fffc8d13          	add	s10,s9,-1
    48c4:	01b484b3          	add	s1,s1,s11
    48c8:	f31ff06f          	j	47f8 <ee_vsprintf+0x378>
    48cc:	000c8c13          	mv	s8,s9
    48d0:	007b8b93          	add	s7,s7,7
    48d4:	ff8bfb93          	and	s7,s7,-8
    48d8:	0107f693          	and	a3,a5,16
    48dc:	000ba803          	lw	a6,0(s7)
    48e0:	004ba403          	lw	s0,4(s7)
    48e4:	008b8b93          	add	s7,s7,8
    48e8:	7e068463          	beqz	a3,50d0 <ee_vsprintf+0xc50>
    48ec:	ffe7f793          	and	a5,a5,-2
    48f0:	0027ec93          	or	s9,a5,2
    48f4:	01000793          	li	a5,16
    48f8:	00f12623          	sw	a5,12(sp)
    48fc:	02000793          	li	a5,32
    4900:	00f12a23          	sw	a5,20(sp)
    4904:	00080513          	mv	a0,a6
    4908:	00040593          	mv	a1,s0
    490c:	00000613          	li	a2,0
    4910:	00000693          	li	a3,0
    4914:	01012823          	sw	a6,16(sp)
    4918:	d1dfc0ef          	jal	1634 <__ledf2>
    491c:	01012803          	lw	a6,16(sp)
    4920:	30054ae3          	bltz	a0,5434 <ee_vsprintf+0xfb4>
    4924:	004cf793          	and	a5,s9,4
    4928:	200790e3          	bnez	a5,5328 <ee_vsprintf+0xea8>
    492c:	008cf793          	and	a5,s9,8
    4930:	00012823          	sw	zero,16(sp)
    4934:	00078863          	beqz	a5,4944 <ee_vsprintf+0x4c4>
    4938:	02000793          	li	a5,32
    493c:	fffd0d13          	add	s10,s10,-1
    4940:	00f12823          	sw	a5,16(sp)
    4944:	fff00793          	li	a5,-1
    4948:	00fd9463          	bne	s11,a5,4950 <ee_vsprintf+0x4d0>
    494c:	00600d93          	li	s11,6
    4950:	00080513          	mv	a0,a6
    4954:	08010793          	add	a5,sp,128
    4958:	02c10713          	add	a4,sp,44
    495c:	00040593          	mv	a1,s0
    4960:	02810693          	add	a3,sp,40
    4964:	000d8613          	mv	a2,s11
    4968:	39c010ef          	jal	5d04 <fcvtbuf>
    496c:	02c12703          	lw	a4,44(sp)
    4970:	00050813          	mv	a6,a0
    4974:	03010793          	add	a5,sp,48
    4978:	00070863          	beqz	a4,4988 <ee_vsprintf+0x508>
    497c:	02d00793          	li	a5,45
    4980:	02f10823          	sb	a5,48(sp)
    4984:	03110793          	add	a5,sp,49
    4988:	00084703          	lbu	a4,0(a6)
    498c:	340704e3          	beqz	a4,54d4 <ee_vsprintf+0x1054>
    4990:	02812583          	lw	a1,40(sp)
    4994:	00180693          	add	a3,a6,1
    4998:	02e00513          	li	a0,46
    499c:	38b052e3          	blez	a1,5520 <ee_vsprintf+0x10a0>
    49a0:	41068633          	sub	a2,a3,a6
    49a4:	fff60613          	add	a2,a2,-1
    49a8:	00168693          	add	a3,a3,1
    49ac:	2cc584e3          	beq	a1,a2,5474 <ee_vsprintf+0xff4>
    49b0:	00e78023          	sb	a4,0(a5)
    49b4:	fff6c703          	lbu	a4,-1(a3)
    49b8:	00178793          	add	a5,a5,1
    49bc:	fe0712e3          	bnez	a4,49a0 <ee_vsprintf+0x520>
    49c0:	00078023          	sb	zero,0(a5)
    49c4:	020cf793          	and	a5,s9,32
    49c8:	24078ce3          	beqz	a5,5420 <ee_vsprintf+0xfa0>
    49cc:	03014783          	lbu	a5,48(sp)
    49d0:	1a0d80e3          	beqz	s11,5370 <ee_vsprintf+0xef0>
    49d4:	2c078ce3          	beqz	a5,54ac <ee_vsprintf+0x102c>
    49d8:	03010613          	add	a2,sp,48
    49dc:	00060793          	mv	a5,a2
    49e0:	13010693          	add	a3,sp,304
    49e4:	0080006f          	j	49ec <ee_vsprintf+0x56c>
    49e8:	24d780e3          	beq	a5,a3,5428 <ee_vsprintf+0xfa8>
    49ec:	0017c703          	lbu	a4,1(a5)
    49f0:	00178793          	add	a5,a5,1
    49f4:	fe071ae3          	bnez	a4,49e8 <ee_vsprintf+0x568>
    49f8:	40c78433          	sub	s0,a5,a2
    49fc:	408d0d33          	sub	s10,s10,s0
    4a00:	00c12783          	lw	a5,12(sp)
    4a04:	02079063          	bnez	a5,4a24 <ee_vsprintf+0x5a4>
    4a08:	2ba056e3          	blez	s10,54b4 <ee_vsprintf+0x1034>
    4a0c:	000d0613          	mv	a2,s10
    4a10:	00048513          	mv	a0,s1
    4a14:	02000593          	li	a1,32
    4a18:	01a484b3          	add	s1,s1,s10
    4a1c:	f58fe0ef          	jal	3174 <memset>
    4a20:	fff00d13          	li	s10,-1
    4a24:	01012783          	lw	a5,16(sp)
    4a28:	00078663          	beqz	a5,4a34 <ee_vsprintf+0x5b4>
    4a2c:	00f48023          	sb	a5,0(s1)
    4a30:	00148493          	add	s1,s1,1
    4a34:	010cfc93          	and	s9,s9,16
    4a38:	020c9063          	bnez	s9,4a58 <ee_vsprintf+0x5d8>
    4a3c:	2da058e3          	blez	s10,550c <ee_vsprintf+0x108c>
    4a40:	01412583          	lw	a1,20(sp)
    4a44:	000d0613          	mv	a2,s10
    4a48:	00048513          	mv	a0,s1
    4a4c:	f28fe0ef          	jal	3174 <memset>
    4a50:	01a484b3          	add	s1,s1,s10
    4a54:	fff00d13          	li	s10,-1
    4a58:	00805c63          	blez	s0,4a70 <ee_vsprintf+0x5f0>
    4a5c:	00048513          	mv	a0,s1
    4a60:	00040613          	mv	a2,s0
    4a64:	03010593          	add	a1,sp,48
    4a68:	fe8fe0ef          	jal	3250 <memcpy>
    4a6c:	008484b3          	add	s1,s1,s0
    4a70:	01a05c63          	blez	s10,4a88 <ee_vsprintf+0x608>
    4a74:	00048513          	mv	a0,s1
    4a78:	000d0613          	mv	a2,s10
    4a7c:	02000593          	li	a1,32
    4a80:	ef4fe0ef          	jal	3174 <memset>
    4a84:	01a484b3          	add	s1,s1,s10
    4a88:	001c4783          	lbu	a5,1(s8)
    4a8c:	001c0413          	add	s0,s8,1
    4a90:	a4079ce3          	bnez	a5,44e8 <ee_vsprintf+0x68>
    4a94:	a6dff06f          	j	4500 <ee_vsprintf+0x80>
    4a98:	000c8c13          	mv	s8,s9
    4a9c:	0107f793          	and	a5,a5,16
    4aa0:	004b8c93          	add	s9,s7,4
    4aa4:	001c0413          	add	s0,s8,1
    4aa8:	000786e3          	beqz	a5,52b4 <ee_vsprintf+0xe34>
    4aac:	000ba703          	lw	a4,0(s7)
    4ab0:	00100793          	li	a5,1
    4ab4:	00148513          	add	a0,s1,1
    4ab8:	00e48023          	sb	a4,0(s1)
    4abc:	1da7d8e3          	bge	a5,s10,548c <ee_vsprintf+0x100c>
    4ac0:	fffd0613          	add	a2,s10,-1
    4ac4:	02000593          	li	a1,32
    4ac8:	eacfe0ef          	jal	3174 <memset>
    4acc:	001c4783          	lbu	a5,1(s8)
    4ad0:	01a484b3          	add	s1,s1,s10
    4ad4:	000c8b93          	mv	s7,s9
    4ad8:	a00798e3          	bnez	a5,44e8 <ee_vsprintf+0x68>
    4adc:	a25ff06f          	j	4500 <ee_vsprintf+0x80>
    4ae0:	000c8c13          	mv	s8,s9
    4ae4:	fff00713          	li	a4,-1
    4ae8:	00ed1663          	bne	s10,a4,4af4 <ee_vsprintf+0x674>
    4aec:	0017e793          	or	a5,a5,1
    4af0:	00800d13          	li	s10,8
    4af4:	000ba583          	lw	a1,0(s7)
    4af8:	00048513          	mv	a0,s1
    4afc:	000d8713          	mv	a4,s11
    4b00:	000d0693          	mv	a3,s10
    4b04:	01000613          	li	a2,16
    4b08:	e80ff0ef          	jal	4188 <number>
    4b0c:	001c4783          	lbu	a5,1(s8)
    4b10:	004b8b93          	add	s7,s7,4
    4b14:	00050493          	mv	s1,a0
    4b18:	001c0413          	add	s0,s8,1
    4b1c:	9c0796e3          	bnez	a5,44e8 <ee_vsprintf+0x68>
    4b20:	9e1ff06f          	j	4500 <ee_vsprintf+0x80>
    4b24:	0407e793          	or	a5,a5,64
    4b28:	01000613          	li	a2,16
    4b2c:	bc5ff06f          	j	46f0 <ee_vsprintf+0x270>
    4b30:	06c00713          	li	a4,108
    4b34:	5ee58863          	beq	a1,a4,5124 <ee_vsprintf+0xca4>
    4b38:	000ba683          	lw	a3,0(s7)
    4b3c:	004b8713          	add	a4,s7,4
    4b40:	00e12623          	sw	a4,12(sp)
    4b44:	0006cd83          	lbu	s11,0(a3)
    4b48:	520d8a63          	beqz	s11,507c <ee_vsprintf+0xbfc>
    4b4c:	06300713          	li	a4,99
    4b50:	6bb75463          	bge	a4,s11,51f8 <ee_vsprintf+0xd78>
    4b54:	06400593          	li	a1,100
    4b58:	000d8513          	mv	a0,s11
    4b5c:	00d12a23          	sw	a3,20(sp)
    4b60:	00f12823          	sw	a5,16(sp)
    4b64:	bb8fe0ef          	jal	2f1c <__modsi3>
    4b68:	00050413          	mv	s0,a0
    4b6c:	06400593          	li	a1,100
    4b70:	000d8513          	mv	a0,s11
    4b74:	b24fe0ef          	jal	2e98 <__divsi3>
    4b78:	00100737          	lui	a4,0x100
    4b7c:	34470b93          	add	s7,a4,836 # 100344 <__clz_tab+0x304>
    4b80:	00ab8733          	add	a4,s7,a0
    4b84:	00a00593          	li	a1,10
    4b88:	00040513          	mv	a0,s0
    4b8c:	00074c83          	lbu	s9,0(a4)
    4b90:	b08fe0ef          	jal	2e98 <__divsi3>
    4b94:	00ab8733          	add	a4,s7,a0
    4b98:	00074703          	lbu	a4,0(a4)
    4b9c:	00a00593          	li	a1,10
    4ba0:	00040513          	mv	a0,s0
    4ba4:	00871713          	sll	a4,a4,0x8
    4ba8:	00ececb3          	or	s9,s9,a4
    4bac:	09911023          	sh	s9,128(sp)
    4bb0:	b6cfe0ef          	jal	2f1c <__modsi3>
    4bb4:	01012783          	lw	a5,16(sp)
    4bb8:	01412683          	lw	a3,20(sp)
    4bbc:	00050d93          	mv	s11,a0
    4bc0:	00400713          	li	a4,4
    4bc4:	00300c93          	li	s9,3
    4bc8:	00200613          	li	a2,2
    4bcc:	01bb8db3          	add	s11,s7,s11
    4bd0:	000dc583          	lbu	a1,0(s11)
    4bd4:	0b060613          	add	a2,a2,176
    4bd8:	02010513          	add	a0,sp,32
    4bdc:	00a60633          	add	a2,a2,a0
    4be0:	fab60823          	sb	a1,-80(a2)
    4be4:	0b0c8613          	add	a2,s9,176
    4be8:	02010593          	add	a1,sp,32
    4bec:	00b60db3          	add	s11,a2,a1
    4bf0:	02e00613          	li	a2,46
    4bf4:	facd8823          	sb	a2,-80(s11)
    4bf8:	0016c403          	lbu	s0,1(a3)
    4bfc:	3e040a63          	beqz	s0,4ff0 <ee_vsprintf+0xb70>
    4c00:	06300613          	li	a2,99
    4c04:	58865a63          	bge	a2,s0,5198 <ee_vsprintf+0xd18>
    4c08:	00f12a23          	sw	a5,20(sp)
    4c0c:	0b070793          	add	a5,a4,176
    4c10:	02010713          	add	a4,sp,32
    4c14:	00e78833          	add	a6,a5,a4
    4c18:	06400593          	li	a1,100
    4c1c:	00040513          	mv	a0,s0
    4c20:	00d12c23          	sw	a3,24(sp)
    4c24:	01012823          	sw	a6,16(sp)
    4c28:	a70fe0ef          	jal	2e98 <__divsi3>
    4c2c:	00100737          	lui	a4,0x100
    4c30:	34470b93          	add	s7,a4,836 # 100344 <__clz_tab+0x304>
    4c34:	00ab8633          	add	a2,s7,a0
    4c38:	01012803          	lw	a6,16(sp)
    4c3c:	00064603          	lbu	a2,0(a2)
    4c40:	06400593          	li	a1,100
    4c44:	00040513          	mv	a0,s0
    4c48:	fac80823          	sb	a2,-80(a6)
    4c4c:	ad0fe0ef          	jal	2f1c <__modsi3>
    4c50:	003c8713          	add	a4,s9,3
    4c54:	00a00593          	li	a1,10
    4c58:	00050413          	mv	s0,a0
    4c5c:	00e12823          	sw	a4,16(sp)
    4c60:	a38fe0ef          	jal	2e98 <__divsi3>
    4c64:	00ab8633          	add	a2,s7,a0
    4c68:	00064603          	lbu	a2,0(a2)
    4c6c:	00040513          	mv	a0,s0
    4c70:	00a00593          	li	a1,10
    4c74:	facd8923          	sb	a2,-78(s11)
    4c78:	aa4fe0ef          	jal	2f1c <__modsi3>
    4c7c:	01012703          	lw	a4,16(sp)
    4c80:	01412783          	lw	a5,20(sp)
    4c84:	01812683          	lw	a3,24(sp)
    4c88:	00050413          	mv	s0,a0
    4c8c:	008b8433          	add	s0,s7,s0
    4c90:	00044583          	lbu	a1,0(s0)
    4c94:	0b070613          	add	a2,a4,176
    4c98:	02010513          	add	a0,sp,32
    4c9c:	00a60633          	add	a2,a2,a0
    4ca0:	00170c93          	add	s9,a4,1
    4ca4:	fab60823          	sb	a1,-80(a2)
    4ca8:	0b0c8713          	add	a4,s9,176
    4cac:	02010613          	add	a2,sp,32
    4cb0:	00c70833          	add	a6,a4,a2
    4cb4:	02e00713          	li	a4,46
    4cb8:	fae80823          	sb	a4,-80(a6)
    4cbc:	0026c403          	lbu	s0,2(a3)
    4cc0:	001c8d93          	add	s11,s9,1
    4cc4:	36040263          	beqz	s0,5028 <ee_vsprintf+0xba8>
    4cc8:	06300613          	li	a2,99
    4ccc:	46865663          	bge	a2,s0,5138 <ee_vsprintf+0xcb8>
    4cd0:	02010713          	add	a4,sp,32
    4cd4:	00f12823          	sw	a5,16(sp)
    4cd8:	06400593          	li	a1,100
    4cdc:	0b0d8793          	add	a5,s11,176
    4ce0:	00040513          	mv	a0,s0
    4ce4:	00e78db3          	add	s11,a5,a4
    4ce8:	00d12a23          	sw	a3,20(sp)
    4cec:	01012c23          	sw	a6,24(sp)
    4cf0:	9a8fe0ef          	jal	2e98 <__divsi3>
    4cf4:	00100737          	lui	a4,0x100
    4cf8:	34470b93          	add	s7,a4,836 # 100344 <__clz_tab+0x304>
    4cfc:	00ab8633          	add	a2,s7,a0
    4d00:	00064703          	lbu	a4,0(a2)
    4d04:	06400593          	li	a1,100
    4d08:	00040513          	mv	a0,s0
    4d0c:	faed8823          	sb	a4,-80(s11)
    4d10:	a0cfe0ef          	jal	2f1c <__modsi3>
    4d14:	00a00593          	li	a1,10
    4d18:	00050413          	mv	s0,a0
    4d1c:	97cfe0ef          	jal	2e98 <__divsi3>
    4d20:	00ab8733          	add	a4,s7,a0
    4d24:	00074703          	lbu	a4,0(a4)
    4d28:	01812803          	lw	a6,24(sp)
    4d2c:	00040513          	mv	a0,s0
    4d30:	00a00593          	li	a1,10
    4d34:	fae80923          	sb	a4,-78(a6)
    4d38:	9e4fe0ef          	jal	2f1c <__modsi3>
    4d3c:	01012783          	lw	a5,16(sp)
    4d40:	01412683          	lw	a3,20(sp)
    4d44:	003c8d93          	add	s11,s9,3
    4d48:	00050413          	mv	s0,a0
    4d4c:	008b8433          	add	s0,s7,s0
    4d50:	00044583          	lbu	a1,0(s0)
    4d54:	0b0d8713          	add	a4,s11,176
    4d58:	02010613          	add	a2,sp,32
    4d5c:	00c70633          	add	a2,a4,a2
    4d60:	001d8c93          	add	s9,s11,1
    4d64:	fab60823          	sb	a1,-80(a2)
    4d68:	0b0c8713          	add	a4,s9,176
    4d6c:	02010613          	add	a2,sp,32
    4d70:	00c70633          	add	a2,a4,a2
    4d74:	02e00713          	li	a4,46
    4d78:	fae60823          	sb	a4,-80(a2)
    4d7c:	0036cd83          	lbu	s11,3(a3)
    4d80:	001c8713          	add	a4,s9,1
    4d84:	2c0d8e63          	beqz	s11,5060 <ee_vsprintf+0xbe0>
    4d88:	06300693          	li	a3,99
    4d8c:	4db6d263          	bge	a3,s11,5250 <ee_vsprintf+0xdd0>
    4d90:	00f12a23          	sw	a5,20(sp)
    4d94:	06400593          	li	a1,100
    4d98:	0b070793          	add	a5,a4,176
    4d9c:	000d8513          	mv	a0,s11
    4da0:	02010713          	add	a4,sp,32
    4da4:	00e78433          	add	s0,a5,a4
    4da8:	00c12c23          	sw	a2,24(sp)
    4dac:	8ecfe0ef          	jal	2e98 <__divsi3>
    4db0:	00100737          	lui	a4,0x100
    4db4:	34470b93          	add	s7,a4,836 # 100344 <__clz_tab+0x304>
    4db8:	00ab8733          	add	a4,s7,a0
    4dbc:	00074703          	lbu	a4,0(a4)
    4dc0:	06400593          	li	a1,100
    4dc4:	000d8513          	mv	a0,s11
    4dc8:	fae40823          	sb	a4,-80(s0)
    4dcc:	950fe0ef          	jal	2f1c <__modsi3>
    4dd0:	003c8713          	add	a4,s9,3
    4dd4:	00a00593          	li	a1,10
    4dd8:	00e12823          	sw	a4,16(sp)
    4ddc:	00050413          	mv	s0,a0
    4de0:	8b8fe0ef          	jal	2e98 <__divsi3>
    4de4:	00ab86b3          	add	a3,s7,a0
    4de8:	0006c683          	lbu	a3,0(a3)
    4dec:	01812603          	lw	a2,24(sp)
    4df0:	00a00593          	li	a1,10
    4df4:	00040513          	mv	a0,s0
    4df8:	fad60923          	sb	a3,-78(a2)
    4dfc:	920fe0ef          	jal	2f1c <__modsi3>
    4e00:	01012703          	lw	a4,16(sp)
    4e04:	01412783          	lw	a5,20(sp)
    4e08:	00050d93          	mv	s11,a0
    4e0c:	01bb8db3          	add	s11,s7,s11
    4e10:	000dc603          	lbu	a2,0(s11)
    4e14:	0b070693          	add	a3,a4,176
    4e18:	02010593          	add	a1,sp,32
    4e1c:	00b686b3          	add	a3,a3,a1
    4e20:	00170413          	add	s0,a4,1
    4e24:	fac68823          	sb	a2,-80(a3)
    4e28:	0107f793          	and	a5,a5,16
    4e2c:	02079263          	bnez	a5,4e50 <ee_vsprintf+0x9d0>
    4e30:	67a45a63          	bge	s0,s10,54a4 <ee_vsprintf+0x1024>
    4e34:	408d0d33          	sub	s10,s10,s0
    4e38:	000d0613          	mv	a2,s10
    4e3c:	00048513          	mv	a0,s1
    4e40:	02000593          	li	a1,32
    4e44:	01a484b3          	add	s1,s1,s10
    4e48:	b2cfe0ef          	jal	3174 <memset>
    4e4c:	fff40d13          	add	s10,s0,-1
    4e50:	00040613          	mv	a2,s0
    4e54:	08010593          	add	a1,sp,128
    4e58:	00048513          	mv	a0,s1
    4e5c:	bf4fe0ef          	jal	3250 <memcpy>
    4e60:	00848533          	add	a0,s1,s0
    4e64:	5fa45463          	bge	s0,s10,544c <ee_vsprintf+0xfcc>
    4e68:	408d0633          	sub	a2,s10,s0
    4e6c:	02000593          	li	a1,32
    4e70:	b04fe0ef          	jal	3174 <memset>
    4e74:	01a484b3          	add	s1,s1,s10
    4e78:	001c4783          	lbu	a5,1(s8)
    4e7c:	00c12b83          	lw	s7,12(sp)
    4e80:	001c0413          	add	s0,s8,1
    4e84:	e6079263          	bnez	a5,44e8 <ee_vsprintf+0x68>
    4e88:	e78ff06f          	j	4500 <ee_vsprintf+0x80>
    4e8c:	06c00713          	li	a4,108
    4e90:	0407e793          	or	a5,a5,64
    4e94:	cae592e3          	bne	a1,a4,4b38 <ee_vsprintf+0x6b8>
    4e98:	00100737          	lui	a4,0x100
    4e9c:	000ba603          	lw	a2,0(s7)
    4ea0:	36c70713          	add	a4,a4,876 # 10036c <__clz_tab+0x32c>
    4ea4:	004b8b93          	add	s7,s7,4
    4ea8:	00064683          	lbu	a3,0(a2)
    4eac:	03a00593          	li	a1,58
    4eb0:	08b10123          	sb	a1,130(sp)
    4eb4:	00f6f513          	and	a0,a3,15
    4eb8:	00a70533          	add	a0,a4,a0
    4ebc:	0046d693          	srl	a3,a3,0x4
    4ec0:	00054503          	lbu	a0,0(a0)
    4ec4:	00d706b3          	add	a3,a4,a3
    4ec8:	0006c683          	lbu	a3,0(a3)
    4ecc:	00851513          	sll	a0,a0,0x8
    4ed0:	0107f793          	and	a5,a5,16
    4ed4:	00a6e6b3          	or	a3,a3,a0
    4ed8:	08d11023          	sh	a3,128(sp)
    4edc:	00164683          	lbu	a3,1(a2)
    4ee0:	08b102a3          	sb	a1,133(sp)
    4ee4:	0046d513          	srl	a0,a3,0x4
    4ee8:	00f6f693          	and	a3,a3,15
    4eec:	00a70533          	add	a0,a4,a0
    4ef0:	00d706b3          	add	a3,a4,a3
    4ef4:	00054503          	lbu	a0,0(a0)
    4ef8:	0006c683          	lbu	a3,0(a3)
    4efc:	08a101a3          	sb	a0,131(sp)
    4f00:	08d10223          	sb	a3,132(sp)
    4f04:	00264683          	lbu	a3,2(a2)
    4f08:	08b10423          	sb	a1,136(sp)
    4f0c:	0046d513          	srl	a0,a3,0x4
    4f10:	00f6f693          	and	a3,a3,15
    4f14:	00a70533          	add	a0,a4,a0
    4f18:	00d706b3          	add	a3,a4,a3
    4f1c:	00054503          	lbu	a0,0(a0)
    4f20:	0006c683          	lbu	a3,0(a3)
    4f24:	08a10323          	sb	a0,134(sp)
    4f28:	08d103a3          	sb	a3,135(sp)
    4f2c:	00364683          	lbu	a3,3(a2)
    4f30:	08b105a3          	sb	a1,139(sp)
    4f34:	0046d513          	srl	a0,a3,0x4
    4f38:	00f6f693          	and	a3,a3,15
    4f3c:	00a70533          	add	a0,a4,a0
    4f40:	00d706b3          	add	a3,a4,a3
    4f44:	0006c683          	lbu	a3,0(a3)
    4f48:	00054503          	lbu	a0,0(a0)
    4f4c:	08d10523          	sb	a3,138(sp)
    4f50:	08a104a3          	sb	a0,137(sp)
    4f54:	00464683          	lbu	a3,4(a2)
    4f58:	08b10723          	sb	a1,142(sp)
    4f5c:	0046d593          	srl	a1,a3,0x4
    4f60:	00f6f693          	and	a3,a3,15
    4f64:	00b705b3          	add	a1,a4,a1
    4f68:	00d706b3          	add	a3,a4,a3
    4f6c:	0006c683          	lbu	a3,0(a3)
    4f70:	0005c583          	lbu	a1,0(a1)
    4f74:	08d106a3          	sb	a3,141(sp)
    4f78:	08b10623          	sb	a1,140(sp)
    4f7c:	00564683          	lbu	a3,5(a2)
    4f80:	0046d613          	srl	a2,a3,0x4
    4f84:	00c70633          	add	a2,a4,a2
    4f88:	00064603          	lbu	a2,0(a2)
    4f8c:	00f6f693          	and	a3,a3,15
    4f90:	00d70733          	add	a4,a4,a3
    4f94:	08c107a3          	sb	a2,143(sp)
    4f98:	00074703          	lbu	a4,0(a4)
    4f9c:	08e10823          	sb	a4,144(sp)
    4fa0:	14079a63          	bnez	a5,50f4 <ee_vsprintf+0xc74>
    4fa4:	01100793          	li	a5,17
    4fa8:	15a7d463          	bge	a5,s10,50f0 <ee_vsprintf+0xc70>
    4fac:	fefd0413          	add	s0,s10,-17
    4fb0:	00040613          	mv	a2,s0
    4fb4:	02000593          	li	a1,32
    4fb8:	00048513          	mv	a0,s1
    4fbc:	9b8fe0ef          	jal	3174 <memset>
    4fc0:	00848533          	add	a0,s1,s0
    4fc4:	01100613          	li	a2,17
    4fc8:	08010593          	add	a1,sp,128
    4fcc:	a84fe0ef          	jal	3250 <memcpy>
    4fd0:	01a484b3          	add	s1,s1,s10
    4fd4:	002cc783          	lbu	a5,2(s9)
    4fd8:	002c8413          	add	s0,s9,2
    4fdc:	d0079663          	bnez	a5,44e8 <ee_vsprintf+0x68>
    4fe0:	d20ff06f          	j	4500 <ee_vsprintf+0x80>
    4fe4:	0407e793          	or	a5,a5,64
    4fe8:	000c8c13          	mv	s8,s9
    4fec:	b4dff06f          	j	4b38 <ee_vsprintf+0x6b8>
    4ff0:	02010613          	add	a2,sp,32
    4ff4:	0b070713          	add	a4,a4,176
    4ff8:	00c70733          	add	a4,a4,a2
    4ffc:	002c8c93          	add	s9,s9,2
    5000:	03000613          	li	a2,48
    5004:	fac70823          	sb	a2,-80(a4)
    5008:	0b0c8713          	add	a4,s9,176
    500c:	02010613          	add	a2,sp,32
    5010:	00c70833          	add	a6,a4,a2
    5014:	02e00713          	li	a4,46
    5018:	fae80823          	sb	a4,-80(a6)
    501c:	0026c403          	lbu	s0,2(a3)
    5020:	001c8d93          	add	s11,s9,1
    5024:	ca0412e3          	bnez	s0,4cc8 <ee_vsprintf+0x848>
    5028:	0b0d8713          	add	a4,s11,176
    502c:	02010613          	add	a2,sp,32
    5030:	00c70733          	add	a4,a4,a2
    5034:	002c8c93          	add	s9,s9,2
    5038:	03000613          	li	a2,48
    503c:	fac70823          	sb	a2,-80(a4)
    5040:	0b0c8713          	add	a4,s9,176
    5044:	02010613          	add	a2,sp,32
    5048:	00c70633          	add	a2,a4,a2
    504c:	02e00713          	li	a4,46
    5050:	fae60823          	sb	a4,-80(a2)
    5054:	0036cd83          	lbu	s11,3(a3)
    5058:	001c8713          	add	a4,s9,1
    505c:	d20d96e3          	bnez	s11,4d88 <ee_vsprintf+0x908>
    5060:	02010693          	add	a3,sp,32
    5064:	0b070713          	add	a4,a4,176
    5068:	00d70733          	add	a4,a4,a3
    506c:	03000693          	li	a3,48
    5070:	002c8413          	add	s0,s9,2
    5074:	fad70823          	sb	a3,-80(a4)
    5078:	db1ff06f          	j	4e28 <ee_vsprintf+0x9a8>
    507c:	03000713          	li	a4,48
    5080:	08e10023          	sb	a4,128(sp)
    5084:	00100c93          	li	s9,1
    5088:	00200713          	li	a4,2
    508c:	b59ff06f          	j	4be4 <ee_vsprintf+0x764>
    5090:	00050493          	mv	s1,a0
    5094:	00048023          	sb	zero,0(s1)
    5098:	10c12083          	lw	ra,268(sp)
    509c:	10412483          	lw	s1,260(sp)
    50a0:	00000513          	li	a0,0
    50a4:	11010113          	add	sp,sp,272
    50a8:	00008067          	ret
    50ac:	00140793          	add	a5,s0,1
    50b0:	019486b3          	add	a3,s1,s9
    50b4:	0080006f          	j	50bc <ee_vsprintf+0xc3c>
    50b8:	00178793          	add	a5,a5,1
    50bc:	fff7c703          	lbu	a4,-1(a5)
    50c0:	00148493          	add	s1,s1,1
    50c4:	fee48fa3          	sb	a4,-1(s1)
    50c8:	fed498e3          	bne	s1,a3,50b8 <ee_vsprintf+0xc38>
    50cc:	facff06f          	j	4878 <ee_vsprintf+0x3f8>
    50d0:	0017f693          	and	a3,a5,1
    50d4:	0027ec93          	or	s9,a5,2
    50d8:	0117f793          	and	a5,a5,17
    50dc:	00f12623          	sw	a5,12(sp)
    50e0:	38068263          	beqz	a3,5464 <ee_vsprintf+0xfe4>
    50e4:	03000793          	li	a5,48
    50e8:	00f12a23          	sw	a5,20(sp)
    50ec:	819ff06f          	j	4904 <ee_vsprintf+0x484>
    50f0:	fffd0d13          	add	s10,s10,-1
    50f4:	01100613          	li	a2,17
    50f8:	08010593          	add	a1,sp,128
    50fc:	00048513          	mv	a0,s1
    5100:	950fe0ef          	jal	3250 <memcpy>
    5104:	01100413          	li	s0,17
    5108:	01148513          	add	a0,s1,17
    510c:	47a45663          	bge	s0,s10,5578 <ee_vsprintf+0x10f8>
    5110:	fefd0613          	add	a2,s10,-17
    5114:	02000593          	li	a1,32
    5118:	85cfe0ef          	jal	3174 <memset>
    511c:	01a484b3          	add	s1,s1,s10
    5120:	eb5ff06f          	j	4fd4 <ee_vsprintf+0xb54>
    5124:	00100737          	lui	a4,0x100
    5128:	000ba603          	lw	a2,0(s7)
    512c:	34470713          	add	a4,a4,836 # 100344 <__clz_tab+0x304>
    5130:	004b8b93          	add	s7,s7,4
    5134:	d75ff06f          	j	4ea8 <ee_vsprintf+0xa28>
    5138:	00900713          	li	a4,9
    513c:	1e875063          	bge	a4,s0,531c <ee_vsprintf+0xe9c>
    5140:	02010713          	add	a4,sp,32
    5144:	00f12823          	sw	a5,16(sp)
    5148:	00a00593          	li	a1,10
    514c:	0b0d8793          	add	a5,s11,176
    5150:	00040513          	mv	a0,s0
    5154:	00e78db3          	add	s11,a5,a4
    5158:	00d12a23          	sw	a3,20(sp)
    515c:	d3dfd0ef          	jal	2e98 <__divsi3>
    5160:	00100737          	lui	a4,0x100
    5164:	34470b93          	add	s7,a4,836 # 100344 <__clz_tab+0x304>
    5168:	00ab8633          	add	a2,s7,a0
    516c:	00064703          	lbu	a4,0(a2)
    5170:	00040513          	mv	a0,s0
    5174:	00a00593          	li	a1,10
    5178:	faed8823          	sb	a4,-80(s11)
    517c:	da1fd0ef          	jal	2f1c <__modsi3>
    5180:	002c8c93          	add	s9,s9,2
    5184:	01012783          	lw	a5,16(sp)
    5188:	01412683          	lw	a3,20(sp)
    518c:	00050413          	mv	s0,a0
    5190:	000c8d93          	mv	s11,s9
    5194:	bb9ff06f          	j	4d4c <ee_vsprintf+0x8cc>
    5198:	00900613          	li	a2,9
    519c:	16865a63          	bge	a2,s0,5310 <ee_vsprintf+0xe90>
    51a0:	00f12823          	sw	a5,16(sp)
    51a4:	00a00593          	li	a1,10
    51a8:	0b070793          	add	a5,a4,176
    51ac:	00040513          	mv	a0,s0
    51b0:	02010713          	add	a4,sp,32
    51b4:	00e78db3          	add	s11,a5,a4
    51b8:	00d12a23          	sw	a3,20(sp)
    51bc:	cddfd0ef          	jal	2e98 <__divsi3>
    51c0:	00100737          	lui	a4,0x100
    51c4:	34470b93          	add	s7,a4,836 # 100344 <__clz_tab+0x304>
    51c8:	00ab8633          	add	a2,s7,a0
    51cc:	00064703          	lbu	a4,0(a2)
    51d0:	00040513          	mv	a0,s0
    51d4:	00a00593          	li	a1,10
    51d8:	faed8823          	sb	a4,-80(s11)
    51dc:	d41fd0ef          	jal	2f1c <__modsi3>
    51e0:	002c8c93          	add	s9,s9,2
    51e4:	01012783          	lw	a5,16(sp)
    51e8:	01412683          	lw	a3,20(sp)
    51ec:	00050413          	mv	s0,a0
    51f0:	000c8713          	mv	a4,s9
    51f4:	a99ff06f          	j	4c8c <ee_vsprintf+0x80c>
    51f8:	00900713          	li	a4,9
    51fc:	0fb75e63          	bge	a4,s11,52f8 <ee_vsprintf+0xe78>
    5200:	00a00593          	li	a1,10
    5204:	000d8513          	mv	a0,s11
    5208:	00d12a23          	sw	a3,20(sp)
    520c:	00f12823          	sw	a5,16(sp)
    5210:	c89fd0ef          	jal	2e98 <__divsi3>
    5214:	00100737          	lui	a4,0x100
    5218:	34470b93          	add	s7,a4,836 # 100344 <__clz_tab+0x304>
    521c:	00ab8733          	add	a4,s7,a0
    5220:	00074703          	lbu	a4,0(a4)
    5224:	000d8513          	mv	a0,s11
    5228:	00a00593          	li	a1,10
    522c:	08e10023          	sb	a4,128(sp)
    5230:	cedfd0ef          	jal	2f1c <__modsi3>
    5234:	01012783          	lw	a5,16(sp)
    5238:	01412683          	lw	a3,20(sp)
    523c:	00050d93          	mv	s11,a0
    5240:	00300713          	li	a4,3
    5244:	00200c93          	li	s9,2
    5248:	00100613          	li	a2,1
    524c:	981ff06f          	j	4bcc <ee_vsprintf+0x74c>
    5250:	00900693          	li	a3,9
    5254:	09b6dc63          	bge	a3,s11,52ec <ee_vsprintf+0xe6c>
    5258:	00f12823          	sw	a5,16(sp)
    525c:	00a00593          	li	a1,10
    5260:	0b070793          	add	a5,a4,176
    5264:	000d8513          	mv	a0,s11
    5268:	02010713          	add	a4,sp,32
    526c:	002c8413          	add	s0,s9,2
    5270:	00e78cb3          	add	s9,a5,a4
    5274:	c25fd0ef          	jal	2e98 <__divsi3>
    5278:	00100737          	lui	a4,0x100
    527c:	34470b93          	add	s7,a4,836 # 100344 <__clz_tab+0x304>
    5280:	00ab86b3          	add	a3,s7,a0
    5284:	0006c703          	lbu	a4,0(a3)
    5288:	000d8513          	mv	a0,s11
    528c:	00a00593          	li	a1,10
    5290:	faec8823          	sb	a4,-80(s9)
    5294:	c89fd0ef          	jal	2f1c <__modsi3>
    5298:	01012783          	lw	a5,16(sp)
    529c:	00050d93          	mv	s11,a0
    52a0:	00040713          	mv	a4,s0
    52a4:	b69ff06f          	j	4e0c <ee_vsprintf+0x98c>
    52a8:	00100437          	lui	s0,0x100
    52ac:	39440413          	add	s0,s0,916 # 100394 <__clz_tab+0x354>
    52b0:	d1cff06f          	j	47cc <ee_vsprintf+0x34c>
    52b4:	00100793          	li	a5,1
    52b8:	0fa7de63          	bge	a5,s10,53b4 <ee_vsprintf+0xf34>
    52bc:	fffd0d13          	add	s10,s10,-1
    52c0:	000d0613          	mv	a2,s10
    52c4:	00048513          	mv	a0,s1
    52c8:	02000593          	li	a1,32
    52cc:	01a484b3          	add	s1,s1,s10
    52d0:	ea5fd0ef          	jal	3174 <memset>
    52d4:	00000d13          	li	s10,0
    52d8:	fd4ff06f          	j	4aac <ee_vsprintf+0x62c>
    52dc:	0027e793          	or	a5,a5,2
    52e0:	004b8713          	add	a4,s7,4
    52e4:	000c8c13          	mv	s8,s9
    52e8:	ca4ff06f          	j	478c <ee_vsprintf+0x30c>
    52ec:	001006b7          	lui	a3,0x100
    52f0:	34468b93          	add	s7,a3,836 # 100344 <__clz_tab+0x304>
    52f4:	b19ff06f          	j	4e0c <ee_vsprintf+0x98c>
    52f8:	001005b7          	lui	a1,0x100
    52fc:	00200713          	li	a4,2
    5300:	00100c93          	li	s9,1
    5304:	00000613          	li	a2,0
    5308:	34458b93          	add	s7,a1,836 # 100344 <__clz_tab+0x304>
    530c:	8c1ff06f          	j	4bcc <ee_vsprintf+0x74c>
    5310:	00100637          	lui	a2,0x100
    5314:	34460b93          	add	s7,a2,836 # 100344 <__clz_tab+0x304>
    5318:	975ff06f          	j	4c8c <ee_vsprintf+0x80c>
    531c:	00100737          	lui	a4,0x100
    5320:	34470b93          	add	s7,a4,836 # 100344 <__clz_tab+0x304>
    5324:	a29ff06f          	j	4d4c <ee_vsprintf+0x8cc>
    5328:	02b00793          	li	a5,43
    532c:	fffd0d13          	add	s10,s10,-1
    5330:	00f12823          	sw	a5,16(sp)
    5334:	e10ff06f          	j	4944 <ee_vsprintf+0x4c4>
    5338:	000c8c13          	mv	s8,s9
    533c:	ffcff06f          	j	4b38 <ee_vsprintf+0x6b8>
    5340:	0407e793          	or	a5,a5,64
    5344:	000c8c13          	mv	s8,s9
    5348:	01000613          	li	a2,16
    534c:	ba4ff06f          	j	46f0 <ee_vsprintf+0x270>
    5350:	0107fc93          	and	s9,a5,16
    5354:	d40c8a63          	beqz	s9,48a8 <ee_vsprintf+0x428>
    5358:	00000c93          	li	s9,0
    535c:	d20ff06f          	j	487c <ee_vsprintf+0x3fc>
    5360:	000780a3          	sb	zero,1(a5)
    5364:	020cf793          	and	a5,s9,32
    5368:	0a078c63          	beqz	a5,5420 <ee_vsprintf+0xfa0>
    536c:	03014783          	lbu	a5,48(sp)
    5370:	20078863          	beqz	a5,5580 <ee_vsprintf+0x1100>
    5374:	03010613          	add	a2,sp,48
    5378:	00060813          	mv	a6,a2
    537c:	02e00713          	li	a4,46
    5380:	06500593          	li	a1,101
    5384:	04500693          	li	a3,69
    5388:	e4e78a63          	beq	a5,a4,49dc <ee_vsprintf+0x55c>
    538c:	04b78663          	beq	a5,a1,53d8 <ee_vsprintf+0xf58>
    5390:	04d78463          	beq	a5,a3,53d8 <ee_vsprintf+0xf58>
    5394:	00184783          	lbu	a5,1(a6)
    5398:	00180813          	add	a6,a6,1
    539c:	fe0796e3          	bnez	a5,5388 <ee_vsprintf+0xf08>
    53a0:	02e00793          	li	a5,46
    53a4:	00f80023          	sb	a5,0(a6)
    53a8:	03014783          	lbu	a5,48(sp)
    53ac:	000800a3          	sb	zero,1(a6)
    53b0:	e24ff06f          	j	49d4 <ee_vsprintf+0x554>
    53b4:	000ba783          	lw	a5,0(s7)
    53b8:	00148493          	add	s1,s1,1
    53bc:	000c8b93          	mv	s7,s9
    53c0:	fef48fa3          	sb	a5,-1(s1)
    53c4:	001c4783          	lbu	a5,1(s8)
    53c8:	92079063          	bnez	a5,44e8 <ee_vsprintf+0x68>
    53cc:	934ff06f          	j	4500 <ee_vsprintf+0x80>
    53d0:	fffd0d13          	add	s10,s10,-1
    53d4:	c24ff06f          	j	47f8 <ee_vsprintf+0x378>
    53d8:	00084703          	lbu	a4,0(a6)
    53dc:	10080693          	add	a3,a6,256
    53e0:	00080793          	mv	a5,a6
    53e4:	00071663          	bnez	a4,53f0 <ee_vsprintf+0xf70>
    53e8:	0300006f          	j	5418 <ee_vsprintf+0xf98>
    53ec:	00d78863          	beq	a5,a3,53fc <ee_vsprintf+0xf7c>
    53f0:	0017c703          	lbu	a4,1(a5)
    53f4:	00178793          	add	a5,a5,1
    53f8:	fe071ae3          	bnez	a4,53ec <ee_vsprintf+0xf6c>
    53fc:	41078633          	sub	a2,a5,a6
    5400:	00c05c63          	blez	a2,5418 <ee_vsprintf+0xf98>
    5404:	00180593          	add	a1,a6,1
    5408:	00280513          	add	a0,a6,2
    540c:	01012c23          	sw	a6,24(sp)
    5410:	c59fd0ef          	jal	3068 <memmove>
    5414:	01812803          	lw	a6,24(sp)
    5418:	02e00793          	li	a5,46
    541c:	00f80023          	sb	a5,0(a6)
    5420:	03014783          	lbu	a5,48(sp)
    5424:	db0ff06f          	j	49d4 <ee_vsprintf+0x554>
    5428:	f00d0d13          	add	s10,s10,-256
    542c:	10000413          	li	s0,256
    5430:	dd0ff06f          	j	4a00 <ee_vsprintf+0x580>
    5434:	800007b7          	lui	a5,0x80000
    5438:	0087c433          	xor	s0,a5,s0
    543c:	02d00793          	li	a5,45
    5440:	fffd0d13          	add	s10,s10,-1
    5444:	00f12823          	sw	a5,16(sp)
    5448:	cfcff06f          	j	4944 <ee_vsprintf+0x4c4>
    544c:	00050493          	mv	s1,a0
    5450:	a29ff06f          	j	4e78 <ee_vsprintf+0x9f8>
    5454:	001c4783          	lbu	a5,1(s8)
    5458:	00078463          	beqz	a5,5460 <ee_vsprintf+0xfe0>
    545c:	88cff06f          	j	44e8 <ee_vsprintf+0x68>
    5460:	8a0ff06f          	j	4500 <ee_vsprintf+0x80>
    5464:	02000793          	li	a5,32
    5468:	00012623          	sw	zero,12(sp)
    546c:	00f12a23          	sw	a5,20(sp)
    5470:	c94ff06f          	j	4904 <ee_vsprintf+0x484>
    5474:	00e780a3          	sb	a4,1(a5) # 80000001 <MTSSV_BASE+0x7fef8009>
    5478:	fff6c703          	lbu	a4,-1(a3)
    547c:	00a78023          	sb	a0,0(a5)
    5480:	00278793          	add	a5,a5,2
    5484:	d0071e63          	bnez	a4,49a0 <ee_vsprintf+0x520>
    5488:	d38ff06f          	j	49c0 <ee_vsprintf+0x540>
    548c:	001c4783          	lbu	a5,1(s8)
    5490:	000c8b93          	mv	s7,s9
    5494:	00050493          	mv	s1,a0
    5498:	00078463          	beqz	a5,54a0 <ee_vsprintf+0x1020>
    549c:	84cff06f          	j	44e8 <ee_vsprintf+0x68>
    54a0:	860ff06f          	j	4500 <ee_vsprintf+0x80>
    54a4:	fffd0d13          	add	s10,s10,-1
    54a8:	9a9ff06f          	j	4e50 <ee_vsprintf+0x9d0>
    54ac:	00000413          	li	s0,0
    54b0:	d50ff06f          	j	4a00 <ee_vsprintf+0x580>
    54b4:	01012783          	lw	a5,16(sp)
    54b8:	04078e63          	beqz	a5,5514 <ee_vsprintf+0x1094>
    54bc:	00f48023          	sb	a5,0(s1)
    54c0:	010cfc93          	and	s9,s9,16
    54c4:	00148493          	add	s1,s1,1
    54c8:	040c9263          	bnez	s9,550c <ee_vsprintf+0x108c>
    54cc:	ffed0d13          	add	s10,s10,-2
    54d0:	d88ff06f          	j	4a58 <ee_vsprintf+0x5d8>
    54d4:	03000713          	li	a4,48
    54d8:	00e78023          	sb	a4,0(a5)
    54dc:	e80d82e3          	beqz	s11,5360 <ee_vsprintf+0xee0>
    54e0:	00278713          	add	a4,a5,2
    54e4:	02e00693          	li	a3,46
    54e8:	00d780a3          	sb	a3,1(a5)
    54ec:	00070513          	mv	a0,a4
    54f0:	000d8613          	mv	a2,s11
    54f4:	03000593          	li	a1,48
    54f8:	c7dfd0ef          	jal	3174 <memset>
    54fc:	01b50733          	add	a4,a0,s11
    5500:	00070023          	sb	zero,0(a4)
    5504:	03014783          	lbu	a5,48(sp)
    5508:	cccff06f          	j	49d4 <ee_vsprintf+0x554>
    550c:	fffd0d13          	add	s10,s10,-1
    5510:	d48ff06f          	j	4a58 <ee_vsprintf+0x5d8>
    5514:	ffed0d13          	add	s10,s10,-2
    5518:	d4804263          	bgtz	s0,4a5c <ee_vsprintf+0x5dc>
    551c:	d6cff06f          	j	4a88 <ee_vsprintf+0x608>
    5520:	03000693          	li	a3,48
    5524:	00d78023          	sb	a3,0(a5)
    5528:	02e00693          	li	a3,46
    552c:	00d780a3          	sb	a3,1(a5)
    5530:	40b00433          	neg	s0,a1
    5534:	00278793          	add	a5,a5,2
    5538:	02058463          	beqz	a1,5560 <ee_vsprintf+0x10e0>
    553c:	00078513          	mv	a0,a5
    5540:	00040613          	mv	a2,s0
    5544:	03000593          	li	a1,48
    5548:	00e12e23          	sw	a4,28(sp)
    554c:	01012c23          	sw	a6,24(sp)
    5550:	c25fd0ef          	jal	3174 <memset>
    5554:	01c12703          	lw	a4,28(sp)
    5558:	01812803          	lw	a6,24(sp)
    555c:	008507b3          	add	a5,a0,s0
    5560:	00180813          	add	a6,a6,1
    5564:	00e78023          	sb	a4,0(a5)
    5568:	00084703          	lbu	a4,0(a6)
    556c:	00178793          	add	a5,a5,1
    5570:	fe0718e3          	bnez	a4,5560 <ee_vsprintf+0x10e0>
    5574:	c4cff06f          	j	49c0 <ee_vsprintf+0x540>
    5578:	00050493          	mv	s1,a0
    557c:	a59ff06f          	j	4fd4 <ee_vsprintf+0xb54>
    5580:	03010813          	add	a6,sp,48
    5584:	e1dff06f          	j	53a0 <ee_vsprintf+0xf20>

Disassembly of section .text.bm_printf:

00005588 <bm_printf>:
    5588:	bc010113          	add	sp,sp,-1088
    558c:	42410313          	add	t1,sp,1060
    5590:	40912a23          	sw	s1,1044(sp)
    5594:	01010493          	add	s1,sp,16
    5598:	42b12223          	sw	a1,1060(sp)
    559c:	42c12423          	sw	a2,1064(sp)
    55a0:	00050593          	mv	a1,a0
    55a4:	00030613          	mv	a2,t1
    55a8:	00048513          	mv	a0,s1
    55ac:	40112e23          	sw	ra,1052(sp)
    55b0:	42d12623          	sw	a3,1068(sp)
    55b4:	42e12823          	sw	a4,1072(sp)
    55b8:	42f12a23          	sw	a5,1076(sp)
