
slrx.elf:     file format elf32-littleriscv


Disassembly of section .vectors:

00000000 <_stack_orig-0x105af0>:
   0:	00000013          	nop
   4:	00000013          	nop
   8:	00000013          	nop
   c:	00000013          	nop
  10:	00000013          	nop
  14:	00000013          	nop
  18:	00000013          	nop
  1c:	00000013          	nop
  20:	00000013          	nop
  24:	00000013          	nop
  28:	00000013          	nop
  2c:	00000013          	nop
  30:	00000013          	nop
  34:	00000013          	nop
  38:	00000013          	nop
  3c:	00000013          	nop
  40:	00000013          	nop
  44:	00000013          	nop
  48:	00000013          	nop
  4c:	00000013          	nop
  50:	00000013          	nop
  54:	00000013          	nop
  58:	00000013          	nop
  5c:	00000013          	nop
  60:	00000013          	nop
  64:	00000013          	nop
  68:	00000013          	nop
  6c:	00000013          	nop
  70:	00000013          	nop
  74:	00000013          	nop
  78:	00000013          	nop
  7c:	00000013          	nop
  80:	0040006f          	j	84 <_stext>

Disassembly of section .text:

00000084 <_stext>:
      84:	00000093          	li	ra,0
      88:	00008113          	mv	sp,ra
      8c:	00008193          	mv	gp,ra
      90:	00008213          	mv	tp,ra
      94:	00008293          	mv	t0,ra
      98:	00008313          	mv	t1,ra
      9c:	00008393          	mv	t2,ra
      a0:	00008413          	mv	s0,ra
      a4:	00008493          	mv	s1,ra
      a8:	00008513          	mv	a0,ra
      ac:	00008593          	mv	a1,ra
      b0:	00008613          	mv	a2,ra
      b4:	00008693          	mv	a3,ra
      b8:	00008713          	mv	a4,ra
      bc:	00008793          	mv	a5,ra
      c0:	00008813          	mv	a6,ra
      c4:	00008893          	mv	a7,ra
      c8:	00008913          	mv	s2,ra
      cc:	00008993          	mv	s3,ra
      d0:	00008a13          	mv	s4,ra
      d4:	00008a93          	mv	s5,ra
      d8:	00008b13          	mv	s6,ra
      dc:	00008b93          	mv	s7,ra
      e0:	00008c13          	mv	s8,ra
      e4:	00008c93          	mv	s9,ra
      e8:	00008d13          	mv	s10,ra
      ec:	00008d93          	mv	s11,ra
      f0:	00008e13          	mv	t3,ra
      f4:	00008e93          	mv	t4,ra
      f8:	00008f13          	mv	t5,ra
      fc:	00008f93          	mv	t6,ra
     100:	00106117          	auipc	sp,0x106
     104:	df010113          	add	sp,sp,-528 # 105ef0 <GPBUF_BASE>

00000108 <_start>:
     108:	00100d17          	auipc	s10,0x100
     10c:	7c8d0d13          	add	s10,s10,1992 # 1008d0 <alloc_headers>
     110:	00101d97          	auipc	s11,0x101
     114:	8f8d8d93          	add	s11,s11,-1800 # 100a08 <_bss_end>
     118:	01bd5863          	bge	s10,s11,128 <zero_loop_end>

0000011c <zero_loop>:
     11c:	000d2023          	sw	zero,0(s10)
     120:	004d0d13          	add	s10,s10,4
     124:	ffaddce3          	bge	s11,s10,11c <zero_loop>

00000128 <zero_loop_end>:
     128:	7f5030ef          	jal	411c <__libc_init_array>

0000012c <main_entry>:
     12c:	00000513          	li	a0,0
     130:	00000593          	li	a1,0
     134:	765040ef          	jal	5098 <main>

00000138 <k5_exit_loop>:
     138:	000000ef          	jal	138 <k5_exit_loop>

0000013c <_fini>:
     13c:	00008067          	ret

00000140 <modf>:
     140:	4145d793          	sra	a5,a1,0x14
     144:	ff010113          	add	sp,sp,-16
     148:	7ff7f793          	and	a5,a5,2047
     14c:	00812423          	sw	s0,8(sp)
     150:	00912223          	sw	s1,4(sp)
     154:	01212023          	sw	s2,0(sp)
     158:	00112623          	sw	ra,12(sp)
     15c:	c0178713          	add	a4,a5,-1023
     160:	01300693          	li	a3,19
     164:	00058413          	mv	s0,a1
     168:	00050493          	mv	s1,a0
     16c:	00060913          	mv	s2,a2
     170:	04e6cc63          	blt	a3,a4,1c8 <modf+0x88>
     174:	10074a63          	bltz	a4,288 <modf+0x148>
     178:	001007b7          	lui	a5,0x100
     17c:	fff78793          	add	a5,a5,-1 # fffff <IMEM_SIZE+0xebfff>
     180:	40e7d7b3          	sra	a5,a5,a4
     184:	00b7f733          	and	a4,a5,a1
     188:	00a76733          	or	a4,a4,a0
     18c:	06071a63          	bnez	a4,200 <modf+0xc0>
     190:	00040793          	mv	a5,s0
     194:	800006b7          	lui	a3,0x80000
     198:	00992023          	sw	s1,0(s2)
     19c:	0086f433          	and	s0,a3,s0
     1a0:	00f92223          	sw	a5,4(s2)
     1a4:	00000493          	li	s1,0
     1a8:	00c12083          	lw	ra,12(sp)
     1ac:	00040593          	mv	a1,s0
     1b0:	00812403          	lw	s0,8(sp)
     1b4:	00012903          	lw	s2,0(sp)
     1b8:	00048513          	mv	a0,s1
     1bc:	00412483          	lw	s1,4(sp)
     1c0:	01010113          	add	sp,sp,16
     1c4:	00008067          	ret
     1c8:	03300693          	li	a3,51
     1cc:	08e6c263          	blt	a3,a4,250 <modf+0x110>
     1d0:	fff00713          	li	a4,-1
     1d4:	bed78793          	add	a5,a5,-1043
     1d8:	00f757b3          	srl	a5,a4,a5
     1dc:	00a7f733          	and	a4,a5,a0
     1e0:	fa0708e3          	beqz	a4,190 <modf+0x50>
     1e4:	fff7c793          	not	a5,a5
     1e8:	00a7f7b3          	and	a5,a5,a0
     1ec:	00078813          	mv	a6,a5
     1f0:	00078613          	mv	a2,a5
     1f4:	00058893          	mv	a7,a1
     1f8:	00058693          	mv	a3,a1
     1fc:	0200006f          	j	21c <modf+0xdc>
     200:	fff7c793          	not	a5,a5
     204:	00000713          	li	a4,0
     208:	00b7f7b3          	and	a5,a5,a1
     20c:	00070813          	mv	a6,a4
     210:	00070613          	mv	a2,a4
     214:	00078893          	mv	a7,a5
     218:	00078693          	mv	a3,a5
     21c:	01092023          	sw	a6,0(s2)
     220:	01192223          	sw	a7,4(s2)
     224:	18d020ef          	jal	2bb0 <__subdf3>
     228:	00058413          	mv	s0,a1
     22c:	00c12083          	lw	ra,12(sp)
     230:	00040593          	mv	a1,s0
     234:	00812403          	lw	s0,8(sp)
     238:	00050493          	mv	s1,a0
     23c:	00012903          	lw	s2,0(sp)
     240:	00048513          	mv	a0,s1
     244:	00412483          	lw	s1,4(sp)
     248:	01010113          	add	sp,sp,16
     24c:	00008067          	ret
     250:	00a92023          	sw	a0,0(s2)
     254:	00b92223          	sw	a1,4(s2)
     258:	070000ef          	jal	2c8 <__fpclassifyd>
     25c:	04051e63          	bnez	a0,2b8 <modf+0x178>
     260:	00048613          	mv	a2,s1
     264:	00048513          	mv	a0,s1
     268:	00040693          	mv	a3,s0
     26c:	00040593          	mv	a1,s0
     270:	5ad000ef          	jal	101c <__adddf3>
     274:	00050493          	mv	s1,a0
     278:	00058413          	mv	s0,a1
     27c:	00a92023          	sw	a0,0(s2)
     280:	00b92223          	sw	a1,4(s2)
     284:	f25ff06f          	j	1a8 <modf+0x68>
     288:	800007b7          	lui	a5,0x80000
     28c:	00c12083          	lw	ra,12(sp)
     290:	00b7f7b3          	and	a5,a5,a1
     294:	00040593          	mv	a1,s0
     298:	00812403          	lw	s0,8(sp)
     29c:	00062023          	sw	zero,0(a2)
     2a0:	00f62223          	sw	a5,4(a2)
     2a4:	00012903          	lw	s2,0(sp)
     2a8:	00048513          	mv	a0,s1
     2ac:	00412483          	lw	s1,4(sp)
     2b0:	01010113          	add	sp,sp,16
     2b4:	00008067          	ret
     2b8:	800007b7          	lui	a5,0x80000
     2bc:	0087f433          	and	s0,a5,s0
     2c0:	00000493          	li	s1,0
     2c4:	ee5ff06f          	j	1a8 <modf+0x68>

000002c8 <__fpclassifyd>:
     2c8:	00b56733          	or	a4,a0,a1
     2cc:	00050793          	mv	a5,a0
     2d0:	04070c63          	beqz	a4,328 <__fpclassifyd+0x60>
     2d4:	80000737          	lui	a4,0x80000
     2d8:	04e58263          	beq	a1,a4,31c <__fpclassifyd+0x54>
     2dc:	fff70693          	add	a3,a4,-1 # 7fffffff <MTSSV_BASE+0x7fef8007>
     2e0:	00b6f6b3          	and	a3,a3,a1
     2e4:	fff00837          	lui	a6,0xfff00
     2e8:	01068833          	add	a6,a3,a6
     2ec:	7fe008b7          	lui	a7,0x7fe00
     2f0:	00400513          	li	a0,4
     2f4:	03186263          	bltu	a6,a7,318 <__fpclassifyd+0x50>
     2f8:	00100837          	lui	a6,0x100
     2fc:	00300513          	li	a0,3
     300:	0105ec63          	bltu	a1,a6,318 <__fpclassifyd+0x50>
     304:	00b70733          	add	a4,a4,a1
     308:	01076863          	bltu	a4,a6,318 <__fpclassifyd+0x50>
     30c:	7ff00737          	lui	a4,0x7ff00
     310:	00000513          	li	a0,0
     314:	00e68e63          	beq	a3,a4,330 <__fpclassifyd+0x68>
     318:	00008067          	ret
     31c:	00a03533          	snez	a0,a0
     320:	00250513          	add	a0,a0,2
     324:	00008067          	ret
     328:	00200513          	li	a0,2
     32c:	00008067          	ret
     330:	0017b513          	seqz	a0,a5
     334:	00008067          	ret

00000338 <__divdi3>:
     338:	fd010113          	add	sp,sp,-48
     33c:	03212023          	sw	s2,32(sp)
     340:	01412c23          	sw	s4,24(sp)
     344:	02112623          	sw	ra,44(sp)
     348:	02912223          	sw	s1,36(sp)
     34c:	01312e23          	sw	s3,28(sp)
     350:	01712623          	sw	s7,12(sp)
     354:	00050913          	mv	s2,a0
     358:	00000a13          	li	s4,0
     35c:	1a05c663          	bltz	a1,508 <STACK_SIZE+0x108>
     360:	0006dc63          	bgez	a3,378 <__divdi3+0x40>
     364:	00c037b3          	snez	a5,a2
     368:	40d006b3          	neg	a3,a3
     36c:	fffa4a13          	not	s4,s4
     370:	40f686b3          	sub	a3,a3,a5
     374:	40c00633          	neg	a2,a2
     378:	00060b93          	mv	s7,a2
     37c:	00090993          	mv	s3,s2
     380:	00058493          	mv	s1,a1
     384:	14069063          	bnez	a3,4c4 <STACK_SIZE+0xc4>
     388:	02812423          	sw	s0,40(sp)
     38c:	01512a23          	sw	s5,20(sp)
     390:	01612823          	sw	s6,16(sp)
     394:	1cc5fe63          	bgeu	a1,a2,570 <STACK_SIZE+0x170>
     398:	000107b7          	lui	a5,0x10
     39c:	2ef66463          	bltu	a2,a5,684 <STACK_SIZE+0x284>
     3a0:	010007b7          	lui	a5,0x1000
     3a4:	01800713          	li	a4,24
     3a8:	00f67463          	bgeu	a2,a5,3b0 <__divdi3+0x78>
     3ac:	01000713          	li	a4,16
     3b0:	001007b7          	lui	a5,0x100
     3b4:	00e656b3          	srl	a3,a2,a4
     3b8:	0e878793          	add	a5,a5,232 # 1000e8 <__clz_tab>
     3bc:	00d787b3          	add	a5,a5,a3
     3c0:	0007c783          	lbu	a5,0(a5)
     3c4:	02000693          	li	a3,32
     3c8:	00e787b3          	add	a5,a5,a4
     3cc:	40f68733          	sub	a4,a3,a5
     3d0:	00f68c63          	beq	a3,a5,3e8 <__divdi3+0xb0>
     3d4:	00e594b3          	sll	s1,a1,a4
     3d8:	00f957b3          	srl	a5,s2,a5
     3dc:	00e61bb3          	sll	s7,a2,a4
     3e0:	0097e4b3          	or	s1,a5,s1
     3e4:	00e919b3          	sll	s3,s2,a4
     3e8:	010bda93          	srl	s5,s7,0x10
     3ec:	000a8593          	mv	a1,s5
     3f0:	00048513          	mv	a0,s1
     3f4:	010b9b13          	sll	s6,s7,0x10
     3f8:	3f1030ef          	jal	3fe8 <__hidden___udivsi3>
     3fc:	010b5b13          	srl	s6,s6,0x10
     400:	00050593          	mv	a1,a0
     404:	00050413          	mv	s0,a0
     408:	000b0513          	mv	a0,s6
     40c:	3b1030ef          	jal	3fbc <__mulsi3>
     410:	00050793          	mv	a5,a0
     414:	000a8593          	mv	a1,s5
     418:	00048513          	mv	a0,s1
     41c:	00078493          	mv	s1,a5
     420:	411030ef          	jal	4030 <__umodsi3>
     424:	01051513          	sll	a0,a0,0x10
     428:	0109d793          	srl	a5,s3,0x10
     42c:	00a7e7b3          	or	a5,a5,a0
     430:	0097fc63          	bgeu	a5,s1,448 <STACK_SIZE+0x48>
     434:	00fb87b3          	add	a5,s7,a5
     438:	fff40713          	add	a4,s0,-1
     43c:	0177e463          	bltu	a5,s7,444 <STACK_SIZE+0x44>
     440:	5897e863          	bltu	a5,s1,9d0 <STACK_SIZE+0x5d0>
     444:	00070413          	mv	s0,a4
     448:	409784b3          	sub	s1,a5,s1
     44c:	000a8593          	mv	a1,s5
     450:	00048513          	mv	a0,s1
     454:	395030ef          	jal	3fe8 <__hidden___udivsi3>
     458:	00050593          	mv	a1,a0
     45c:	00050913          	mv	s2,a0
     460:	000b0513          	mv	a0,s6
     464:	359030ef          	jal	3fbc <__mulsi3>
     468:	00050793          	mv	a5,a0
     46c:	000a8593          	mv	a1,s5
     470:	00048513          	mv	a0,s1
     474:	01099993          	sll	s3,s3,0x10
     478:	00078493          	mv	s1,a5
     47c:	3b5030ef          	jal	4030 <__umodsi3>
     480:	01051513          	sll	a0,a0,0x10
     484:	0109d993          	srl	s3,s3,0x10
     488:	00a9e9b3          	or	s3,s3,a0
     48c:	0099fe63          	bgeu	s3,s1,4a8 <STACK_SIZE+0xa8>
     490:	013b89b3          	add	s3,s7,s3
     494:	fff90793          	add	a5,s2,-1
     498:	0179e663          	bltu	s3,s7,4a4 <STACK_SIZE+0xa4>
     49c:	ffe90913          	add	s2,s2,-2
     4a0:	0099e463          	bltu	s3,s1,4a8 <STACK_SIZE+0xa8>
     4a4:	00078913          	mv	s2,a5
     4a8:	01041413          	sll	s0,s0,0x10
     4ac:	01246533          	or	a0,s0,s2
     4b0:	01412a83          	lw	s5,20(sp)
     4b4:	02812403          	lw	s0,40(sp)
     4b8:	01012b03          	lw	s6,16(sp)
     4bc:	00000913          	li	s2,0
     4c0:	0100006f          	j	4d0 <STACK_SIZE+0xd0>
     4c4:	04d5fe63          	bgeu	a1,a3,520 <STACK_SIZE+0x120>
     4c8:	00000913          	li	s2,0
     4cc:	00000513          	li	a0,0
     4d0:	00090593          	mv	a1,s2
     4d4:	000a0a63          	beqz	s4,4e8 <STACK_SIZE+0xe8>
     4d8:	00a037b3          	snez	a5,a0
     4dc:	412005b3          	neg	a1,s2
     4e0:	40f585b3          	sub	a1,a1,a5
     4e4:	40a00533          	neg	a0,a0
     4e8:	02c12083          	lw	ra,44(sp)
     4ec:	02412483          	lw	s1,36(sp)
     4f0:	02012903          	lw	s2,32(sp)
     4f4:	01c12983          	lw	s3,28(sp)
     4f8:	01812a03          	lw	s4,24(sp)
     4fc:	00c12b83          	lw	s7,12(sp)
     500:	03010113          	add	sp,sp,48
     504:	00008067          	ret
     508:	00a037b3          	snez	a5,a0
     50c:	40b005b3          	neg	a1,a1
     510:	40f585b3          	sub	a1,a1,a5
     514:	40a00933          	neg	s2,a0
     518:	fff00a13          	li	s4,-1
     51c:	e45ff06f          	j	360 <__divdi3+0x28>
     520:	000107b7          	lui	a5,0x10
     524:	28f6e463          	bltu	a3,a5,7ac <STACK_SIZE+0x3ac>
     528:	010007b7          	lui	a5,0x1000
     52c:	01800513          	li	a0,24
     530:	00f6f463          	bgeu	a3,a5,538 <STACK_SIZE+0x138>
     534:	01000513          	li	a0,16
     538:	001007b7          	lui	a5,0x100
     53c:	00a6d733          	srl	a4,a3,a0
     540:	0e878793          	add	a5,a5,232 # 1000e8 <__clz_tab>
     544:	00e787b3          	add	a5,a5,a4
     548:	0007c703          	lbu	a4,0(a5)
     54c:	02000793          	li	a5,32
     550:	00a70733          	add	a4,a4,a0
     554:	40e78bb3          	sub	s7,a5,a4
     558:	26e79263          	bne	a5,a4,7bc <STACK_SIZE+0x3bc>
     55c:	42b6ee63          	bltu	a3,a1,998 <STACK_SIZE+0x598>
     560:	00c93533          	sltu	a0,s2,a2
     564:	00153513          	seqz	a0,a0
     568:	00000913          	li	s2,0
     56c:	f65ff06f          	j	4d0 <STACK_SIZE+0xd0>
     570:	12060263          	beqz	a2,694 <STACK_SIZE+0x294>
     574:	000107b7          	lui	a5,0x10
     578:	40f67663          	bgeu	a2,a5,984 <STACK_SIZE+0x584>
     57c:	10063713          	sltiu	a4,a2,256
     580:	00173713          	seqz	a4,a4
     584:	00371713          	sll	a4,a4,0x3
     588:	00e656b3          	srl	a3,a2,a4
     58c:	001007b7          	lui	a5,0x100
     590:	0e878793          	add	a5,a5,232 # 1000e8 <__clz_tab>
     594:	00d787b3          	add	a5,a5,a3
     598:	0007ca83          	lbu	s5,0(a5)
     59c:	02000793          	li	a5,32
     5a0:	00ea8ab3          	add	s5,s5,a4
     5a4:	41578733          	sub	a4,a5,s5
     5a8:	11579a63          	bne	a5,s5,6bc <STACK_SIZE+0x2bc>
     5ac:	01061493          	sll	s1,a2,0x10
     5b0:	40c58ab3          	sub	s5,a1,a2
     5b4:	01065b13          	srl	s6,a2,0x10
     5b8:	0104d493          	srl	s1,s1,0x10
     5bc:	00100913          	li	s2,1
     5c0:	000b0593          	mv	a1,s6
     5c4:	000a8513          	mv	a0,s5
     5c8:	221030ef          	jal	3fe8 <__hidden___udivsi3>
     5cc:	00048593          	mv	a1,s1
     5d0:	00050413          	mv	s0,a0
     5d4:	1e9030ef          	jal	3fbc <__mulsi3>
     5d8:	00050793          	mv	a5,a0
     5dc:	000b0593          	mv	a1,s6
     5e0:	000a8513          	mv	a0,s5
     5e4:	00078a93          	mv	s5,a5
     5e8:	249030ef          	jal	4030 <__umodsi3>
     5ec:	01051513          	sll	a0,a0,0x10
     5f0:	0109d793          	srl	a5,s3,0x10
     5f4:	00a7e7b3          	or	a5,a5,a0
     5f8:	0157fc63          	bgeu	a5,s5,610 <STACK_SIZE+0x210>
     5fc:	00fb87b3          	add	a5,s7,a5
     600:	fff40713          	add	a4,s0,-1
     604:	0177e463          	bltu	a5,s7,60c <STACK_SIZE+0x20c>
     608:	3b57ee63          	bltu	a5,s5,9c4 <STACK_SIZE+0x5c4>
     60c:	00070413          	mv	s0,a4
     610:	41578ab3          	sub	s5,a5,s5
     614:	000b0593          	mv	a1,s6
     618:	000a8513          	mv	a0,s5
     61c:	1cd030ef          	jal	3fe8 <__hidden___udivsi3>
     620:	00048593          	mv	a1,s1
     624:	00050493          	mv	s1,a0
     628:	195030ef          	jal	3fbc <__mulsi3>
     62c:	00050793          	mv	a5,a0
     630:	000b0593          	mv	a1,s6
     634:	000a8513          	mv	a0,s5
     638:	01099993          	sll	s3,s3,0x10
     63c:	00078a93          	mv	s5,a5
     640:	1f1030ef          	jal	4030 <__umodsi3>
     644:	01051513          	sll	a0,a0,0x10
     648:	0109d993          	srl	s3,s3,0x10
     64c:	00a9e9b3          	or	s3,s3,a0
     650:	0159fe63          	bgeu	s3,s5,66c <STACK_SIZE+0x26c>
     654:	013b89b3          	add	s3,s7,s3
     658:	fff48793          	add	a5,s1,-1
     65c:	0179e663          	bltu	s3,s7,668 <STACK_SIZE+0x268>
     660:	ffe48493          	add	s1,s1,-2
     664:	0159e463          	bltu	s3,s5,66c <STACK_SIZE+0x26c>
     668:	00078493          	mv	s1,a5
     66c:	01041513          	sll	a0,s0,0x10
     670:	01412a83          	lw	s5,20(sp)
     674:	02812403          	lw	s0,40(sp)
     678:	01012b03          	lw	s6,16(sp)
     67c:	00956533          	or	a0,a0,s1
     680:	e51ff06f          	j	4d0 <STACK_SIZE+0xd0>
     684:	10063713          	sltiu	a4,a2,256
     688:	00173713          	seqz	a4,a4
     68c:	00371713          	sll	a4,a4,0x3
     690:	d21ff06f          	j	3b0 <__divdi3+0x78>
     694:	001007b7          	lui	a5,0x100
     698:	00000693          	li	a3,0
     69c:	0e878793          	add	a5,a5,232 # 1000e8 <__clz_tab>
     6a0:	00d787b3          	add	a5,a5,a3
     6a4:	0007ca83          	lbu	s5,0(a5)
     6a8:	00000713          	li	a4,0
     6ac:	02000793          	li	a5,32
     6b0:	00ea8ab3          	add	s5,s5,a4
     6b4:	41578733          	sub	a4,a5,s5
     6b8:	ef578ae3          	beq	a5,s5,5ac <STACK_SIZE+0x1ac>
     6bc:	00e61bb3          	sll	s7,a2,a4
     6c0:	01812423          	sw	s8,8(sp)
     6c4:	010bdb13          	srl	s6,s7,0x10
     6c8:	0155dc33          	srl	s8,a1,s5
     6cc:	00e597b3          	sll	a5,a1,a4
     6d0:	01595ab3          	srl	s5,s2,s5
     6d4:	000b0593          	mv	a1,s6
     6d8:	000c0513          	mv	a0,s8
     6dc:	010b9493          	sll	s1,s7,0x10
     6e0:	00faeab3          	or	s5,s5,a5
     6e4:	00e919b3          	sll	s3,s2,a4
     6e8:	0104d493          	srl	s1,s1,0x10
     6ec:	0fd030ef          	jal	3fe8 <__hidden___udivsi3>
     6f0:	00050593          	mv	a1,a0
     6f4:	00050913          	mv	s2,a0
     6f8:	00048513          	mv	a0,s1
     6fc:	0c1030ef          	jal	3fbc <__mulsi3>
     700:	00050413          	mv	s0,a0
     704:	000b0593          	mv	a1,s6
     708:	000c0513          	mv	a0,s8
     70c:	125030ef          	jal	4030 <__umodsi3>
     710:	01051513          	sll	a0,a0,0x10
     714:	010ad793          	srl	a5,s5,0x10
     718:	00a7e7b3          	or	a5,a5,a0
     71c:	0087fe63          	bgeu	a5,s0,738 <STACK_SIZE+0x338>
     720:	00fb87b3          	add	a5,s7,a5
     724:	fff90713          	add	a4,s2,-1
     728:	2977e663          	bltu	a5,s7,9b4 <STACK_SIZE+0x5b4>
     72c:	2887f463          	bgeu	a5,s0,9b4 <STACK_SIZE+0x5b4>
     730:	ffe90913          	add	s2,s2,-2
     734:	017787b3          	add	a5,a5,s7
     738:	40878433          	sub	s0,a5,s0
     73c:	000b0593          	mv	a1,s6
     740:	00040513          	mv	a0,s0
     744:	0a5030ef          	jal	3fe8 <__hidden___udivsi3>
     748:	00050593          	mv	a1,a0
     74c:	00050c13          	mv	s8,a0
     750:	00048513          	mv	a0,s1
     754:	069030ef          	jal	3fbc <__mulsi3>
     758:	00050793          	mv	a5,a0
     75c:	000b0593          	mv	a1,s6
     760:	00040513          	mv	a0,s0
     764:	010a9a93          	sll	s5,s5,0x10
     768:	00078413          	mv	s0,a5
     76c:	0c5030ef          	jal	4030 <__umodsi3>
     770:	01051513          	sll	a0,a0,0x10
     774:	010ada93          	srl	s5,s5,0x10
     778:	00aaeab3          	or	s5,s5,a0
     77c:	008afe63          	bgeu	s5,s0,798 <STACK_SIZE+0x398>
     780:	015b8ab3          	add	s5,s7,s5
     784:	fffc0793          	add	a5,s8,-1
     788:	217aee63          	bltu	s5,s7,9a4 <STACK_SIZE+0x5a4>
     78c:	208afc63          	bgeu	s5,s0,9a4 <STACK_SIZE+0x5a4>
     790:	ffec0c13          	add	s8,s8,-2
     794:	017a8ab3          	add	s5,s5,s7
     798:	01091913          	sll	s2,s2,0x10
     79c:	01896933          	or	s2,s2,s8
     7a0:	408a8ab3          	sub	s5,s5,s0
     7a4:	00812c03          	lw	s8,8(sp)
     7a8:	e19ff06f          	j	5c0 <STACK_SIZE+0x1c0>
     7ac:	1006b513          	sltiu	a0,a3,256
     7b0:	00153513          	seqz	a0,a0
     7b4:	00351513          	sll	a0,a0,0x3
     7b8:	d81ff06f          	j	538 <STACK_SIZE+0x138>
     7bc:	017696b3          	sll	a3,a3,s7
     7c0:	01a12023          	sw	s10,0(sp)
     7c4:	00e65d33          	srl	s10,a2,a4
     7c8:	00dd6d33          	or	s10,s10,a3
     7cc:	01512a23          	sw	s5,20(sp)
     7d0:	01912223          	sw	s9,4(sp)
     7d4:	010d5a93          	srl	s5,s10,0x10
     7d8:	00e5dcb3          	srl	s9,a1,a4
     7dc:	017597b3          	sll	a5,a1,s7
     7e0:	00e95733          	srl	a4,s2,a4
     7e4:	01812423          	sw	s8,8(sp)
     7e8:	000a8593          	mv	a1,s5
     7ec:	000c8513          	mv	a0,s9
     7f0:	010d1c13          	sll	s8,s10,0x10
     7f4:	00f769b3          	or	s3,a4,a5
     7f8:	017614b3          	sll	s1,a2,s7
     7fc:	02812423          	sw	s0,40(sp)
     800:	01612823          	sw	s6,16(sp)
     804:	010c5c13          	srl	s8,s8,0x10
     808:	7e0030ef          	jal	3fe8 <__hidden___udivsi3>
     80c:	00050593          	mv	a1,a0
     810:	00050413          	mv	s0,a0
     814:	000c0513          	mv	a0,s8
     818:	7a4030ef          	jal	3fbc <__mulsi3>
     81c:	00050b13          	mv	s6,a0
     820:	000a8593          	mv	a1,s5
     824:	000c8513          	mv	a0,s9
     828:	009030ef          	jal	4030 <__umodsi3>
     82c:	01051513          	sll	a0,a0,0x10
     830:	0109d793          	srl	a5,s3,0x10
     834:	00a7e7b3          	or	a5,a5,a0
     838:	0167fe63          	bgeu	a5,s6,854 <STACK_SIZE+0x454>
     83c:	00fd07b3          	add	a5,s10,a5
     840:	fff40713          	add	a4,s0,-1
     844:	17a7ec63          	bltu	a5,s10,9bc <STACK_SIZE+0x5bc>
     848:	1767fa63          	bgeu	a5,s6,9bc <STACK_SIZE+0x5bc>
     84c:	ffe40413          	add	s0,s0,-2
     850:	01a787b3          	add	a5,a5,s10
     854:	41678b33          	sub	s6,a5,s6
     858:	000a8593          	mv	a1,s5
     85c:	000b0513          	mv	a0,s6
     860:	788030ef          	jal	3fe8 <__hidden___udivsi3>
     864:	00050593          	mv	a1,a0
     868:	00050c93          	mv	s9,a0
     86c:	000c0513          	mv	a0,s8
     870:	74c030ef          	jal	3fbc <__mulsi3>
     874:	00050793          	mv	a5,a0
     878:	000a8593          	mv	a1,s5
     87c:	000b0513          	mv	a0,s6
     880:	00078a93          	mv	s5,a5
     884:	7ac030ef          	jal	4030 <__umodsi3>
     888:	01099713          	sll	a4,s3,0x10
     88c:	01051513          	sll	a0,a0,0x10
     890:	01075713          	srl	a4,a4,0x10
     894:	00a76733          	or	a4,a4,a0
     898:	01577e63          	bgeu	a4,s5,8b4 <STACK_SIZE+0x4b4>
     89c:	00ed0733          	add	a4,s10,a4
     8a0:	fffc8793          	add	a5,s9,-1
     8a4:	11a76463          	bltu	a4,s10,9ac <STACK_SIZE+0x5ac>
     8a8:	11577263          	bgeu	a4,s5,9ac <STACK_SIZE+0x5ac>
     8ac:	ffec8c93          	add	s9,s9,-2
     8b0:	01a70733          	add	a4,a4,s10
     8b4:	01041513          	sll	a0,s0,0x10
     8b8:	00010337          	lui	t1,0x10
     8bc:	01956433          	or	s0,a0,s9
     8c0:	fff30793          	add	a5,t1,-1 # ffff <DMEM_TOTAL_SIZE+0x7fff>
     8c4:	00f47833          	and	a6,s0,a5
     8c8:	00f4f7b3          	and	a5,s1,a5
     8cc:	41570733          	sub	a4,a4,s5
     8d0:	01045e93          	srl	t4,s0,0x10
     8d4:	0104d493          	srl	s1,s1,0x10
     8d8:	00080513          	mv	a0,a6
     8dc:	00078593          	mv	a1,a5
     8e0:	6dc030ef          	jal	3fbc <__mulsi3>
     8e4:	00050e13          	mv	t3,a0
     8e8:	00048593          	mv	a1,s1
     8ec:	00080513          	mv	a0,a6
     8f0:	6cc030ef          	jal	3fbc <__mulsi3>
     8f4:	00050813          	mv	a6,a0
     8f8:	00078593          	mv	a1,a5
     8fc:	000e8513          	mv	a0,t4
     900:	6bc030ef          	jal	3fbc <__mulsi3>
     904:	00050893          	mv	a7,a0
     908:	00048593          	mv	a1,s1
     90c:	000e8513          	mv	a0,t4
     910:	6ac030ef          	jal	3fbc <__mulsi3>
     914:	010e5793          	srl	a5,t3,0x10
     918:	01180833          	add	a6,a6,a7
     91c:	010787b3          	add	a5,a5,a6
     920:	0117f463          	bgeu	a5,a7,928 <STACK_SIZE+0x528>
     924:	00650533          	add	a0,a0,t1
     928:	0107d693          	srl	a3,a5,0x10
     92c:	00a686b3          	add	a3,a3,a0
     930:	04d76663          	bltu	a4,a3,97c <STACK_SIZE+0x57c>
     934:	02d70463          	beq	a4,a3,95c <STACK_SIZE+0x55c>
     938:	00040513          	mv	a0,s0
     93c:	02812403          	lw	s0,40(sp)
     940:	01412a83          	lw	s5,20(sp)
     944:	01012b03          	lw	s6,16(sp)
     948:	00812c03          	lw	s8,8(sp)
     94c:	00412c83          	lw	s9,4(sp)
     950:	00012d03          	lw	s10,0(sp)
     954:	00000913          	li	s2,0
     958:	b79ff06f          	j	4d0 <STACK_SIZE+0xd0>
     95c:	00010737          	lui	a4,0x10
     960:	fff70713          	add	a4,a4,-1 # ffff <DMEM_TOTAL_SIZE+0x7fff>
     964:	00e7f7b3          	and	a5,a5,a4
     968:	01079793          	sll	a5,a5,0x10
     96c:	00ee7e33          	and	t3,t3,a4
     970:	01791533          	sll	a0,s2,s7
     974:	01c787b3          	add	a5,a5,t3
     978:	fcf570e3          	bgeu	a0,a5,938 <STACK_SIZE+0x538>
     97c:	fff40513          	add	a0,s0,-1
     980:	fbdff06f          	j	93c <STACK_SIZE+0x53c>
     984:	010007b7          	lui	a5,0x1000
     988:	04f67a63          	bgeu	a2,a5,9dc <STACK_SIZE+0x5dc>
     98c:	01065693          	srl	a3,a2,0x10
     990:	01000713          	li	a4,16
     994:	bf9ff06f          	j	58c <STACK_SIZE+0x18c>
     998:	00000913          	li	s2,0
     99c:	00100513          	li	a0,1
     9a0:	b31ff06f          	j	4d0 <STACK_SIZE+0xd0>
     9a4:	00078c13          	mv	s8,a5
     9a8:	df1ff06f          	j	798 <STACK_SIZE+0x398>
     9ac:	00078c93          	mv	s9,a5
     9b0:	f05ff06f          	j	8b4 <STACK_SIZE+0x4b4>
     9b4:	00070913          	mv	s2,a4
     9b8:	d81ff06f          	j	738 <STACK_SIZE+0x338>
     9bc:	00070413          	mv	s0,a4
     9c0:	e95ff06f          	j	854 <STACK_SIZE+0x454>
     9c4:	ffe40413          	add	s0,s0,-2
     9c8:	017787b3          	add	a5,a5,s7
     9cc:	c45ff06f          	j	610 <STACK_SIZE+0x210>
     9d0:	ffe40413          	add	s0,s0,-2
     9d4:	017787b3          	add	a5,a5,s7
     9d8:	a71ff06f          	j	448 <STACK_SIZE+0x48>
     9dc:	01865693          	srl	a3,a2,0x18
     9e0:	01800713          	li	a4,24
     9e4:	ba9ff06f          	j	58c <STACK_SIZE+0x18c>

000009e8 <__moddi3>:
     9e8:	fc010113          	add	sp,sp,-64
     9ec:	02812c23          	sw	s0,56(sp)
     9f0:	02112e23          	sw	ra,60(sp)
     9f4:	03212823          	sw	s2,48(sp)
     9f8:	03312623          	sw	s3,44(sp)
     9fc:	03412423          	sw	s4,40(sp)
     a00:	00050793          	mv	a5,a0
     a04:	00000413          	li	s0,0
     a08:	1c05cc63          	bltz	a1,be0 <__moddi3+0x1f8>
     a0c:	0006da63          	bgez	a3,a20 <__moddi3+0x38>
     a10:	00c03733          	snez	a4,a2
     a14:	40d006b3          	neg	a3,a3
     a18:	40e686b3          	sub	a3,a3,a4
     a1c:	40c00633          	neg	a2,a2
     a20:	00060993          	mv	s3,a2
     a24:	00078a13          	mv	s4,a5
     a28:	00058913          	mv	s2,a1
     a2c:	14069663          	bnez	a3,b78 <__moddi3+0x190>
     a30:	02912a23          	sw	s1,52(sp)
     a34:	03512223          	sw	s5,36(sp)
     a38:	03612023          	sw	s6,32(sp)
     a3c:	1ac5fe63          	bgeu	a1,a2,bf8 <__moddi3+0x210>
     a40:	00010737          	lui	a4,0x10
     a44:	28e66463          	bltu	a2,a4,ccc <__moddi3+0x2e4>
     a48:	01000737          	lui	a4,0x1000
     a4c:	01800693          	li	a3,24
     a50:	00e67463          	bgeu	a2,a4,a58 <__moddi3+0x70>
     a54:	01000693          	li	a3,16
     a58:	00100737          	lui	a4,0x100
     a5c:	00d65533          	srl	a0,a2,a3
     a60:	0e870713          	add	a4,a4,232 # 1000e8 <__clz_tab>
     a64:	00a70733          	add	a4,a4,a0
     a68:	00074703          	lbu	a4,0(a4)
     a6c:	02000513          	li	a0,32
     a70:	00d70733          	add	a4,a4,a3
     a74:	40e504b3          	sub	s1,a0,a4
     a78:	00e50c63          	beq	a0,a4,a90 <__moddi3+0xa8>
     a7c:	00959933          	sll	s2,a1,s1
     a80:	00e7d733          	srl	a4,a5,a4
     a84:	009619b3          	sll	s3,a2,s1
     a88:	01276933          	or	s2,a4,s2
     a8c:	00979a33          	sll	s4,a5,s1
     a90:	0109da93          	srl	s5,s3,0x10
     a94:	000a8593          	mv	a1,s5
     a98:	00090513          	mv	a0,s2
     a9c:	01099b13          	sll	s6,s3,0x10
     aa0:	548030ef          	jal	3fe8 <__hidden___udivsi3>
     aa4:	010b5b13          	srl	s6,s6,0x10
     aa8:	000b0593          	mv	a1,s6
     aac:	510030ef          	jal	3fbc <__mulsi3>
     ab0:	00050793          	mv	a5,a0
     ab4:	000a8593          	mv	a1,s5
     ab8:	00090513          	mv	a0,s2
     abc:	00078913          	mv	s2,a5
     ac0:	570030ef          	jal	4030 <__umodsi3>
     ac4:	01051513          	sll	a0,a0,0x10
     ac8:	010a5793          	srl	a5,s4,0x10
     acc:	00a7e7b3          	or	a5,a5,a0
     ad0:	0127f863          	bgeu	a5,s2,ae0 <__moddi3+0xf8>
     ad4:	00f987b3          	add	a5,s3,a5
     ad8:	0137e463          	bltu	a5,s3,ae0 <__moddi3+0xf8>
     adc:	5327e663          	bltu	a5,s2,1008 <__moddi3+0x620>
     ae0:	41278933          	sub	s2,a5,s2
     ae4:	000a8593          	mv	a1,s5
     ae8:	00090513          	mv	a0,s2
     aec:	4fc030ef          	jal	3fe8 <__hidden___udivsi3>
     af0:	000b0593          	mv	a1,s6
     af4:	4c8030ef          	jal	3fbc <__mulsi3>
     af8:	00050793          	mv	a5,a0
     afc:	000a8593          	mv	a1,s5
     b00:	00090513          	mv	a0,s2
     b04:	00078913          	mv	s2,a5
     b08:	528030ef          	jal	4030 <__umodsi3>
     b0c:	010a1793          	sll	a5,s4,0x10
     b10:	01051513          	sll	a0,a0,0x10
     b14:	0107d793          	srl	a5,a5,0x10
     b18:	00a7e7b3          	or	a5,a5,a0
     b1c:	0127fa63          	bgeu	a5,s2,b30 <__moddi3+0x148>
     b20:	00f987b3          	add	a5,s3,a5
     b24:	0137e663          	bltu	a5,s3,b30 <__moddi3+0x148>
     b28:	0127f463          	bgeu	a5,s2,b30 <__moddi3+0x148>
     b2c:	013787b3          	add	a5,a5,s3
     b30:	412787b3          	sub	a5,a5,s2
     b34:	0097d533          	srl	a0,a5,s1
     b38:	02412a83          	lw	s5,36(sp)
     b3c:	03412483          	lw	s1,52(sp)
     b40:	02012b03          	lw	s6,32(sp)
     b44:	00000593          	li	a1,0
     b48:	00040a63          	beqz	s0,b5c <__moddi3+0x174>
     b4c:	00a037b3          	snez	a5,a0
     b50:	40b005b3          	neg	a1,a1
     b54:	40f585b3          	sub	a1,a1,a5
     b58:	40a00533          	neg	a0,a0
     b5c:	03c12083          	lw	ra,60(sp)
     b60:	03812403          	lw	s0,56(sp)
     b64:	03012903          	lw	s2,48(sp)
     b68:	02c12983          	lw	s3,44(sp)
     b6c:	02812a03          	lw	s4,40(sp)
     b70:	04010113          	add	sp,sp,64
     b74:	00008067          	ret
     b78:	00078813          	mv	a6,a5
     b7c:	00078513          	mv	a0,a5
     b80:	fcd5e4e3          	bltu	a1,a3,b48 <__moddi3+0x160>
     b84:	00010737          	lui	a4,0x10
     b88:	24e6e663          	bltu	a3,a4,dd4 <__moddi3+0x3ec>
     b8c:	01000737          	lui	a4,0x1000
     b90:	01800513          	li	a0,24
     b94:	00e6f463          	bgeu	a3,a4,b9c <__moddi3+0x1b4>
     b98:	01000513          	li	a0,16
     b9c:	00100737          	lui	a4,0x100
     ba0:	00a6d8b3          	srl	a7,a3,a0
     ba4:	0e870713          	add	a4,a4,232 # 1000e8 <__clz_tab>
     ba8:	01170733          	add	a4,a4,a7
     bac:	00074a03          	lbu	s4,0(a4)
     bb0:	02000713          	li	a4,32
     bb4:	00aa0a33          	add	s4,s4,a0
     bb8:	414709b3          	sub	s3,a4,s4
     bbc:	23471463          	bne	a4,s4,de4 <__moddi3+0x3fc>
     bc0:	00b6e463          	bltu	a3,a1,bc8 <__moddi3+0x1e0>
     bc4:	00c7ea63          	bltu	a5,a2,bd8 <__moddi3+0x1f0>
     bc8:	40c78833          	sub	a6,a5,a2
     bcc:	40d586b3          	sub	a3,a1,a3
     bd0:	0107b5b3          	sltu	a1,a5,a6
     bd4:	40b685b3          	sub	a1,a3,a1
     bd8:	00080513          	mv	a0,a6
     bdc:	f6dff06f          	j	b48 <__moddi3+0x160>
     be0:	00a03733          	snez	a4,a0
     be4:	40b005b3          	neg	a1,a1
     be8:	40e585b3          	sub	a1,a1,a4
     bec:	40a007b3          	neg	a5,a0
     bf0:	fff00413          	li	s0,-1
     bf4:	e19ff06f          	j	a0c <__moddi3+0x24>
     bf8:	0e060263          	beqz	a2,cdc <__moddi3+0x2f4>
     bfc:	00010737          	lui	a4,0x10
     c00:	3ee67263          	bgeu	a2,a4,fe4 <__moddi3+0x5fc>
     c04:	10063693          	sltiu	a3,a2,256
     c08:	0016b693          	seqz	a3,a3
     c0c:	00369693          	sll	a3,a3,0x3
     c10:	00d65533          	srl	a0,a2,a3
     c14:	00100737          	lui	a4,0x100
     c18:	0e870713          	add	a4,a4,232 # 1000e8 <__clz_tab>
     c1c:	00a70733          	add	a4,a4,a0
     c20:	00074a83          	lbu	s5,0(a4)
     c24:	02000713          	li	a4,32
     c28:	00da8ab3          	add	s5,s5,a3
     c2c:	415704b3          	sub	s1,a4,s5
     c30:	0d571a63          	bne	a4,s5,d04 <__moddi3+0x31c>
     c34:	01061913          	sll	s2,a2,0x10
     c38:	40c58ab3          	sub	s5,a1,a2
     c3c:	01065b13          	srl	s6,a2,0x10
     c40:	01095913          	srl	s2,s2,0x10
     c44:	000b0593          	mv	a1,s6
     c48:	000a8513          	mv	a0,s5
     c4c:	39c030ef          	jal	3fe8 <__hidden___udivsi3>
     c50:	00090593          	mv	a1,s2
     c54:	368030ef          	jal	3fbc <__mulsi3>
     c58:	00050793          	mv	a5,a0
     c5c:	000b0593          	mv	a1,s6
     c60:	000a8513          	mv	a0,s5
     c64:	00078a93          	mv	s5,a5
     c68:	3c8030ef          	jal	4030 <__umodsi3>
     c6c:	01051513          	sll	a0,a0,0x10
     c70:	010a5793          	srl	a5,s4,0x10
     c74:	00a7e7b3          	or	a5,a5,a0
     c78:	0157fa63          	bgeu	a5,s5,c8c <__moddi3+0x2a4>
     c7c:	00f987b3          	add	a5,s3,a5
     c80:	0137e663          	bltu	a5,s3,c8c <__moddi3+0x2a4>
     c84:	0157f463          	bgeu	a5,s5,c8c <__moddi3+0x2a4>
     c88:	013787b3          	add	a5,a5,s3
     c8c:	41578ab3          	sub	s5,a5,s5
     c90:	000b0593          	mv	a1,s6
     c94:	000a8513          	mv	a0,s5
     c98:	350030ef          	jal	3fe8 <__hidden___udivsi3>
     c9c:	00090593          	mv	a1,s2
     ca0:	31c030ef          	jal	3fbc <__mulsi3>
     ca4:	00050913          	mv	s2,a0
     ca8:	000b0593          	mv	a1,s6
     cac:	000a8513          	mv	a0,s5
     cb0:	380030ef          	jal	4030 <__umodsi3>
     cb4:	010a1a13          	sll	s4,s4,0x10
     cb8:	01051793          	sll	a5,a0,0x10
     cbc:	010a5a13          	srl	s4,s4,0x10
     cc0:	00fa67b3          	or	a5,s4,a5
     cc4:	e727f6e3          	bgeu	a5,s2,b30 <__moddi3+0x148>
     cc8:	e59ff06f          	j	b20 <__moddi3+0x138>
     ccc:	10063693          	sltiu	a3,a2,256
     cd0:	0016b693          	seqz	a3,a3
     cd4:	00369693          	sll	a3,a3,0x3
     cd8:	d81ff06f          	j	a58 <__moddi3+0x70>
     cdc:	00100737          	lui	a4,0x100
     ce0:	00000513          	li	a0,0
     ce4:	0e870713          	add	a4,a4,232 # 1000e8 <__clz_tab>
     ce8:	00a70733          	add	a4,a4,a0
     cec:	00074a83          	lbu	s5,0(a4)
     cf0:	00000693          	li	a3,0
     cf4:	02000713          	li	a4,32
     cf8:	00da8ab3          	add	s5,s5,a3
     cfc:	415704b3          	sub	s1,a4,s5
     d00:	f3570ae3          	beq	a4,s5,c34 <__moddi3+0x24c>
     d04:	009619b3          	sll	s3,a2,s1
     d08:	01812c23          	sw	s8,24(sp)
     d0c:	0109db13          	srl	s6,s3,0x10
     d10:	0155dc33          	srl	s8,a1,s5
     d14:	00959733          	sll	a4,a1,s1
     d18:	0157dab3          	srl	s5,a5,s5
     d1c:	000b0593          	mv	a1,s6
     d20:	000c0513          	mv	a0,s8
     d24:	01099913          	sll	s2,s3,0x10
     d28:	00eaeab3          	or	s5,s5,a4
     d2c:	00979a33          	sll	s4,a5,s1
     d30:	01712e23          	sw	s7,28(sp)
     d34:	01095913          	srl	s2,s2,0x10
     d38:	2b0030ef          	jal	3fe8 <__hidden___udivsi3>
     d3c:	00090593          	mv	a1,s2
     d40:	27c030ef          	jal	3fbc <__mulsi3>
     d44:	00050b93          	mv	s7,a0
     d48:	000b0593          	mv	a1,s6
     d4c:	000c0513          	mv	a0,s8
     d50:	2e0030ef          	jal	4030 <__umodsi3>
     d54:	01051513          	sll	a0,a0,0x10
     d58:	010ad793          	srl	a5,s5,0x10
     d5c:	00a7e7b3          	or	a5,a5,a0
     d60:	0177fa63          	bgeu	a5,s7,d74 <__moddi3+0x38c>
     d64:	00f987b3          	add	a5,s3,a5
     d68:	0137e663          	bltu	a5,s3,d74 <__moddi3+0x38c>
     d6c:	0177f463          	bgeu	a5,s7,d74 <__moddi3+0x38c>
     d70:	013787b3          	add	a5,a5,s3
     d74:	41778bb3          	sub	s7,a5,s7
     d78:	000b0593          	mv	a1,s6
     d7c:	000b8513          	mv	a0,s7
     d80:	268030ef          	jal	3fe8 <__hidden___udivsi3>
     d84:	00090593          	mv	a1,s2
     d88:	234030ef          	jal	3fbc <__mulsi3>
     d8c:	00050793          	mv	a5,a0
     d90:	000b0593          	mv	a1,s6
     d94:	000b8513          	mv	a0,s7
     d98:	010a9a93          	sll	s5,s5,0x10
     d9c:	00078b93          	mv	s7,a5
     da0:	290030ef          	jal	4030 <__umodsi3>
     da4:	01051513          	sll	a0,a0,0x10
     da8:	010ada93          	srl	s5,s5,0x10
     dac:	00aaeab3          	or	s5,s5,a0
     db0:	017afa63          	bgeu	s5,s7,dc4 <__moddi3+0x3dc>
     db4:	01598ab3          	add	s5,s3,s5
     db8:	013ae663          	bltu	s5,s3,dc4 <__moddi3+0x3dc>
     dbc:	017af463          	bgeu	s5,s7,dc4 <__moddi3+0x3dc>
     dc0:	013a8ab3          	add	s5,s5,s3
     dc4:	417a8ab3          	sub	s5,s5,s7
     dc8:	01812c03          	lw	s8,24(sp)
     dcc:	01c12b83          	lw	s7,28(sp)
     dd0:	e75ff06f          	j	c44 <__moddi3+0x25c>
     dd4:	1006b513          	sltiu	a0,a3,256
     dd8:	00153513          	seqz	a0,a0
     ddc:	00351513          	sll	a0,a0,0x3
     de0:	dbdff06f          	j	b9c <__moddi3+0x1b4>
     de4:	03512223          	sw	s5,36(sp)
     de8:	013696b3          	sll	a3,a3,s3
     dec:	01465ab3          	srl	s5,a2,s4
     df0:	00daeab3          	or	s5,s5,a3
     df4:	01712e23          	sw	s7,28(sp)
     df8:	01b12623          	sw	s11,12(sp)
     dfc:	010adb93          	srl	s7,s5,0x10
     e00:	0145ddb3          	srl	s11,a1,s4
     e04:	01359733          	sll	a4,a1,s3
     e08:	0147d6b3          	srl	a3,a5,s4
     e0c:	01a12823          	sw	s10,16(sp)
     e10:	000b8593          	mv	a1,s7
     e14:	000d8513          	mv	a0,s11
     e18:	010a9d13          	sll	s10,s5,0x10
     e1c:	01361933          	sll	s2,a2,s3
     e20:	02912a23          	sw	s1,52(sp)
     e24:	03612023          	sw	s6,32(sp)
     e28:	013794b3          	sll	s1,a5,s3
     e2c:	00e6eb33          	or	s6,a3,a4
     e30:	01812c23          	sw	s8,24(sp)
     e34:	01912a23          	sw	s9,20(sp)
     e38:	010d5d13          	srl	s10,s10,0x10
     e3c:	1ac030ef          	jal	3fe8 <__hidden___udivsi3>
     e40:	00050593          	mv	a1,a0
     e44:	00050c13          	mv	s8,a0
     e48:	000d0513          	mv	a0,s10
     e4c:	170030ef          	jal	3fbc <__mulsi3>
     e50:	00050c93          	mv	s9,a0
     e54:	000b8593          	mv	a1,s7
     e58:	000d8513          	mv	a0,s11
     e5c:	1d4030ef          	jal	4030 <__umodsi3>
     e60:	01051513          	sll	a0,a0,0x10
     e64:	010b5793          	srl	a5,s6,0x10
     e68:	00a7e7b3          	or	a5,a5,a0
     e6c:	0197fe63          	bgeu	a5,s9,e88 <__moddi3+0x4a0>
     e70:	00fa87b3          	add	a5,s5,a5
     e74:	fffc0713          	add	a4,s8,-1
     e78:	1957e463          	bltu	a5,s5,1000 <__moddi3+0x618>
     e7c:	1997f263          	bgeu	a5,s9,1000 <__moddi3+0x618>
     e80:	ffec0c13          	add	s8,s8,-2
     e84:	015787b3          	add	a5,a5,s5
     e88:	41978cb3          	sub	s9,a5,s9
     e8c:	000b8593          	mv	a1,s7
     e90:	000c8513          	mv	a0,s9
     e94:	154030ef          	jal	3fe8 <__hidden___udivsi3>
     e98:	00050593          	mv	a1,a0
     e9c:	00050d93          	mv	s11,a0
     ea0:	000d0513          	mv	a0,s10
     ea4:	118030ef          	jal	3fbc <__mulsi3>
     ea8:	00050793          	mv	a5,a0
     eac:	000b8593          	mv	a1,s7
     eb0:	000c8513          	mv	a0,s9
     eb4:	00078b93          	mv	s7,a5
     eb8:	178030ef          	jal	4030 <__umodsi3>
     ebc:	010b1593          	sll	a1,s6,0x10
     ec0:	01051513          	sll	a0,a0,0x10
     ec4:	0105d593          	srl	a1,a1,0x10
     ec8:	00a5e5b3          	or	a1,a1,a0
     ecc:	0175fe63          	bgeu	a1,s7,ee8 <__moddi3+0x500>
     ed0:	00ba85b3          	add	a1,s5,a1
     ed4:	fffd8793          	add	a5,s11,-1
     ed8:	1355e063          	bltu	a1,s5,ff8 <__moddi3+0x610>
     edc:	1175fe63          	bgeu	a1,s7,ff8 <__moddi3+0x610>
     ee0:	ffed8d93          	add	s11,s11,-2
     ee4:	015585b3          	add	a1,a1,s5
     ee8:	010c1713          	sll	a4,s8,0x10
     eec:	00010e37          	lui	t3,0x10
     ef0:	01b76733          	or	a4,a4,s11
     ef4:	fffe0313          	add	t1,t3,-1 # ffff <DMEM_TOTAL_SIZE+0x7fff>
     ef8:	006777b3          	and	a5,a4,t1
     efc:	00697333          	and	t1,s2,t1
     f00:	41758833          	sub	a6,a1,s7
     f04:	01075713          	srl	a4,a4,0x10
     f08:	01095e93          	srl	t4,s2,0x10
     f0c:	00078513          	mv	a0,a5
     f10:	00030593          	mv	a1,t1
     f14:	0a8030ef          	jal	3fbc <__mulsi3>
     f18:	00050893          	mv	a7,a0
     f1c:	000e8593          	mv	a1,t4
     f20:	00078513          	mv	a0,a5
     f24:	098030ef          	jal	3fbc <__mulsi3>
     f28:	00050793          	mv	a5,a0
     f2c:	00030593          	mv	a1,t1
     f30:	00070513          	mv	a0,a4
     f34:	088030ef          	jal	3fbc <__mulsi3>
     f38:	00050313          	mv	t1,a0
     f3c:	000e8593          	mv	a1,t4
     f40:	00070513          	mv	a0,a4
     f44:	078030ef          	jal	3fbc <__mulsi3>
     f48:	006787b3          	add	a5,a5,t1
     f4c:	0108d713          	srl	a4,a7,0x10
     f50:	00e787b3          	add	a5,a5,a4
     f54:	0067f463          	bgeu	a5,t1,f5c <__moddi3+0x574>
     f58:	01c50533          	add	a0,a0,t3
     f5c:	000106b7          	lui	a3,0x10
     f60:	fff68693          	add	a3,a3,-1 # ffff <DMEM_TOTAL_SIZE+0x7fff>
     f64:	0107d713          	srl	a4,a5,0x10
     f68:	00d7f7b3          	and	a5,a5,a3
     f6c:	01079793          	sll	a5,a5,0x10
     f70:	00d8f8b3          	and	a7,a7,a3
     f74:	00a70733          	add	a4,a4,a0
     f78:	011787b3          	add	a5,a5,a7
     f7c:	04e86863          	bltu	a6,a4,fcc <__moddi3+0x5e4>
     f80:	04e80463          	beq	a6,a4,fc8 <__moddi3+0x5e0>
     f84:	40f487b3          	sub	a5,s1,a5
     f88:	00f4b4b3          	sltu	s1,s1,a5
     f8c:	40e805b3          	sub	a1,a6,a4
     f90:	409585b3          	sub	a1,a1,s1
     f94:	01459a33          	sll	s4,a1,s4
     f98:	0137d7b3          	srl	a5,a5,s3
     f9c:	03412483          	lw	s1,52(sp)
     fa0:	02412a83          	lw	s5,36(sp)
     fa4:	02012b03          	lw	s6,32(sp)
     fa8:	01c12b83          	lw	s7,28(sp)
     fac:	01812c03          	lw	s8,24(sp)
     fb0:	01412c83          	lw	s9,20(sp)
     fb4:	01012d03          	lw	s10,16(sp)
     fb8:	00c12d83          	lw	s11,12(sp)
     fbc:	00fa6533          	or	a0,s4,a5
     fc0:	0135d5b3          	srl	a1,a1,s3
     fc4:	b85ff06f          	j	b48 <__moddi3+0x160>
     fc8:	faf4fee3          	bgeu	s1,a5,f84 <__moddi3+0x59c>
     fcc:	41278633          	sub	a2,a5,s2
     fd0:	00c7b7b3          	sltu	a5,a5,a2
     fd4:	01578ab3          	add	s5,a5,s5
     fd8:	41570733          	sub	a4,a4,s5
     fdc:	00060793          	mv	a5,a2
     fe0:	fa5ff06f          	j	f84 <__moddi3+0x59c>
     fe4:	01000737          	lui	a4,0x1000
     fe8:	02e67463          	bgeu	a2,a4,1010 <__moddi3+0x628>
     fec:	01065513          	srl	a0,a2,0x10
     ff0:	01000693          	li	a3,16
     ff4:	c21ff06f          	j	c14 <__moddi3+0x22c>
     ff8:	00078d93          	mv	s11,a5
     ffc:	eedff06f          	j	ee8 <__moddi3+0x500>
    1000:	00070c13          	mv	s8,a4
    1004:	e85ff06f          	j	e88 <__moddi3+0x4a0>
    1008:	013787b3          	add	a5,a5,s3
    100c:	ad5ff06f          	j	ae0 <__moddi3+0xf8>
    1010:	01865513          	srl	a0,a2,0x18
    1014:	01800693          	li	a3,24
    1018:	bfdff06f          	j	c14 <__moddi3+0x22c>

0000101c <__adddf3>:
    101c:	001007b7          	lui	a5,0x100
    1020:	fe010113          	add	sp,sp,-32
    1024:	fff78e93          	add	t4,a5,-1 # fffff <IMEM_SIZE+0xebfff>
    1028:	00bef833          	and	a6,t4,a1
    102c:	00def7b3          	and	a5,t4,a3
    1030:	0146d313          	srl	t1,a3,0x14
    1034:	01212823          	sw	s2,16(sp)
    1038:	0145d913          	srl	s2,a1,0x14
    103c:	00379793          	sll	a5,a5,0x3
    1040:	00812c23          	sw	s0,24(sp)
    1044:	00381813          	sll	a6,a6,0x3
    1048:	01f5d413          	srl	s0,a1,0x1f
    104c:	01d55713          	srl	a4,a0,0x1d
    1050:	01d65893          	srl	a7,a2,0x1d
    1054:	7ff97913          	and	s2,s2,2047
    1058:	7ff37313          	and	t1,t1,2047
    105c:	00112e23          	sw	ra,28(sp)
    1060:	00912a23          	sw	s1,20(sp)
    1064:	01312623          	sw	s3,12(sp)
    1068:	01f6d693          	srl	a3,a3,0x1f
    106c:	00f8e8b3          	or	a7,a7,a5
    1070:	01076733          	or	a4,a4,a6
    1074:	00351593          	sll	a1,a0,0x3
    1078:	00361f13          	sll	t5,a2,0x3
    107c:	406907b3          	sub	a5,s2,t1
    1080:	1ed40463          	beq	s0,a3,1268 <__adddf3+0x24c>
    1084:	16f05263          	blez	a5,11e8 <__adddf3+0x1cc>
    1088:	28030663          	beqz	t1,1314 <__adddf3+0x2f8>
    108c:	7ff00693          	li	a3,2047
    1090:	42d90663          	beq	s2,a3,14bc <__adddf3+0x4a0>
    1094:	03800693          	li	a3,56
    1098:	00100613          	li	a2,1
    109c:	02f6ce63          	blt	a3,a5,10d8 <__adddf3+0xbc>
    10a0:	008006b7          	lui	a3,0x800
    10a4:	00d8e8b3          	or	a7,a7,a3
    10a8:	01f00693          	li	a3,31
    10ac:	52f6ce63          	blt	a3,a5,15e8 <__adddf3+0x5cc>
    10b0:	02000693          	li	a3,32
    10b4:	40f686b3          	sub	a3,a3,a5
    10b8:	00d89633          	sll	a2,a7,a3
    10bc:	00ff5533          	srl	a0,t5,a5
    10c0:	00df16b3          	sll	a3,t5,a3
    10c4:	00a66633          	or	a2,a2,a0
    10c8:	00d036b3          	snez	a3,a3
    10cc:	00f8d8b3          	srl	a7,a7,a5
    10d0:	00d66633          	or	a2,a2,a3
    10d4:	41170733          	sub	a4,a4,a7
    10d8:	40c58633          	sub	a2,a1,a2
    10dc:	00c5b5b3          	sltu	a1,a1,a2
    10e0:	00060493          	mv	s1,a2
    10e4:	40b709b3          	sub	s3,a4,a1
    10e8:	00899793          	sll	a5,s3,0x8
    10ec:	3207da63          	bgez	a5,1420 <__adddf3+0x404>
    10f0:	008007b7          	lui	a5,0x800
    10f4:	fff78793          	add	a5,a5,-1 # 7fffff <MTSSV_BASE+0x6f8007>
    10f8:	00f9f9b3          	and	s3,s3,a5
    10fc:	2c098863          	beqz	s3,13cc <__adddf3+0x3b0>
    1100:	00098513          	mv	a0,s3
    1104:	791020ef          	jal	4094 <__clzsi2>
    1108:	ff850793          	add	a5,a0,-8
    110c:	02000693          	li	a3,32
    1110:	40f68733          	sub	a4,a3,a5
    1114:	00e4d733          	srl	a4,s1,a4
    1118:	00f999b3          	sll	s3,s3,a5
    111c:	01376733          	or	a4,a4,s3
    1120:	00f494b3          	sll	s1,s1,a5
    1124:	4b27c863          	blt	a5,s2,15d4 <__adddf3+0x5b8>
    1128:	412787b3          	sub	a5,a5,s2
    112c:	00178793          	add	a5,a5,1
    1130:	40f686b3          	sub	a3,a3,a5
    1134:	00d49633          	sll	a2,s1,a3
    1138:	00f4d9b3          	srl	s3,s1,a5
    113c:	00c03633          	snez	a2,a2
    1140:	01366633          	or	a2,a2,s3
    1144:	00d716b3          	sll	a3,a4,a3
    1148:	00c6e4b3          	or	s1,a3,a2
    114c:	00f759b3          	srl	s3,a4,a5
    1150:	00000913          	li	s2,0
    1154:	0074f793          	and	a5,s1,7
    1158:	02078063          	beqz	a5,1178 <__adddf3+0x15c>
    115c:	00f4f793          	and	a5,s1,15
    1160:	00400713          	li	a4,4
    1164:	00e78a63          	beq	a5,a4,1178 <__adddf3+0x15c>
    1168:	00448793          	add	a5,s1,4
    116c:	0097b633          	sltu	a2,a5,s1
    1170:	00c989b3          	add	s3,s3,a2
    1174:	00078493          	mv	s1,a5
    1178:	00899793          	sll	a5,s3,0x8
    117c:	6e07da63          	bgez	a5,1870 <__adddf3+0x854>
    1180:	00190793          	add	a5,s2,1
    1184:	7ff00713          	li	a4,2047
    1188:	00040e13          	mv	t3,s0
    118c:	2ae78663          	beq	a5,a4,1438 <__adddf3+0x41c>
    1190:	ff800737          	lui	a4,0xff800
    1194:	fff70713          	add	a4,a4,-1 # ff7fffff <MTSSV_BASE+0xff6f8007>
    1198:	00e9f733          	and	a4,s3,a4
    119c:	7ff7f793          	and	a5,a5,2047
    11a0:	01d71813          	sll	a6,a4,0x1d
    11a4:	0034d613          	srl	a2,s1,0x3
    11a8:	00971713          	sll	a4,a4,0x9
    11ac:	00c86833          	or	a6,a6,a2
    11b0:	00c75713          	srl	a4,a4,0xc
    11b4:	01c12083          	lw	ra,28(sp)
    11b8:	01812403          	lw	s0,24(sp)
    11bc:	01479793          	sll	a5,a5,0x14
    11c0:	00e7e7b3          	or	a5,a5,a4
    11c4:	01fe1713          	sll	a4,t3,0x1f
    11c8:	00e7e7b3          	or	a5,a5,a4
    11cc:	01412483          	lw	s1,20(sp)
    11d0:	01012903          	lw	s2,16(sp)
    11d4:	00c12983          	lw	s3,12(sp)
    11d8:	00080513          	mv	a0,a6
    11dc:	00078593          	mv	a1,a5
    11e0:	02010113          	add	sp,sp,32
    11e4:	00008067          	ret
    11e8:	14078c63          	beqz	a5,1340 <__adddf3+0x324>
    11ec:	412307b3          	sub	a5,t1,s2
    11f0:	3c091263          	bnez	s2,15b4 <__adddf3+0x598>
    11f4:	00b76533          	or	a0,a4,a1
    11f8:	4c050463          	beqz	a0,16c0 <__adddf3+0x6a4>
    11fc:	fff78513          	add	a0,a5,-1
    1200:	60050263          	beqz	a0,1804 <__adddf3+0x7e8>
    1204:	7ff00813          	li	a6,2047
    1208:	57078663          	beq	a5,a6,1774 <__adddf3+0x758>
    120c:	03800793          	li	a5,56
    1210:	00100613          	li	a2,1
    1214:	02a7cc63          	blt	a5,a0,124c <__adddf3+0x230>
    1218:	00050793          	mv	a5,a0
    121c:	01f00613          	li	a2,31
    1220:	56f64c63          	blt	a2,a5,1798 <__adddf3+0x77c>
    1224:	02000513          	li	a0,32
    1228:	40f50533          	sub	a0,a0,a5
    122c:	00a71633          	sll	a2,a4,a0
    1230:	00f5d833          	srl	a6,a1,a5
    1234:	00a59533          	sll	a0,a1,a0
    1238:	01066633          	or	a2,a2,a6
    123c:	00a03533          	snez	a0,a0
    1240:	00f75733          	srl	a4,a4,a5
    1244:	00a66633          	or	a2,a2,a0
    1248:	40e888b3          	sub	a7,a7,a4
    124c:	40cf0633          	sub	a2,t5,a2
    1250:	00cf3733          	sltu	a4,t5,a2
    1254:	00060493          	mv	s1,a2
    1258:	40e889b3          	sub	s3,a7,a4
    125c:	00030913          	mv	s2,t1
    1260:	00068413          	mv	s0,a3
    1264:	e85ff06f          	j	10e8 <__adddf3+0xcc>
    1268:	1ef05063          	blez	a5,1448 <__adddf3+0x42c>
    126c:	14031063          	bnez	t1,13ac <__adddf3+0x390>
    1270:	01e8e6b3          	or	a3,a7,t5
    1274:	26068c63          	beqz	a3,14ec <__adddf3+0x4d0>
    1278:	fff78693          	add	a3,a5,-1
    127c:	48068063          	beqz	a3,16fc <__adddf3+0x6e0>
    1280:	7ff00613          	li	a2,2047
    1284:	22c78c63          	beq	a5,a2,14bc <__adddf3+0x4a0>
    1288:	03800793          	li	a5,56
    128c:	00100993          	li	s3,1
    1290:	02d7cc63          	blt	a5,a3,12c8 <__adddf3+0x2ac>
    1294:	00068793          	mv	a5,a3
    1298:	01f00693          	li	a3,31
    129c:	4af6c063          	blt	a3,a5,173c <__adddf3+0x720>
    12a0:	02000693          	li	a3,32
    12a4:	40f686b3          	sub	a3,a3,a5
    12a8:	00d899b3          	sll	s3,a7,a3
    12ac:	00ff5633          	srl	a2,t5,a5
    12b0:	00df16b3          	sll	a3,t5,a3
    12b4:	00c9e9b3          	or	s3,s3,a2
    12b8:	00d036b3          	snez	a3,a3
    12bc:	00f8d8b3          	srl	a7,a7,a5
    12c0:	00d9e9b3          	or	s3,s3,a3
    12c4:	01170733          	add	a4,a4,a7
    12c8:	00b985b3          	add	a1,s3,a1
    12cc:	0135b9b3          	sltu	s3,a1,s3
    12d0:	00058493          	mv	s1,a1
    12d4:	00e989b3          	add	s3,s3,a4
    12d8:	00899793          	sll	a5,s3,0x8
    12dc:	1407d263          	bgez	a5,1420 <__adddf3+0x404>
    12e0:	00190913          	add	s2,s2,1
    12e4:	7ff00793          	li	a5,2047
    12e8:	36f90c63          	beq	s2,a5,1660 <__adddf3+0x644>
    12ec:	ff8007b7          	lui	a5,0xff800
    12f0:	fff78793          	add	a5,a5,-1 # ff7fffff <MTSSV_BASE+0xff6f8007>
    12f4:	0014f613          	and	a2,s1,1
    12f8:	00f9f7b3          	and	a5,s3,a5
    12fc:	0014d713          	srl	a4,s1,0x1
    1300:	00c76733          	or	a4,a4,a2
    1304:	01f79613          	sll	a2,a5,0x1f
    1308:	00e664b3          	or	s1,a2,a4
    130c:	0017d993          	srl	s3,a5,0x1
    1310:	e45ff06f          	j	1154 <__adddf3+0x138>
    1314:	01e8e6b3          	or	a3,a7,t5
    1318:	1c068a63          	beqz	a3,14ec <__adddf3+0x4d0>
    131c:	fff78693          	add	a3,a5,-1
    1320:	40068063          	beqz	a3,1720 <__adddf3+0x704>
    1324:	7ff00613          	li	a2,2047
    1328:	18c78a63          	beq	a5,a2,14bc <__adddf3+0x4a0>
    132c:	03800793          	li	a5,56
    1330:	00100613          	li	a2,1
    1334:	dad7c2e3          	blt	a5,a3,10d8 <__adddf3+0xbc>
    1338:	00068793          	mv	a5,a3
    133c:	d6dff06f          	j	10a8 <__adddf3+0x8c>
    1340:	00190813          	add	a6,s2,1
    1344:	7fe87813          	and	a6,a6,2046
    1348:	22081c63          	bnez	a6,1580 <__adddf3+0x564>
    134c:	00b76333          	or	t1,a4,a1
    1350:	01e8e833          	or	a6,a7,t5
    1354:	38091063          	bnez	s2,16d4 <__adddf3+0x6b8>
    1358:	46030e63          	beqz	t1,17d4 <__adddf3+0x7b8>
    135c:	40080663          	beqz	a6,1768 <__adddf3+0x74c>
    1360:	41e589b3          	sub	s3,a1,t5
    1364:	0135b533          	sltu	a0,a1,s3
    1368:	41170633          	sub	a2,a4,a7
    136c:	40a60633          	sub	a2,a2,a0
    1370:	00861513          	sll	a0,a2,0x8
    1374:	50055e63          	bgez	a0,1890 <__adddf3+0x874>
    1378:	40bf05b3          	sub	a1,t5,a1
    137c:	40e88733          	sub	a4,a7,a4
    1380:	00bf3f33          	sltu	t5,t5,a1
    1384:	41e70733          	sub	a4,a4,t5
    1388:	00871613          	sll	a2,a4,0x8
    138c:	00058493          	mv	s1,a1
    1390:	52065e63          	bgez	a2,18cc <__adddf3+0x8b0>
    1394:	ff8007b7          	lui	a5,0xff800
    1398:	fff78793          	add	a5,a5,-1 # ff7fffff <MTSSV_BASE+0xff6f8007>
    139c:	00f77733          	and	a4,a4,a5
    13a0:	00068e13          	mv	t3,a3
    13a4:	00100793          	li	a5,1
    13a8:	df9ff06f          	j	11a0 <__adddf3+0x184>
    13ac:	7ff00693          	li	a3,2047
    13b0:	10d90663          	beq	s2,a3,14bc <__adddf3+0x4a0>
    13b4:	03800693          	li	a3,56
    13b8:	00100993          	li	s3,1
    13bc:	f0f6c6e3          	blt	a3,a5,12c8 <__adddf3+0x2ac>
    13c0:	008006b7          	lui	a3,0x800
    13c4:	00d8e8b3          	or	a7,a7,a3
    13c8:	ed1ff06f          	j	1298 <__adddf3+0x27c>
    13cc:	00048513          	mv	a0,s1
    13d0:	4c5020ef          	jal	4094 <__clzsi2>
    13d4:	01850793          	add	a5,a0,24
    13d8:	01f00693          	li	a3,31
    13dc:	d2f6d8e3          	bge	a3,a5,110c <__adddf3+0xf0>
    13e0:	ff850713          	add	a4,a0,-8
    13e4:	00e49733          	sll	a4,s1,a4
    13e8:	2327c663          	blt	a5,s2,1614 <__adddf3+0x5f8>
    13ec:	41278933          	sub	s2,a5,s2
    13f0:	00190793          	add	a5,s2,1
    13f4:	48f6d663          	bge	a3,a5,1880 <__adddf3+0x864>
    13f8:	fe190913          	add	s2,s2,-31
    13fc:	02000693          	li	a3,32
    1400:	012754b3          	srl	s1,a4,s2
    1404:	00d78c63          	beq	a5,a3,141c <__adddf3+0x400>
    1408:	04000693          	li	a3,64
    140c:	40f687b3          	sub	a5,a3,a5
    1410:	00f71733          	sll	a4,a4,a5
    1414:	00e03733          	snez	a4,a4
    1418:	00e4e4b3          	or	s1,s1,a4
    141c:	00000913          	li	s2,0
    1420:	0074f793          	and	a5,s1,7
    1424:	d2079ce3          	bnez	a5,115c <__adddf3+0x140>
    1428:	00090793          	mv	a5,s2
    142c:	0034d613          	srl	a2,s1,0x3
    1430:	00098713          	mv	a4,s3
    1434:	0c00006f          	j	14f4 <__adddf3+0x4d8>
    1438:	7ff00793          	li	a5,2047
    143c:	00000713          	li	a4,0
    1440:	00000813          	li	a6,0
    1444:	d71ff06f          	j	11b4 <__adddf3+0x198>
    1448:	0c078a63          	beqz	a5,151c <__adddf3+0x500>
    144c:	412307b3          	sub	a5,t1,s2
    1450:	1e090263          	beqz	s2,1634 <__adddf3+0x618>
    1454:	7ff00693          	li	a3,2047
    1458:	32d30863          	beq	t1,a3,1788 <__adddf3+0x76c>
    145c:	03800693          	li	a3,56
    1460:	00100993          	li	s3,1
    1464:	02f6ce63          	blt	a3,a5,14a0 <__adddf3+0x484>
    1468:	008006b7          	lui	a3,0x800
    146c:	00d76733          	or	a4,a4,a3
    1470:	01f00693          	li	a3,31
    1474:	3cf6c863          	blt	a3,a5,1844 <__adddf3+0x828>
    1478:	02000693          	li	a3,32
    147c:	40f686b3          	sub	a3,a3,a5
    1480:	00d719b3          	sll	s3,a4,a3
    1484:	00f5d633          	srl	a2,a1,a5
    1488:	00d596b3          	sll	a3,a1,a3
    148c:	00c9e9b3          	or	s3,s3,a2
    1490:	00d036b3          	snez	a3,a3
    1494:	00f75733          	srl	a4,a4,a5
    1498:	00d9e9b3          	or	s3,s3,a3
    149c:	00e888b3          	add	a7,a7,a4
    14a0:	01e98733          	add	a4,s3,t5
    14a4:	013739b3          	sltu	s3,a4,s3
    14a8:	00070493          	mv	s1,a4
    14ac:	011989b3          	add	s3,s3,a7
    14b0:	00030913          	mv	s2,t1
    14b4:	e25ff06f          	j	12d8 <__adddf3+0x2bc>
    14b8:	02081063          	bnez	a6,14d8 <__adddf3+0x4bc>
    14bc:	00351613          	sll	a2,a0,0x3
    14c0:	00365613          	srl	a2,a2,0x3
    14c4:	01d71813          	sll	a6,a4,0x1d
    14c8:	00c86833          	or	a6,a6,a2
    14cc:	00375713          	srl	a4,a4,0x3
    14d0:	01076733          	or	a4,a4,a6
    14d4:	18070663          	beqz	a4,1660 <__adddf3+0x644>
    14d8:	00000e13          	li	t3,0
    14dc:	7ff00793          	li	a5,2047
    14e0:	00080737          	lui	a4,0x80
    14e4:	00000813          	li	a6,0
    14e8:	ccdff06f          	j	11b4 <__adddf3+0x198>
    14ec:	00351613          	sll	a2,a0,0x3
    14f0:	00365613          	srl	a2,a2,0x3
    14f4:	01d71813          	sll	a6,a4,0x1d
    14f8:	7ff00693          	li	a3,2047
    14fc:	00c86833          	or	a6,a6,a2
    1500:	00375713          	srl	a4,a4,0x3
    1504:	fcd786e3          	beq	a5,a3,14d0 <__adddf3+0x4b4>
    1508:	00c71713          	sll	a4,a4,0xc
    150c:	00c75713          	srl	a4,a4,0xc
    1510:	7ff7f793          	and	a5,a5,2047
    1514:	00040e13          	mv	t3,s0
    1518:	c9dff06f          	j	11b4 <__adddf3+0x198>
    151c:	00190693          	add	a3,s2,1
    1520:	7fe6f813          	and	a6,a3,2046
    1524:	14081863          	bnez	a6,1674 <__adddf3+0x658>
    1528:	00b766b3          	or	a3,a4,a1
    152c:	28091c63          	bnez	s2,17c4 <__adddf3+0x7a8>
    1530:	30068263          	beqz	a3,1834 <__adddf3+0x818>
    1534:	01e8e6b3          	or	a3,a7,t5
    1538:	22068863          	beqz	a3,1768 <__adddf3+0x74c>
    153c:	01e587b3          	add	a5,a1,t5
    1540:	00b7b5b3          	sltu	a1,a5,a1
    1544:	01170733          	add	a4,a4,a7
    1548:	00b70733          	add	a4,a4,a1
    154c:	0037d813          	srl	a6,a5,0x3
    1550:	00871793          	sll	a5,a4,0x8
    1554:	00040e13          	mv	t3,s0
    1558:	3407de63          	bgez	a5,18b4 <__adddf3+0x898>
    155c:	ff8007b7          	lui	a5,0xff800
    1560:	fff78793          	add	a5,a5,-1 # ff7fffff <MTSSV_BASE+0xff6f8007>
    1564:	00f77733          	and	a4,a4,a5
    1568:	01d71793          	sll	a5,a4,0x1d
    156c:	00375713          	srl	a4,a4,0x3
    1570:	0107e833          	or	a6,a5,a6
    1574:	01d77733          	and	a4,a4,t4
    1578:	00100793          	li	a5,1
    157c:	c39ff06f          	j	11b4 <__adddf3+0x198>
    1580:	41e58833          	sub	a6,a1,t5
    1584:	0105b7b3          	sltu	a5,a1,a6
    1588:	411709b3          	sub	s3,a4,a7
    158c:	40f989b3          	sub	s3,s3,a5
    1590:	00899793          	sll	a5,s3,0x8
    1594:	00080493          	mv	s1,a6
    1598:	1007c663          	bltz	a5,16a4 <__adddf3+0x688>
    159c:	01386833          	or	a6,a6,s3
    15a0:	b4081ee3          	bnez	a6,10fc <__adddf3+0xe0>
    15a4:	00000e13          	li	t3,0
    15a8:	00000793          	li	a5,0
    15ac:	00000713          	li	a4,0
    15b0:	c05ff06f          	j	11b4 <__adddf3+0x198>
    15b4:	7ff00513          	li	a0,2047
    15b8:	1aa30e63          	beq	t1,a0,1774 <__adddf3+0x758>
    15bc:	03800513          	li	a0,56
    15c0:	00100613          	li	a2,1
    15c4:	c8f544e3          	blt	a0,a5,124c <__adddf3+0x230>
    15c8:	00800637          	lui	a2,0x800
    15cc:	00c76733          	or	a4,a4,a2
    15d0:	c4dff06f          	j	121c <__adddf3+0x200>
    15d4:	ff8009b7          	lui	s3,0xff800
    15d8:	fff98993          	add	s3,s3,-1 # ff7fffff <MTSSV_BASE+0xff6f8007>
    15dc:	40f90933          	sub	s2,s2,a5
    15e0:	013779b3          	and	s3,a4,s3
    15e4:	b71ff06f          	j	1154 <__adddf3+0x138>
    15e8:	fe078693          	add	a3,a5,-32
    15ec:	02000613          	li	a2,32
    15f0:	00d8d6b3          	srl	a3,a7,a3
    15f4:	00c78a63          	beq	a5,a2,1608 <__adddf3+0x5ec>
    15f8:	04000613          	li	a2,64
    15fc:	40f607b3          	sub	a5,a2,a5
    1600:	00f897b3          	sll	a5,a7,a5
    1604:	00ff6f33          	or	t5,t5,a5
    1608:	01e03633          	snez	a2,t5
    160c:	00d66633          	or	a2,a2,a3
    1610:	ac9ff06f          	j	10d8 <__adddf3+0xbc>
    1614:	ff8006b7          	lui	a3,0xff800
    1618:	fff68693          	add	a3,a3,-1 # ff7fffff <MTSSV_BASE+0xff6f8007>
    161c:	40f907b3          	sub	a5,s2,a5
    1620:	00d77733          	and	a4,a4,a3
    1624:	01d71813          	sll	a6,a4,0x1d
    1628:	01386833          	or	a6,a6,s3
    162c:	00375713          	srl	a4,a4,0x3
    1630:	ed9ff06f          	j	1508 <__adddf3+0x4ec>
    1634:	00b766b3          	or	a3,a4,a1
    1638:	1e068663          	beqz	a3,1824 <__adddf3+0x808>
    163c:	fff78693          	add	a3,a5,-1
    1640:	0a068e63          	beqz	a3,16fc <__adddf3+0x6e0>
    1644:	7ff00513          	li	a0,2047
    1648:	14a78063          	beq	a5,a0,1788 <__adddf3+0x76c>
    164c:	03800793          	li	a5,56
    1650:	00100993          	li	s3,1
    1654:	e4d7c6e3          	blt	a5,a3,14a0 <__adddf3+0x484>
    1658:	00068793          	mv	a5,a3
    165c:	e15ff06f          	j	1470 <__adddf3+0x454>
    1660:	00040e13          	mv	t3,s0
    1664:	7ff00793          	li	a5,2047
    1668:	00000713          	li	a4,0
    166c:	00000813          	li	a6,0
    1670:	b45ff06f          	j	11b4 <__adddf3+0x198>
    1674:	7ff00793          	li	a5,2047
    1678:	fef684e3          	beq	a3,a5,1660 <__adddf3+0x644>
    167c:	01e58f33          	add	t5,a1,t5
    1680:	00bf35b3          	sltu	a1,t5,a1
    1684:	011707b3          	add	a5,a4,a7
    1688:	00b787b3          	add	a5,a5,a1
    168c:	01f79613          	sll	a2,a5,0x1f
    1690:	001f5f13          	srl	t5,t5,0x1
    1694:	01e664b3          	or	s1,a2,t5
    1698:	0017d993          	srl	s3,a5,0x1
    169c:	00068913          	mv	s2,a3
    16a0:	ab5ff06f          	j	1154 <__adddf3+0x138>
    16a4:	40bf0633          	sub	a2,t5,a1
    16a8:	40e887b3          	sub	a5,a7,a4
    16ac:	00cf3733          	sltu	a4,t5,a2
    16b0:	00060493          	mv	s1,a2
    16b4:	40e789b3          	sub	s3,a5,a4
    16b8:	00068413          	mv	s0,a3
    16bc:	a41ff06f          	j	10fc <__adddf3+0xe0>
    16c0:	00361613          	sll	a2,a2,0x3
    16c4:	00365613          	srl	a2,a2,0x3
    16c8:	00068413          	mv	s0,a3
    16cc:	00088713          	mv	a4,a7
    16d0:	e25ff06f          	j	14f4 <__adddf3+0x4d8>
    16d4:	de0312e3          	bnez	t1,14b8 <__adddf3+0x49c>
    16d8:	1c080663          	beqz	a6,18a4 <__adddf3+0x888>
    16dc:	0038d713          	srl	a4,a7,0x3
    16e0:	00361613          	sll	a2,a2,0x3
    16e4:	01d89893          	sll	a7,a7,0x1d
    16e8:	01176733          	or	a4,a4,a7
    16ec:	00365613          	srl	a2,a2,0x3
    16f0:	00c76733          	or	a4,a4,a2
    16f4:	00068413          	mv	s0,a3
    16f8:	dddff06f          	j	14d4 <__adddf3+0x4b8>
    16fc:	01e58f33          	add	t5,a1,t5
    1700:	011708b3          	add	a7,a4,a7
    1704:	00bf35b3          	sltu	a1,t5,a1
    1708:	00b889b3          	add	s3,a7,a1
    170c:	00899793          	sll	a5,s3,0x8
    1710:	000f0493          	mv	s1,t5
    1714:	0e07d463          	bgez	a5,17fc <__adddf3+0x7e0>
    1718:	00200913          	li	s2,2
    171c:	bd1ff06f          	j	12ec <__adddf3+0x2d0>
    1720:	41e58f33          	sub	t5,a1,t5
    1724:	411708b3          	sub	a7,a4,a7
    1728:	01e5b5b3          	sltu	a1,a1,t5
    172c:	000f0493          	mv	s1,t5
    1730:	40b889b3          	sub	s3,a7,a1
    1734:	00100913          	li	s2,1
    1738:	9b1ff06f          	j	10e8 <__adddf3+0xcc>
    173c:	fe078693          	add	a3,a5,-32
    1740:	02000613          	li	a2,32
    1744:	00d8d6b3          	srl	a3,a7,a3
    1748:	00c78a63          	beq	a5,a2,175c <__adddf3+0x740>
    174c:	04000613          	li	a2,64
    1750:	40f607b3          	sub	a5,a2,a5
    1754:	00f897b3          	sll	a5,a7,a5
    1758:	00ff6f33          	or	t5,t5,a5
    175c:	01e039b3          	snez	s3,t5
    1760:	00d9e9b3          	or	s3,s3,a3
    1764:	b65ff06f          	j	12c8 <__adddf3+0x2ac>
    1768:	00351613          	sll	a2,a0,0x3
    176c:	00365993          	srl	s3,a2,0x3
    1770:	eb5ff06f          	j	1624 <__adddf3+0x608>
    1774:	00361613          	sll	a2,a2,0x3
    1778:	00365613          	srl	a2,a2,0x3
    177c:	00068413          	mv	s0,a3
    1780:	00088713          	mv	a4,a7
    1784:	d41ff06f          	j	14c4 <__adddf3+0x4a8>
    1788:	00361613          	sll	a2,a2,0x3
    178c:	00365613          	srl	a2,a2,0x3
    1790:	00088713          	mv	a4,a7
    1794:	d31ff06f          	j	14c4 <__adddf3+0x4a8>
    1798:	fe078513          	add	a0,a5,-32
    179c:	02000613          	li	a2,32
    17a0:	00a75533          	srl	a0,a4,a0
    17a4:	00c78a63          	beq	a5,a2,17b8 <__adddf3+0x79c>
    17a8:	04000613          	li	a2,64
    17ac:	40f607b3          	sub	a5,a2,a5
    17b0:	00f717b3          	sll	a5,a4,a5
    17b4:	00f5e5b3          	or	a1,a1,a5
    17b8:	00b03633          	snez	a2,a1
    17bc:	00a66633          	or	a2,a2,a0
    17c0:	a8dff06f          	j	124c <__adddf3+0x230>
    17c4:	fc0682e3          	beqz	a3,1788 <__adddf3+0x76c>
    17c8:	01e8ef33          	or	t5,a7,t5
    17cc:	d00f16e3          	bnez	t5,14d8 <__adddf3+0x4bc>
    17d0:	cedff06f          	j	14bc <__adddf3+0x4a0>
    17d4:	dc0808e3          	beqz	a6,15a4 <__adddf3+0x588>
    17d8:	00361813          	sll	a6,a2,0x3
    17dc:	01d89793          	sll	a5,a7,0x1d
    17e0:	00385813          	srl	a6,a6,0x3
    17e4:	0038d713          	srl	a4,a7,0x3
    17e8:	00f86833          	or	a6,a6,a5
    17ec:	01d77733          	and	a4,a4,t4
    17f0:	00068e13          	mv	t3,a3
    17f4:	00000793          	li	a5,0
    17f8:	9bdff06f          	j	11b4 <__adddf3+0x198>
    17fc:	00100793          	li	a5,1
    1800:	c2dff06f          	j	142c <__adddf3+0x410>
    1804:	40bf05b3          	sub	a1,t5,a1
    1808:	40e888b3          	sub	a7,a7,a4
    180c:	00bf3733          	sltu	a4,t5,a1
    1810:	00058493          	mv	s1,a1
    1814:	40e889b3          	sub	s3,a7,a4
    1818:	00068413          	mv	s0,a3
    181c:	00100913          	li	s2,1
    1820:	8c9ff06f          	j	10e8 <__adddf3+0xcc>
    1824:	00361613          	sll	a2,a2,0x3
    1828:	00365613          	srl	a2,a2,0x3
    182c:	00088713          	mv	a4,a7
    1830:	cc5ff06f          	j	14f4 <__adddf3+0x4d8>
    1834:	00361613          	sll	a2,a2,0x3
    1838:	00365993          	srl	s3,a2,0x3
    183c:	00088713          	mv	a4,a7
    1840:	de5ff06f          	j	1624 <__adddf3+0x608>
    1844:	fe078693          	add	a3,a5,-32
    1848:	02000613          	li	a2,32
    184c:	00d756b3          	srl	a3,a4,a3
    1850:	00c78a63          	beq	a5,a2,1864 <__adddf3+0x848>
    1854:	04000613          	li	a2,64
    1858:	40f607b3          	sub	a5,a2,a5
    185c:	00f717b3          	sll	a5,a4,a5
    1860:	00f5e5b3          	or	a1,a1,a5
    1864:	00b039b3          	snez	s3,a1
    1868:	00d9e9b3          	or	s3,s3,a3
    186c:	c35ff06f          	j	14a0 <__adddf3+0x484>
    1870:	0034d613          	srl	a2,s1,0x3
    1874:	00090793          	mv	a5,s2
    1878:	00098713          	mv	a4,s3
    187c:	c79ff06f          	j	14f4 <__adddf3+0x4d8>
    1880:	02000693          	li	a3,32
    1884:	40f686b3          	sub	a3,a3,a5
    1888:	00000613          	li	a2,0
    188c:	8b5ff06f          	j	1140 <__adddf3+0x124>
    1890:	00c9e833          	or	a6,s3,a2
    1894:	d00808e3          	beqz	a6,15a4 <__adddf3+0x588>
    1898:	0039d993          	srl	s3,s3,0x3
    189c:	00060713          	mv	a4,a2
    18a0:	d85ff06f          	j	1624 <__adddf3+0x608>
    18a4:	00000e13          	li	t3,0
    18a8:	7ff00793          	li	a5,2047
    18ac:	00080737          	lui	a4,0x80
    18b0:	905ff06f          	j	11b4 <__adddf3+0x198>
    18b4:	01d71793          	sll	a5,a4,0x1d
    18b8:	00375713          	srl	a4,a4,0x3
    18bc:	0107e833          	or	a6,a5,a6
    18c0:	01d77733          	and	a4,a4,t4
    18c4:	00000793          	li	a5,0
    18c8:	8edff06f          	j	11b4 <__adddf3+0x198>
    18cc:	01d71813          	sll	a6,a4,0x1d
    18d0:	0035d593          	srl	a1,a1,0x3
    18d4:	00b86833          	or	a6,a6,a1
    18d8:	00375713          	srl	a4,a4,0x3
    18dc:	00068413          	mv	s0,a3
    18e0:	c29ff06f          	j	1508 <__adddf3+0x4ec>

000018e4 <__divdf3>:
    18e4:	fb010113          	add	sp,sp,-80
    18e8:	0145d793          	srl	a5,a1,0x14
    18ec:	04812423          	sw	s0,72(sp)
    18f0:	04912223          	sw	s1,68(sp)
    18f4:	05212023          	sw	s2,64(sp)
    18f8:	03412c23          	sw	s4,56(sp)
    18fc:	03512a23          	sw	s5,52(sp)
    1900:	00c59493          	sll	s1,a1,0xc
    1904:	04112623          	sw	ra,76(sp)
    1908:	03312e23          	sw	s3,60(sp)
    190c:	03612823          	sw	s6,48(sp)
    1910:	03712623          	sw	s7,44(sp)
    1914:	03812423          	sw	s8,40(sp)
    1918:	7ff7f793          	and	a5,a5,2047
    191c:	00050413          	mv	s0,a0
    1920:	00060a13          	mv	s4,a2
    1924:	00068913          	mv	s2,a3
    1928:	00c4d493          	srl	s1,s1,0xc
    192c:	01f5da93          	srl	s5,a1,0x1f
    1930:	18078a63          	beqz	a5,1ac4 <__divdf3+0x1e0>
    1934:	7ff00713          	li	a4,2047
    1938:	08e78863          	beq	a5,a4,19c8 <__divdf3+0xe4>
    193c:	01d55b13          	srl	s6,a0,0x1d
    1940:	00349493          	sll	s1,s1,0x3
    1944:	009b64b3          	or	s1,s6,s1
    1948:	00800737          	lui	a4,0x800
    194c:	00e4eb33          	or	s6,s1,a4
    1950:	00351b93          	sll	s7,a0,0x3
    1954:	c0178993          	add	s3,a5,-1023
    1958:	00000493          	li	s1,0
    195c:	00000c13          	li	s8,0
    1960:	01495793          	srl	a5,s2,0x14
    1964:	00c91413          	sll	s0,s2,0xc
    1968:	7ff7f793          	and	a5,a5,2047
    196c:	00c45413          	srl	s0,s0,0xc
    1970:	01f95913          	srl	s2,s2,0x1f
    1974:	08078263          	beqz	a5,19f8 <__divdf3+0x114>
    1978:	7ff00713          	li	a4,2047
    197c:	18e78a63          	beq	a5,a4,1b10 <__divdf3+0x22c>
    1980:	00341413          	sll	s0,s0,0x3
    1984:	01da5713          	srl	a4,s4,0x1d
    1988:	00876733          	or	a4,a4,s0
    198c:	c0178793          	add	a5,a5,-1023
    1990:	00800437          	lui	s0,0x800
    1994:	40f989b3          	sub	s3,s3,a5
    1998:	00876433          	or	s0,a4,s0
    199c:	003a1813          	sll	a6,s4,0x3
    19a0:	00000793          	li	a5,0
    19a4:	00f00713          	li	a4,15
    19a8:	012aca33          	xor	s4,s5,s2
    19ac:	24976463          	bltu	a4,s1,1bf4 <__divdf3+0x310>
    19b0:	00100737          	lui	a4,0x100
    19b4:	00070713          	mv	a4,a4
    19b8:	00249493          	sll	s1,s1,0x2
    19bc:	00e484b3          	add	s1,s1,a4
    19c0:	0004a703          	lw	a4,0(s1)
    19c4:	00070067          	jr	a4 # 100000 <DMEM_BASE>
    19c8:	00a4eb33          	or	s6,s1,a0
    19cc:	1c0b1e63          	bnez	s6,1ba8 <__divdf3+0x2c4>
    19d0:	01495793          	srl	a5,s2,0x14
    19d4:	00c91413          	sll	s0,s2,0xc
    19d8:	7ff7f793          	and	a5,a5,2047
    19dc:	00000b93          	li	s7,0
    19e0:	00800493          	li	s1,8
    19e4:	7ff00993          	li	s3,2047
    19e8:	00200c13          	li	s8,2
    19ec:	00c45413          	srl	s0,s0,0xc
    19f0:	01f95913          	srl	s2,s2,0x1f
    19f4:	f80792e3          	bnez	a5,1978 <__divdf3+0x94>
    19f8:	01446833          	or	a6,s0,s4
    19fc:	1c080263          	beqz	a6,1bc0 <__divdf3+0x2dc>
    1a00:	5c040663          	beqz	s0,1fcc <__divdf3+0x6e8>
    1a04:	00040513          	mv	a0,s0
    1a08:	68c020ef          	jal	4094 <__clzsi2>
    1a0c:	00050793          	mv	a5,a0
    1a10:	ff550693          	add	a3,a0,-11
    1a14:	01d00713          	li	a4,29
    1a18:	ff878813          	add	a6,a5,-8
    1a1c:	40d70733          	sub	a4,a4,a3
    1a20:	01041433          	sll	s0,s0,a6
    1a24:	00ea5733          	srl	a4,s4,a4
    1a28:	00876433          	or	s0,a4,s0
    1a2c:	010a1833          	sll	a6,s4,a6
    1a30:	013787b3          	add	a5,a5,s3
    1a34:	3f378993          	add	s3,a5,1011
    1a38:	00000793          	li	a5,0
    1a3c:	f69ff06f          	j	19a4 <__divdf3+0xc0>
    1a40:	40f70733          	sub	a4,a4,a5
    1a44:	03800693          	li	a3,56
    1a48:	60e6d063          	bge	a3,a4,2048 <DMEM_SHARED_SIZE+0x48>
    1a4c:	00000793          	li	a5,0
    1a50:	00000693          	li	a3,0
    1a54:	00000713          	li	a4,0
    1a58:	04c12083          	lw	ra,76(sp)
    1a5c:	04812403          	lw	s0,72(sp)
    1a60:	01479793          	sll	a5,a5,0x14
    1a64:	00d7e7b3          	or	a5,a5,a3
    1a68:	01fa1693          	sll	a3,s4,0x1f
    1a6c:	00d7e7b3          	or	a5,a5,a3
    1a70:	04412483          	lw	s1,68(sp)
    1a74:	04012903          	lw	s2,64(sp)
    1a78:	03c12983          	lw	s3,60(sp)
    1a7c:	03812a03          	lw	s4,56(sp)
    1a80:	03412a83          	lw	s5,52(sp)
    1a84:	03012b03          	lw	s6,48(sp)
    1a88:	02c12b83          	lw	s7,44(sp)
    1a8c:	02812c03          	lw	s8,40(sp)
    1a90:	00070513          	mv	a0,a4
    1a94:	00078593          	mv	a1,a5
    1a98:	05010113          	add	sp,sp,80
    1a9c:	00008067          	ret
    1aa0:	7ff00793          	li	a5,2047
    1aa4:	00000693          	li	a3,0
    1aa8:	00000713          	li	a4,0
    1aac:	fadff06f          	j	1a58 <__divdf3+0x174>
    1ab0:	00000a13          	li	s4,0
    1ab4:	7ff00793          	li	a5,2047
    1ab8:	000806b7          	lui	a3,0x80
    1abc:	00000713          	li	a4,0
    1ac0:	f99ff06f          	j	1a58 <__divdf3+0x174>
    1ac4:	00a4eb33          	or	s6,s1,a0
    1ac8:	100b0c63          	beqz	s6,1be0 <__divdf3+0x2fc>
    1acc:	52048463          	beqz	s1,1ff4 <__divdf3+0x710>
    1ad0:	00048513          	mv	a0,s1
    1ad4:	5c0020ef          	jal	4094 <__clzsi2>
    1ad8:	00050713          	mv	a4,a0
    1adc:	ff550793          	add	a5,a0,-11
    1ae0:	01d00b13          	li	s6,29
    1ae4:	ff870b93          	add	s7,a4,-8
    1ae8:	40fb0b33          	sub	s6,s6,a5
    1aec:	017494b3          	sll	s1,s1,s7
    1af0:	01645b33          	srl	s6,s0,s6
    1af4:	009b6b33          	or	s6,s6,s1
    1af8:	01741bb3          	sll	s7,s0,s7
    1afc:	c0d00793          	li	a5,-1011
    1b00:	40e789b3          	sub	s3,a5,a4
    1b04:	00000493          	li	s1,0
    1b08:	00000c13          	li	s8,0
    1b0c:	e55ff06f          	j	1960 <__divdf3+0x7c>
    1b10:	01446833          	or	a6,s0,s4
    1b14:	80198993          	add	s3,s3,-2047
    1b18:	0a081c63          	bnez	a6,1bd0 <__divdf3+0x2ec>
    1b1c:	0024e493          	or	s1,s1,2
    1b20:	00000413          	li	s0,0
    1b24:	00200793          	li	a5,2
    1b28:	e7dff06f          	j	19a4 <__divdf3+0xc0>
    1b2c:	000a8913          	mv	s2,s5
    1b30:	000b0413          	mv	s0,s6
    1b34:	000b8813          	mv	a6,s7
    1b38:	00200793          	li	a5,2
    1b3c:	60fc0863          	beq	s8,a5,214c <DMEM_SHARED_SIZE+0x14c>
    1b40:	00300793          	li	a5,3
    1b44:	f6fc06e3          	beq	s8,a5,1ab0 <__divdf3+0x1cc>
    1b48:	00100793          	li	a5,1
    1b4c:	00090a13          	mv	s4,s2
    1b50:	eefc0ee3          	beq	s8,a5,1a4c <__divdf3+0x168>
    1b54:	3ff98793          	add	a5,s3,1023
    1b58:	3cf05263          	blez	a5,1f1c <__divdf3+0x638>
    1b5c:	00787713          	and	a4,a6,7
    1b60:	5c071663          	bnez	a4,212c <DMEM_SHARED_SIZE+0x12c>
    1b64:	00741713          	sll	a4,s0,0x7
    1b68:	00075a63          	bgez	a4,1b7c <__divdf3+0x298>
    1b6c:	ff0007b7          	lui	a5,0xff000
    1b70:	fff78793          	add	a5,a5,-1 # feffffff <MTSSV_BASE+0xfeef8007>
    1b74:	00f47433          	and	s0,s0,a5
    1b78:	40098793          	add	a5,s3,1024
    1b7c:	7fe00713          	li	a4,2046
    1b80:	f2f740e3          	blt	a4,a5,1aa0 <__divdf3+0x1bc>
    1b84:	00385813          	srl	a6,a6,0x3
    1b88:	01d41713          	sll	a4,s0,0x1d
    1b8c:	00941693          	sll	a3,s0,0x9
    1b90:	01076733          	or	a4,a4,a6
    1b94:	00c6d693          	srl	a3,a3,0xc
    1b98:	7ff7f793          	and	a5,a5,2047
    1b9c:	ebdff06f          	j	1a58 <__divdf3+0x174>
    1ba0:	00078c13          	mv	s8,a5
    1ba4:	f95ff06f          	j	1b38 <__divdf3+0x254>
    1ba8:	00048b13          	mv	s6,s1
    1bac:	00050b93          	mv	s7,a0
    1bb0:	00c00493          	li	s1,12
    1bb4:	7ff00993          	li	s3,2047
    1bb8:	00300c13          	li	s8,3
    1bbc:	da5ff06f          	j	1960 <__divdf3+0x7c>
    1bc0:	0014e493          	or	s1,s1,1
    1bc4:	00000413          	li	s0,0
    1bc8:	00100793          	li	a5,1
    1bcc:	dd9ff06f          	j	19a4 <__divdf3+0xc0>
    1bd0:	0034e493          	or	s1,s1,3
    1bd4:	000a0813          	mv	a6,s4
    1bd8:	00300793          	li	a5,3
    1bdc:	dc9ff06f          	j	19a4 <__divdf3+0xc0>
    1be0:	00000b93          	li	s7,0
    1be4:	00400493          	li	s1,4
    1be8:	00000993          	li	s3,0
    1bec:	00100c13          	li	s8,1
    1bf0:	d71ff06f          	j	1960 <__divdf3+0x7c>
    1bf4:	03912223          	sw	s9,36(sp)
    1bf8:	03a12023          	sw	s10,32(sp)
    1bfc:	01b12e23          	sw	s11,28(sp)
    1c00:	3b646a63          	bltu	s0,s6,1fb4 <__divdf3+0x6d0>
    1c04:	3a8b0663          	beq	s6,s0,1fb0 <__divdf3+0x6cc>
    1c08:	fff98993          	add	s3,s3,-1
    1c0c:	000b8c13          	mv	s8,s7
    1c10:	000b0493          	mv	s1,s6
    1c14:	00000d13          	li	s10,0
    1c18:	01885c93          	srl	s9,a6,0x18
    1c1c:	00841413          	sll	s0,s0,0x8
    1c20:	01045913          	srl	s2,s0,0x10
    1c24:	008cecb3          	or	s9,s9,s0
    1c28:	00090593          	mv	a1,s2
    1c2c:	00048513          	mv	a0,s1
    1c30:	010c9b13          	sll	s6,s9,0x10
    1c34:	00881a93          	sll	s5,a6,0x8
    1c38:	010b5b13          	srl	s6,s6,0x10
    1c3c:	3ac020ef          	jal	3fe8 <__hidden___udivsi3>
    1c40:	00050593          	mv	a1,a0
    1c44:	00050413          	mv	s0,a0
    1c48:	000b0513          	mv	a0,s6
    1c4c:	370020ef          	jal	3fbc <__mulsi3>
    1c50:	00050793          	mv	a5,a0
    1c54:	00090593          	mv	a1,s2
    1c58:	00048513          	mv	a0,s1
    1c5c:	00078493          	mv	s1,a5
    1c60:	3d0020ef          	jal	4030 <__umodsi3>
    1c64:	01051513          	sll	a0,a0,0x10
    1c68:	010c5793          	srl	a5,s8,0x10
    1c6c:	00a7e7b3          	or	a5,a5,a0
    1c70:	0097fa63          	bgeu	a5,s1,1c84 <__divdf3+0x3a0>
    1c74:	00fc87b3          	add	a5,s9,a5
    1c78:	fff40713          	add	a4,s0,-1 # 7fffff <MTSSV_BASE+0x6f8007>
    1c7c:	3b97fe63          	bgeu	a5,s9,2038 <DMEM_SHARED_SIZE+0x38>
    1c80:	00070413          	mv	s0,a4
    1c84:	409784b3          	sub	s1,a5,s1
    1c88:	00090593          	mv	a1,s2
    1c8c:	00048513          	mv	a0,s1
    1c90:	358020ef          	jal	3fe8 <__hidden___udivsi3>
    1c94:	00050593          	mv	a1,a0
    1c98:	00050b93          	mv	s7,a0
    1c9c:	000b0513          	mv	a0,s6
    1ca0:	31c020ef          	jal	3fbc <__mulsi3>
    1ca4:	00050793          	mv	a5,a0
    1ca8:	00090593          	mv	a1,s2
    1cac:	00048513          	mv	a0,s1
    1cb0:	00078493          	mv	s1,a5
    1cb4:	37c020ef          	jal	4030 <__umodsi3>
    1cb8:	010c1793          	sll	a5,s8,0x10
    1cbc:	01051513          	sll	a0,a0,0x10
    1cc0:	0107d793          	srl	a5,a5,0x10
    1cc4:	00a7e7b3          	or	a5,a5,a0
    1cc8:	0097fa63          	bgeu	a5,s1,1cdc <__divdf3+0x3f8>
    1ccc:	00fc87b3          	add	a5,s9,a5
    1cd0:	fffb8713          	add	a4,s7,-1
    1cd4:	3597fa63          	bgeu	a5,s9,2028 <DMEM_SHARED_SIZE+0x28>
    1cd8:	00070b93          	mv	s7,a4
    1cdc:	00010337          	lui	t1,0x10
    1ce0:	01041413          	sll	s0,s0,0x10
    1ce4:	01746433          	or	s0,s0,s7
    1ce8:	fff30d93          	add	s11,t1,-1 # ffff <DMEM_TOTAL_SIZE+0x7fff>
    1cec:	01b478b3          	and	a7,s0,s11
    1cf0:	01bafdb3          	and	s11,s5,s11
    1cf4:	40978bb3          	sub	s7,a5,s1
    1cf8:	010adc13          	srl	s8,s5,0x10
    1cfc:	01045793          	srl	a5,s0,0x10
    1d00:	00088513          	mv	a0,a7
    1d04:	000d8593          	mv	a1,s11
    1d08:	2b4020ef          	jal	3fbc <__mulsi3>
    1d0c:	00050813          	mv	a6,a0
    1d10:	000c0593          	mv	a1,s8
    1d14:	00088513          	mv	a0,a7
    1d18:	2a4020ef          	jal	3fbc <__mulsi3>
    1d1c:	00050893          	mv	a7,a0
    1d20:	000d8593          	mv	a1,s11
    1d24:	00078513          	mv	a0,a5
    1d28:	294020ef          	jal	3fbc <__mulsi3>
    1d2c:	00050e13          	mv	t3,a0
    1d30:	000c0593          	mv	a1,s8
    1d34:	00078513          	mv	a0,a5
    1d38:	284020ef          	jal	3fbc <__mulsi3>
    1d3c:	01085793          	srl	a5,a6,0x10
    1d40:	01c888b3          	add	a7,a7,t3
    1d44:	011787b3          	add	a5,a5,a7
    1d48:	01c7f463          	bgeu	a5,t3,1d50 <__divdf3+0x46c>
    1d4c:	00650533          	add	a0,a0,t1
    1d50:	00010637          	lui	a2,0x10
    1d54:	fff60613          	add	a2,a2,-1 # ffff <DMEM_TOTAL_SIZE+0x7fff>
    1d58:	00c7f4b3          	and	s1,a5,a2
    1d5c:	0107d693          	srl	a3,a5,0x10
    1d60:	01049493          	sll	s1,s1,0x10
    1d64:	00c87833          	and	a6,a6,a2
    1d68:	00a687b3          	add	a5,a3,a0
    1d6c:	010484b3          	add	s1,s1,a6
    1d70:	20fbea63          	bltu	s7,a5,1f84 <__divdf3+0x6a0>
    1d74:	20fb8663          	beq	s7,a5,1f80 <__divdf3+0x69c>
    1d78:	409d04b3          	sub	s1,s10,s1
    1d7c:	40fb8bb3          	sub	s7,s7,a5
    1d80:	009d3d33          	sltu	s10,s10,s1
    1d84:	41ab8bb3          	sub	s7,s7,s10
    1d88:	377c8a63          	beq	s9,s7,20fc <DMEM_SHARED_SIZE+0xfc>
    1d8c:	00090593          	mv	a1,s2
    1d90:	000b8513          	mv	a0,s7
    1d94:	254020ef          	jal	3fe8 <__hidden___udivsi3>
    1d98:	00050593          	mv	a1,a0
    1d9c:	00a12623          	sw	a0,12(sp)
    1da0:	00050d13          	mv	s10,a0
    1da4:	000b0513          	mv	a0,s6
    1da8:	214020ef          	jal	3fbc <__mulsi3>
    1dac:	00050793          	mv	a5,a0
    1db0:	00090593          	mv	a1,s2
    1db4:	000b8513          	mv	a0,s7
    1db8:	00078b93          	mv	s7,a5
    1dbc:	274020ef          	jal	4030 <__umodsi3>
    1dc0:	01051513          	sll	a0,a0,0x10
    1dc4:	0104d793          	srl	a5,s1,0x10
    1dc8:	00a7e7b3          	or	a5,a5,a0
    1dcc:	0377f063          	bgeu	a5,s7,1dec <__divdf3+0x508>
    1dd0:	00fc87b3          	add	a5,s9,a5
    1dd4:	fffd0693          	add	a3,s10,-1
    1dd8:	3797e263          	bltu	a5,s9,213c <DMEM_SHARED_SIZE+0x13c>
    1ddc:	3777f063          	bgeu	a5,s7,213c <DMEM_SHARED_SIZE+0x13c>
    1de0:	ffed0713          	add	a4,s10,-2
    1de4:	00e12623          	sw	a4,12(sp)
    1de8:	019787b3          	add	a5,a5,s9
    1dec:	41778bb3          	sub	s7,a5,s7
    1df0:	00090593          	mv	a1,s2
    1df4:	000b8513          	mv	a0,s7
    1df8:	1f0020ef          	jal	3fe8 <__hidden___udivsi3>
    1dfc:	00050593          	mv	a1,a0
    1e00:	00050d13          	mv	s10,a0
    1e04:	000b0513          	mv	a0,s6
    1e08:	1b4020ef          	jal	3fbc <__mulsi3>
    1e0c:	00050793          	mv	a5,a0
    1e10:	00090593          	mv	a1,s2
    1e14:	000b8513          	mv	a0,s7
    1e18:	00078913          	mv	s2,a5
    1e1c:	01049493          	sll	s1,s1,0x10
    1e20:	210020ef          	jal	4030 <__umodsi3>
    1e24:	01051513          	sll	a0,a0,0x10
    1e28:	0104d493          	srl	s1,s1,0x10
    1e2c:	00a4e4b3          	or	s1,s1,a0
    1e30:	0124fe63          	bgeu	s1,s2,1e4c <__divdf3+0x568>
    1e34:	009c84b3          	add	s1,s9,s1
    1e38:	fffd0793          	add	a5,s10,-1
    1e3c:	3194e463          	bltu	s1,s9,2144 <DMEM_SHARED_SIZE+0x144>
    1e40:	3124f263          	bgeu	s1,s2,2144 <DMEM_SHARED_SIZE+0x144>
    1e44:	ffed0d13          	add	s10,s10,-2
    1e48:	019484b3          	add	s1,s1,s9
    1e4c:	00c12783          	lw	a5,12(sp)
    1e50:	412484b3          	sub	s1,s1,s2
    1e54:	000d8593          	mv	a1,s11
    1e58:	01079813          	sll	a6,a5,0x10
    1e5c:	01a86833          	or	a6,a6,s10
    1e60:	01081313          	sll	t1,a6,0x10
    1e64:	01035313          	srl	t1,t1,0x10
    1e68:	01085793          	srl	a5,a6,0x10
    1e6c:	00030513          	mv	a0,t1
    1e70:	14c020ef          	jal	3fbc <__mulsi3>
    1e74:	00050893          	mv	a7,a0
    1e78:	000c0593          	mv	a1,s8
    1e7c:	00030513          	mv	a0,t1
    1e80:	13c020ef          	jal	3fbc <__mulsi3>
    1e84:	00050313          	mv	t1,a0
    1e88:	000d8593          	mv	a1,s11
    1e8c:	00078513          	mv	a0,a5
    1e90:	12c020ef          	jal	3fbc <__mulsi3>
    1e94:	00050e13          	mv	t3,a0
    1e98:	000c0593          	mv	a1,s8
    1e9c:	00078513          	mv	a0,a5
    1ea0:	11c020ef          	jal	3fbc <__mulsi3>
    1ea4:	0108d793          	srl	a5,a7,0x10
    1ea8:	01c30333          	add	t1,t1,t3
    1eac:	006787b3          	add	a5,a5,t1
    1eb0:	01c7f663          	bgeu	a5,t3,1ebc <__divdf3+0x5d8>
    1eb4:	00010737          	lui	a4,0x10
    1eb8:	00e50533          	add	a0,a0,a4
    1ebc:	000106b7          	lui	a3,0x10
    1ec0:	fff68693          	add	a3,a3,-1 # ffff <DMEM_TOTAL_SIZE+0x7fff>
    1ec4:	0107d713          	srl	a4,a5,0x10
    1ec8:	00d7f7b3          	and	a5,a5,a3
    1ecc:	01079793          	sll	a5,a5,0x10
    1ed0:	00d8f8b3          	and	a7,a7,a3
    1ed4:	00a70733          	add	a4,a4,a0
    1ed8:	011787b3          	add	a5,a5,a7
    1edc:	02e4e063          	bltu	s1,a4,1efc <__divdf3+0x618>
    1ee0:	00e48c63          	beq	s1,a4,1ef8 <__divdf3+0x614>
    1ee4:	02412c83          	lw	s9,36(sp)
    1ee8:	02012d03          	lw	s10,32(sp)
    1eec:	01c12d83          	lw	s11,28(sp)
    1ef0:	00186813          	or	a6,a6,1
    1ef4:	c61ff06f          	j	1b54 <__divdf3+0x270>
    1ef8:	1c078a63          	beqz	a5,20cc <DMEM_SHARED_SIZE+0xcc>
    1efc:	009c84b3          	add	s1,s9,s1
    1f00:	fff80613          	add	a2,a6,-1 # fffff <IMEM_SIZE+0xebfff>
    1f04:	00048693          	mv	a3,s1
    1f08:	1b94ec63          	bltu	s1,s9,20c0 <DMEM_SHARED_SIZE+0xc0>
    1f0c:	24e4ea63          	bltu	s1,a4,2160 <DMEM_SHARED_SIZE+0x160>
    1f10:	26e48863          	beq	s1,a4,2180 <DMEM_SHARED_SIZE+0x180>
    1f14:	00060813          	mv	a6,a2
    1f18:	fcdff06f          	j	1ee4 <__divdf3+0x600>
    1f1c:	00100713          	li	a4,1
    1f20:	b20790e3          	bnez	a5,1a40 <__divdf3+0x15c>
    1f24:	41e98793          	add	a5,s3,1054
    1f28:	00f816b3          	sll	a3,a6,a5
    1f2c:	00d036b3          	snez	a3,a3
    1f30:	00f417b3          	sll	a5,s0,a5
    1f34:	00f6e7b3          	or	a5,a3,a5
    1f38:	00e85833          	srl	a6,a6,a4
    1f3c:	00f86833          	or	a6,a6,a5
    1f40:	00787793          	and	a5,a6,7
    1f44:	00e45433          	srl	s0,s0,a4
    1f48:	02078063          	beqz	a5,1f68 <__divdf3+0x684>
    1f4c:	00f87793          	and	a5,a6,15
    1f50:	00400713          	li	a4,4
    1f54:	00e78a63          	beq	a5,a4,1f68 <__divdf3+0x684>
    1f58:	00480793          	add	a5,a6,4
    1f5c:	0107b833          	sltu	a6,a5,a6
    1f60:	01040433          	add	s0,s0,a6
    1f64:	00078813          	mv	a6,a5
    1f68:	00841613          	sll	a2,s0,0x8
    1f6c:	00100793          	li	a5,1
    1f70:	00000693          	li	a3,0
    1f74:	00000713          	li	a4,0
    1f78:	ae0640e3          	bltz	a2,1a58 <__divdf3+0x174>
    1f7c:	1280006f          	j	20a4 <DMEM_SHARED_SIZE+0xa4>
    1f80:	de9d7ce3          	bgeu	s10,s1,1d78 <__divdf3+0x494>
    1f84:	015d06b3          	add	a3,s10,s5
    1f88:	01a6b633          	sltu	a2,a3,s10
    1f8c:	019605b3          	add	a1,a2,s9
    1f90:	00bb8bb3          	add	s7,s7,a1
    1f94:	00068d13          	mv	s10,a3
    1f98:	fff40593          	add	a1,s0,-1
    1f9c:	077cfe63          	bgeu	s9,s7,2018 <DMEM_SHARED_SIZE+0x18>
    1fa0:	14fbe063          	bltu	s7,a5,20e0 <DMEM_SHARED_SIZE+0xe0>
    1fa4:	13778c63          	beq	a5,s7,20dc <DMEM_SHARED_SIZE+0xdc>
    1fa8:	00058413          	mv	s0,a1
    1fac:	dcdff06f          	j	1d78 <__divdf3+0x494>
    1fb0:	c50bece3          	bltu	s7,a6,1c08 <__divdf3+0x324>
    1fb4:	01fb1c13          	sll	s8,s6,0x1f
    1fb8:	001bd713          	srl	a4,s7,0x1
    1fbc:	001b5493          	srl	s1,s6,0x1
    1fc0:	00ec6c33          	or	s8,s8,a4
    1fc4:	01fb9d13          	sll	s10,s7,0x1f
    1fc8:	c51ff06f          	j	1c18 <__divdf3+0x334>
    1fcc:	000a0513          	mv	a0,s4
    1fd0:	0c4020ef          	jal	4094 <__clzsi2>
    1fd4:	01550693          	add	a3,a0,21
    1fd8:	01c00713          	li	a4,28
    1fdc:	02050793          	add	a5,a0,32
    1fe0:	a2d75ae3          	bge	a4,a3,1a14 <__divdf3+0x130>
    1fe4:	ff850513          	add	a0,a0,-8
    1fe8:	00000813          	li	a6,0
    1fec:	00aa1433          	sll	s0,s4,a0
    1ff0:	a41ff06f          	j	1a30 <__divdf3+0x14c>
    1ff4:	0a0020ef          	jal	4094 <__clzsi2>
    1ff8:	01550793          	add	a5,a0,21
    1ffc:	01c00693          	li	a3,28
    2000:	02050713          	add	a4,a0,32
    2004:	acf6dee3          	bge	a3,a5,1ae0 <__divdf3+0x1fc>
    2008:	ff850493          	add	s1,a0,-8
    200c:	00941b33          	sll	s6,s0,s1
    2010:	00000b93          	li	s7,0
    2014:	ae9ff06f          	j	1afc <__divdf3+0x218>
    2018:	f97c98e3          	bne	s9,s7,1fa8 <__divdf3+0x6c4>
    201c:	f80602e3          	beqz	a2,1fa0 <__divdf3+0x6bc>
    2020:	00058413          	mv	s0,a1
    2024:	d55ff06f          	j	1d78 <__divdf3+0x494>
    2028:	ca97f8e3          	bgeu	a5,s1,1cd8 <__divdf3+0x3f4>
    202c:	ffeb8b93          	add	s7,s7,-2
    2030:	019787b3          	add	a5,a5,s9
    2034:	ca9ff06f          	j	1cdc <__divdf3+0x3f8>
    2038:	c497f4e3          	bgeu	a5,s1,1c80 <__divdf3+0x39c>
    203c:	ffe40413          	add	s0,s0,-2
    2040:	019787b3          	add	a5,a5,s9
    2044:	c41ff06f          	j	1c84 <__divdf3+0x3a0>
    2048:	01f00693          	li	a3,31
    204c:	ece6dce3          	bge	a3,a4,1f24 <__divdf3+0x640>
    2050:	fe100693          	li	a3,-31
    2054:	40f686b3          	sub	a3,a3,a5
    2058:	02000793          	li	a5,32
    205c:	00d456b3          	srl	a3,s0,a3
    2060:	00f70863          	beq	a4,a5,2070 <DMEM_SHARED_SIZE+0x70>
    2064:	43e98793          	add	a5,s3,1086
    2068:	00f417b3          	sll	a5,s0,a5
    206c:	00f86833          	or	a6,a6,a5
    2070:	01003833          	snez	a6,a6
    2074:	00d86833          	or	a6,a6,a3
    2078:	00787713          	and	a4,a6,7
    207c:	00000693          	li	a3,0
    2080:	02070863          	beqz	a4,20b0 <DMEM_SHARED_SIZE+0xb0>
    2084:	00f87793          	and	a5,a6,15
    2088:	00400713          	li	a4,4
    208c:	00000413          	li	s0,0
    2090:	00e78a63          	beq	a5,a4,20a4 <DMEM_SHARED_SIZE+0xa4>
    2094:	00480793          	add	a5,a6,4
    2098:	0107b833          	sltu	a6,a5,a6
    209c:	01003433          	snez	s0,a6
    20a0:	00078813          	mv	a6,a5
    20a4:	00941693          	sll	a3,s0,0x9
    20a8:	01d41713          	sll	a4,s0,0x1d
    20ac:	00c6d693          	srl	a3,a3,0xc
    20b0:	00385813          	srl	a6,a6,0x3
    20b4:	00e86733          	or	a4,a6,a4
    20b8:	00000793          	li	a5,0
    20bc:	99dff06f          	j	1a58 <__divdf3+0x174>
    20c0:	00060813          	mv	a6,a2
    20c4:	e2e690e3          	bne	a3,a4,1ee4 <__divdf3+0x600>
    20c8:	e1579ee3          	bne	a5,s5,1ee4 <__divdf3+0x600>
    20cc:	02412c83          	lw	s9,36(sp)
    20d0:	02012d03          	lw	s10,32(sp)
    20d4:	01c12d83          	lw	s11,28(sp)
    20d8:	a7dff06f          	j	1b54 <__divdf3+0x270>
    20dc:	ec96f6e3          	bgeu	a3,s1,1fa8 <__divdf3+0x6c4>
    20e0:	00da86b3          	add	a3,s5,a3
    20e4:	0156b633          	sltu	a2,a3,s5
    20e8:	01960633          	add	a2,a2,s9
    20ec:	ffe40413          	add	s0,s0,-2
    20f0:	00068d13          	mv	s10,a3
    20f4:	00cb8bb3          	add	s7,s7,a2
    20f8:	c81ff06f          	j	1d78 <__divdf3+0x494>
    20fc:	c0200713          	li	a4,-1022
    2100:	02412c83          	lw	s9,36(sp)
    2104:	02012d03          	lw	s10,32(sp)
    2108:	01c12d83          	lw	s11,28(sp)
    210c:	3ff98793          	add	a5,s3,1023
    2110:	fff00813          	li	a6,-1
    2114:	e0e9c4e3          	blt	s3,a4,1f1c <__divdf3+0x638>
    2118:	00480713          	add	a4,a6,4
    211c:	01073833          	sltu	a6,a4,a6
    2120:	01040433          	add	s0,s0,a6
    2124:	00070813          	mv	a6,a4
    2128:	a3dff06f          	j	1b64 <__divdf3+0x280>
    212c:	00f87713          	and	a4,a6,15
    2130:	00400693          	li	a3,4
    2134:	a2d708e3          	beq	a4,a3,1b64 <__divdf3+0x280>
    2138:	fe1ff06f          	j	2118 <DMEM_SHARED_SIZE+0x118>
    213c:	00d12623          	sw	a3,12(sp)
    2140:	cadff06f          	j	1dec <__divdf3+0x508>
    2144:	00078d13          	mv	s10,a5
    2148:	d05ff06f          	j	1e4c <__divdf3+0x568>
    214c:	00090a13          	mv	s4,s2
    2150:	7ff00793          	li	a5,2047
    2154:	00000693          	li	a3,0
    2158:	00000713          	li	a4,0
    215c:	8fdff06f          	j	1a58 <__divdf3+0x174>
    2160:	001a9613          	sll	a2,s5,0x1
    2164:	015636b3          	sltu	a3,a2,s5
    2168:	019686b3          	add	a3,a3,s9
    216c:	00d486b3          	add	a3,s1,a3
    2170:	ffe80813          	add	a6,a6,-2
    2174:	00060a93          	mv	s5,a2
    2178:	f4e688e3          	beq	a3,a4,20c8 <DMEM_SHARED_SIZE+0xc8>
    217c:	d69ff06f          	j	1ee4 <__divdf3+0x600>
    2180:	fefae0e3          	bltu	s5,a5,2160 <DMEM_SHARED_SIZE+0x160>
    2184:	00060813          	mv	a6,a2
    2188:	f41ff06f          	j	20c8 <DMEM_SHARED_SIZE+0xc8>

0000218c <__eqdf2>:
    218c:	0145d713          	srl	a4,a1,0x14
    2190:	001007b7          	lui	a5,0x100
    2194:	fff78793          	add	a5,a5,-1 # fffff <IMEM_SIZE+0xebfff>
    2198:	0146d813          	srl	a6,a3,0x14
    219c:	7ff77713          	and	a4,a4,2047
    21a0:	7ff00313          	li	t1,2047
    21a4:	00b7fe33          	and	t3,a5,a1
    21a8:	00050893          	mv	a7,a0
    21ac:	00d7f7b3          	and	a5,a5,a3
    21b0:	01f5d593          	srl	a1,a1,0x1f
    21b4:	7ff87813          	and	a6,a6,2047
    21b8:	01f6d693          	srl	a3,a3,0x1f
    21bc:	00100513          	li	a0,1
    21c0:	00670c63          	beq	a4,t1,21d8 <__eqdf2+0x4c>
    21c4:	00680863          	beq	a6,t1,21d4 <__eqdf2+0x48>
    21c8:	01071463          	bne	a4,a6,21d0 <__eqdf2+0x44>
    21cc:	02fe0663          	beq	t3,a5,21f8 <__eqdf2+0x6c>
    21d0:	00008067          	ret
    21d4:	00008067          	ret
    21d8:	fee81ce3          	bne	a6,a4,21d0 <__eqdf2+0x44>
    21dc:	00fe67b3          	or	a5,t3,a5
    21e0:	00c7e7b3          	or	a5,a5,a2
    21e4:	0117e7b3          	or	a5,a5,a7
    21e8:	fe0794e3          	bnez	a5,21d0 <__eqdf2+0x44>
    21ec:	40d585b3          	sub	a1,a1,a3
    21f0:	00b03533          	snez	a0,a1
    21f4:	00008067          	ret
    21f8:	fcc89ce3          	bne	a7,a2,21d0 <__eqdf2+0x44>
    21fc:	00d58a63          	beq	a1,a3,2210 <__eqdf2+0x84>
    2200:	fc0718e3          	bnez	a4,21d0 <__eqdf2+0x44>
    2204:	011e6e33          	or	t3,t3,a7
    2208:	01c03533          	snez	a0,t3
    220c:	00008067          	ret
    2210:	00000513          	li	a0,0
    2214:	00008067          	ret

00002218 <__gedf2>:
    2218:	0145d893          	srl	a7,a1,0x14
    221c:	001007b7          	lui	a5,0x100
    2220:	fff78793          	add	a5,a5,-1 # fffff <IMEM_SIZE+0xebfff>
    2224:	0146d713          	srl	a4,a3,0x14
    2228:	7ff8f893          	and	a7,a7,2047
    222c:	7ff00e13          	li	t3,2047
    2230:	00b7f333          	and	t1,a5,a1
    2234:	00050813          	mv	a6,a0
    2238:	00050e93          	mv	t4,a0
    223c:	00d7f7b3          	and	a5,a5,a3
    2240:	01f5d593          	srl	a1,a1,0x1f
    2244:	00060f13          	mv	t5,a2
    2248:	7ff77513          	and	a0,a4,2047
    224c:	01f6d693          	srl	a3,a3,0x1f
    2250:	05c88863          	beq	a7,t3,22a0 <__gedf2+0x88>
    2254:	03c50463          	beq	a0,t3,227c <__gedf2+0x64>
    2258:	06089a63          	bnez	a7,22cc <__gedf2+0xb4>
    225c:	01036833          	or	a6,t1,a6
    2260:	06051063          	bnez	a0,22c0 <__gedf2+0xa8>
    2264:	00c7e633          	or	a2,a5,a2
    2268:	08060c63          	beqz	a2,2300 <__gedf2+0xe8>
    226c:	0a081263          	bnez	a6,2310 <__gedf2+0xf8>
    2270:	00100513          	li	a0,1
    2274:	08068263          	beqz	a3,22f8 <__gedf2+0xe0>
    2278:	00008067          	ret
    227c:	00c7e633          	or	a2,a5,a2
    2280:	08061463          	bnez	a2,2308 <__gedf2+0xf0>
    2284:	00089663          	bnez	a7,2290 <__gedf2+0x78>
    2288:	01036333          	or	t1,t1,a6
    228c:	fe0302e3          	beqz	t1,2270 <__gedf2+0x58>
    2290:	06d58063          	beq	a1,a3,22f0 <__gedf2+0xd8>
    2294:	06059263          	bnez	a1,22f8 <__gedf2+0xe0>
    2298:	00100513          	li	a0,1
    229c:	00008067          	ret
    22a0:	01036333          	or	t1,t1,a6
    22a4:	06031263          	bnez	t1,2308 <__gedf2+0xf0>
    22a8:	ff1516e3          	bne	a0,a7,2294 <__gedf2+0x7c>
    22ac:	00c7e7b3          	or	a5,a5,a2
    22b0:	04079c63          	bnez	a5,2308 <__gedf2+0xf0>
    22b4:	fed590e3          	bne	a1,a3,2294 <__gedf2+0x7c>
    22b8:	00000513          	li	a0,0
    22bc:	00008067          	ret
    22c0:	fa0808e3          	beqz	a6,2270 <__gedf2+0x58>
    22c4:	fcd598e3          	bne	a1,a3,2294 <__gedf2+0x7c>
    22c8:	0280006f          	j	22f0 <__gedf2+0xd8>
    22cc:	fc0504e3          	beqz	a0,2294 <__gedf2+0x7c>
    22d0:	fcd592e3          	bne	a1,a3,2294 <__gedf2+0x7c>
    22d4:	fd1540e3          	blt	a0,a7,2294 <__gedf2+0x7c>
    22d8:	00a8cc63          	blt	a7,a0,22f0 <__gedf2+0xd8>
    22dc:	fa67ece3          	bltu	a5,t1,2294 <__gedf2+0x7c>
    22e0:	00f31863          	bne	t1,a5,22f0 <__gedf2+0xd8>
    22e4:	fbdf68e3          	bltu	t5,t4,2294 <__gedf2+0x7c>
    22e8:	00000513          	li	a0,0
    22ec:	f9eef6e3          	bgeu	t4,t5,2278 <__gedf2+0x60>
    22f0:	00100513          	li	a0,1
    22f4:	f80592e3          	bnez	a1,2278 <__gedf2+0x60>
    22f8:	fff00513          	li	a0,-1
    22fc:	00008067          	ret
    2300:	f8081ae3          	bnez	a6,2294 <__gedf2+0x7c>
    2304:	00008067          	ret
    2308:	ffe00513          	li	a0,-2
    230c:	00008067          	ret
    2310:	fcd586e3          	beq	a1,a3,22dc <__gedf2+0xc4>
    2314:	f81ff06f          	j	2294 <__gedf2+0x7c>

00002318 <__ledf2>:
    2318:	0145d893          	srl	a7,a1,0x14
    231c:	001007b7          	lui	a5,0x100
    2320:	fff78793          	add	a5,a5,-1 # fffff <IMEM_SIZE+0xebfff>
    2324:	0146d713          	srl	a4,a3,0x14
    2328:	7ff8f893          	and	a7,a7,2047
    232c:	7ff00313          	li	t1,2047
    2330:	00b7fe33          	and	t3,a5,a1
    2334:	00050813          	mv	a6,a0
    2338:	00050e93          	mv	t4,a0
    233c:	00d7f7b3          	and	a5,a5,a3
    2340:	01f5d593          	srl	a1,a1,0x1f
    2344:	00060f13          	mv	t5,a2
    2348:	7ff77513          	and	a0,a4,2047
    234c:	01f6d693          	srl	a3,a3,0x1f
    2350:	04688a63          	beq	a7,t1,23a4 <__ledf2+0x8c>
    2354:	02650463          	beq	a0,t1,237c <__ledf2+0x64>
    2358:	06089863          	bnez	a7,23c8 <__ledf2+0xb0>
    235c:	010e6833          	or	a6,t3,a6
    2360:	08051e63          	bnez	a0,23fc <__ledf2+0xe4>
    2364:	00c7e633          	or	a2,a5,a2
    2368:	0a060463          	beqz	a2,2410 <__ledf2+0xf8>
    236c:	0a081663          	bnez	a6,2418 <__ledf2+0x100>
    2370:	00100513          	li	a0,1
    2374:	08068063          	beqz	a3,23f4 <__ledf2+0xdc>
    2378:	00008067          	ret
    237c:	00c7e633          	or	a2,a5,a2
    2380:	00200513          	li	a0,2
    2384:	fe061ae3          	bnez	a2,2378 <__ledf2+0x60>
    2388:	00089663          	bnez	a7,2394 <__ledf2+0x7c>
    238c:	010e6e33          	or	t3,t3,a6
    2390:	fe0e00e3          	beqz	t3,2370 <__ledf2+0x58>
    2394:	04d58c63          	beq	a1,a3,23ec <__ledf2+0xd4>
    2398:	04059e63          	bnez	a1,23f4 <__ledf2+0xdc>
    239c:	00100513          	li	a0,1
    23a0:	00008067          	ret
    23a4:	010e6e33          	or	t3,t3,a6
    23a8:	060e1063          	bnez	t3,2408 <__ledf2+0xf0>
    23ac:	ff1516e3          	bne	a0,a7,2398 <__ledf2+0x80>
    23b0:	00c7e7b3          	or	a5,a5,a2
    23b4:	00200513          	li	a0,2
    23b8:	fc0790e3          	bnez	a5,2378 <__ledf2+0x60>
    23bc:	fcd59ee3          	bne	a1,a3,2398 <__ledf2+0x80>
    23c0:	00000513          	li	a0,0
    23c4:	00008067          	ret
    23c8:	fc0508e3          	beqz	a0,2398 <__ledf2+0x80>
    23cc:	fcd596e3          	bne	a1,a3,2398 <__ledf2+0x80>
    23d0:	fd1544e3          	blt	a0,a7,2398 <__ledf2+0x80>
    23d4:	00a8cc63          	blt	a7,a0,23ec <__ledf2+0xd4>
    23d8:	fdc7e0e3          	bltu	a5,t3,2398 <__ledf2+0x80>
    23dc:	00fe1863          	bne	t3,a5,23ec <__ledf2+0xd4>
    23e0:	fbdf6ce3          	bltu	t5,t4,2398 <__ledf2+0x80>
    23e4:	00000513          	li	a0,0
    23e8:	f9eef8e3          	bgeu	t4,t5,2378 <__ledf2+0x60>
    23ec:	00100513          	li	a0,1
    23f0:	f80594e3          	bnez	a1,2378 <__ledf2+0x60>
    23f4:	fff00513          	li	a0,-1
    23f8:	00008067          	ret
    23fc:	f6080ae3          	beqz	a6,2370 <__ledf2+0x58>
    2400:	f8d59ce3          	bne	a1,a3,2398 <__ledf2+0x80>
    2404:	fe9ff06f          	j	23ec <__ledf2+0xd4>
    2408:	00200513          	li	a0,2
    240c:	00008067          	ret
    2410:	f80814e3          	bnez	a6,2398 <__ledf2+0x80>
    2414:	00008067          	ret
    2418:	fcd580e3          	beq	a1,a3,23d8 <__ledf2+0xc0>
    241c:	f7dff06f          	j	2398 <__ledf2+0x80>

00002420 <__muldf3>:
    2420:	fd010113          	add	sp,sp,-48
    2424:	0145d793          	srl	a5,a1,0x14
    2428:	02812423          	sw	s0,40(sp)
    242c:	02912223          	sw	s1,36(sp)
    2430:	03212023          	sw	s2,32(sp)
    2434:	01312e23          	sw	s3,28(sp)
    2438:	01512a23          	sw	s5,20(sp)
    243c:	00c59493          	sll	s1,a1,0xc
    2440:	02112623          	sw	ra,44(sp)
    2444:	01412c23          	sw	s4,24(sp)
    2448:	01612823          	sw	s6,16(sp)
    244c:	01712623          	sw	s7,12(sp)
    2450:	01812423          	sw	s8,8(sp)
    2454:	7ff7f793          	and	a5,a5,2047
    2458:	00050413          	mv	s0,a0
    245c:	00060a93          	mv	s5,a2
    2460:	00068993          	mv	s3,a3
    2464:	00c4d493          	srl	s1,s1,0xc
    2468:	01f5d913          	srl	s2,a1,0x1f
    246c:	4e078063          	beqz	a5,294c <IMEM_SIZE_PER_THREAD+0x14c>
    2470:	7ff00713          	li	a4,2047
    2474:	0ae78663          	beq	a5,a4,2520 <__muldf3+0x100>
    2478:	00349693          	sll	a3,s1,0x3
    247c:	01d55713          	srl	a4,a0,0x1d
    2480:	00d76733          	or	a4,a4,a3
    2484:	008006b7          	lui	a3,0x800
    2488:	00d764b3          	or	s1,a4,a3
    248c:	00351a13          	sll	s4,a0,0x3
    2490:	c0178c13          	add	s8,a5,-1023
    2494:	00000b13          	li	s6,0
    2498:	00000b93          	li	s7,0
    249c:	0149d793          	srl	a5,s3,0x14
    24a0:	00c99713          	sll	a4,s3,0xc
    24a4:	7ff7f793          	and	a5,a5,2047
    24a8:	000a8e13          	mv	t3,s5
    24ac:	00c75413          	srl	s0,a4,0xc
    24b0:	01f9d993          	srl	s3,s3,0x1f
    24b4:	0a078063          	beqz	a5,2554 <__muldf3+0x134>
    24b8:	7ff00713          	li	a4,2047
    24bc:	14e78e63          	beq	a5,a4,2618 <__muldf3+0x1f8>
    24c0:	00341713          	sll	a4,s0,0x3
    24c4:	01dad693          	srl	a3,s5,0x1d
    24c8:	00e6e6b3          	or	a3,a3,a4
    24cc:	c0178793          	add	a5,a5,-1023
    24d0:	00800737          	lui	a4,0x800
    24d4:	00e6e433          	or	s0,a3,a4
    24d8:	003a9e13          	sll	t3,s5,0x3
    24dc:	01878333          	add	t1,a5,s8
    24e0:	00000693          	li	a3,0
    24e4:	00a00793          	li	a5,10
    24e8:	00130893          	add	a7,t1,1
    24ec:	0b67cc63          	blt	a5,s6,25a4 <__muldf3+0x184>
    24f0:	013945b3          	xor	a1,s2,s3
    24f4:	00200793          	li	a5,2
    24f8:	00058813          	mv	a6,a1
    24fc:	1567c663          	blt	a5,s6,2648 <__muldf3+0x228>
    2500:	fffb0b13          	add	s6,s6,-1
    2504:	00100713          	li	a4,1
    2508:	17676063          	bltu	a4,s6,2668 <__muldf3+0x248>
    250c:	48f68663          	beq	a3,a5,2998 <IMEM_SIZE_PER_THREAD+0x198>
    2510:	00040493          	mv	s1,s0
    2514:	000e0a13          	mv	s4,t3
    2518:	00068b93          	mv	s7,a3
    251c:	09c0006f          	j	25b8 <__muldf3+0x198>
    2520:	00a4ea33          	or	s4,s1,a0
    2524:	480a1463          	bnez	s4,29ac <IMEM_SIZE_PER_THREAD+0x1ac>
    2528:	0149d793          	srl	a5,s3,0x14
    252c:	00c99713          	sll	a4,s3,0xc
    2530:	7ff7f793          	and	a5,a5,2047
    2534:	00000493          	li	s1,0
    2538:	00800b13          	li	s6,8
    253c:	7ff00c13          	li	s8,2047
    2540:	00200b93          	li	s7,2
    2544:	000a8e13          	mv	t3,s5
    2548:	00c75413          	srl	s0,a4,0xc
    254c:	01f9d993          	srl	s3,s3,0x1f
    2550:	f60794e3          	bnez	a5,24b8 <__muldf3+0x98>
    2554:	015467b3          	or	a5,s0,s5
    2558:	46078e63          	beqz	a5,29d4 <IMEM_SIZE_PER_THREAD+0x1d4>
    255c:	54040c63          	beqz	s0,2ab4 <IMEM_SIZE_PER_THREAD+0x2b4>
    2560:	00040513          	mv	a0,s0
    2564:	331010ef          	jal	4094 <__clzsi2>
    2568:	00050313          	mv	t1,a0
    256c:	ff550713          	add	a4,a0,-11
    2570:	01d00793          	li	a5,29
    2574:	ff830e13          	add	t3,t1,-8
    2578:	40e787b3          	sub	a5,a5,a4
    257c:	00fad7b3          	srl	a5,s5,a5
    2580:	01c41733          	sll	a4,s0,t3
    2584:	00e7e433          	or	s0,a5,a4
    2588:	01ca9e33          	sll	t3,s5,t3
    258c:	406c0333          	sub	t1,s8,t1
    2590:	c0d30313          	add	t1,t1,-1011
    2594:	00a00793          	li	a5,10
    2598:	00000693          	li	a3,0
    259c:	00130893          	add	a7,t1,1
    25a0:	f567d8e3          	bge	a5,s6,24f0 <__muldf3+0xd0>
    25a4:	00090593          	mv	a1,s2
    25a8:	00200793          	li	a5,2
    25ac:	3efb8663          	beq	s7,a5,2998 <IMEM_SIZE_PER_THREAD+0x198>
    25b0:	00300793          	li	a5,3
    25b4:	54fb8863          	beq	s7,a5,2b04 <IMEM_SIZE_PER_THREAD+0x304>
    25b8:	00100793          	li	a5,1
    25bc:	00058813          	mv	a6,a1
    25c0:	52fb9663          	bne	s7,a5,2aec <IMEM_SIZE_PER_THREAD+0x2ec>
    25c4:	00000793          	li	a5,0
    25c8:	00000693          	li	a3,0
    25cc:	00000713          	li	a4,0
    25d0:	02c12083          	lw	ra,44(sp)
    25d4:	02812403          	lw	s0,40(sp)
    25d8:	01479793          	sll	a5,a5,0x14
    25dc:	00d7e7b3          	or	a5,a5,a3
    25e0:	01f81813          	sll	a6,a6,0x1f
    25e4:	0107e7b3          	or	a5,a5,a6
    25e8:	02412483          	lw	s1,36(sp)
    25ec:	02012903          	lw	s2,32(sp)
    25f0:	01c12983          	lw	s3,28(sp)
    25f4:	01812a03          	lw	s4,24(sp)
    25f8:	01412a83          	lw	s5,20(sp)
    25fc:	01012b03          	lw	s6,16(sp)
    2600:	00c12b83          	lw	s7,12(sp)
    2604:	00812c03          	lw	s8,8(sp)
    2608:	00070513          	mv	a0,a4
    260c:	00078593          	mv	a1,a5
    2610:	03010113          	add	sp,sp,48
    2614:	00008067          	ret
    2618:	01546733          	or	a4,s0,s5
    261c:	7ffc0313          	add	t1,s8,2047
    2620:	3c070663          	beqz	a4,29ec <IMEM_SIZE_PER_THREAD+0x1ec>
    2624:	00001737          	lui	a4,0x1
    2628:	01394833          	xor	a6,s2,s3
    262c:	80070713          	add	a4,a4,-2048 # 800 <STACK_SIZE+0x400>
    2630:	003b6b13          	or	s6,s6,3
    2634:	00a00693          	li	a3,10
    2638:	00080593          	mv	a1,a6
    263c:	00ec08b3          	add	a7,s8,a4
    2640:	4366cc63          	blt	a3,s6,2a78 <IMEM_SIZE_PER_THREAD+0x278>
    2644:	00300693          	li	a3,3
    2648:	00100613          	li	a2,1
    264c:	01661633          	sll	a2,a2,s6
    2650:	53067713          	and	a4,a2,1328
    2654:	f4071ae3          	bnez	a4,25a8 <__muldf3+0x188>
    2658:	24067793          	and	a5,a2,576
    265c:	48079063          	bnez	a5,2adc <IMEM_SIZE_PER_THREAD+0x2dc>
    2660:	08867613          	and	a2,a2,136
    2664:	38061e63          	bnez	a2,2a00 <IMEM_SIZE_PER_THREAD+0x200>
    2668:	00010fb7          	lui	t6,0x10
    266c:	ffff8293          	add	t0,t6,-1 # ffff <DMEM_TOTAL_SIZE+0x7fff>
    2670:	005a7f33          	and	t5,s4,t0
    2674:	005e72b3          	and	t0,t3,t0
    2678:	010a5a13          	srl	s4,s4,0x10
    267c:	010e5e13          	srl	t3,t3,0x10
    2680:	000f0513          	mv	a0,t5
    2684:	00028593          	mv	a1,t0
    2688:	135010ef          	jal	3fbc <__mulsi3>
    268c:	00050713          	mv	a4,a0
    2690:	000e0593          	mv	a1,t3
    2694:	000f0513          	mv	a0,t5
    2698:	125010ef          	jal	3fbc <__mulsi3>
    269c:	00050793          	mv	a5,a0
    26a0:	00028593          	mv	a1,t0
    26a4:	000a0513          	mv	a0,s4
    26a8:	115010ef          	jal	3fbc <__mulsi3>
    26ac:	00050e93          	mv	t4,a0
    26b0:	000e0593          	mv	a1,t3
    26b4:	000a0513          	mv	a0,s4
    26b8:	105010ef          	jal	3fbc <__mulsi3>
    26bc:	01d786b3          	add	a3,a5,t4
    26c0:	01075393          	srl	t2,a4,0x10
    26c4:	00d383b3          	add	t2,t2,a3
    26c8:	00050793          	mv	a5,a0
    26cc:	01d3f463          	bgeu	t2,t4,26d4 <__muldf3+0x2b4>
    26d0:	01f507b3          	add	a5,a0,t6
    26d4:	000109b7          	lui	s3,0x10
    26d8:	fff98913          	add	s2,s3,-1 # ffff <DMEM_TOTAL_SIZE+0x7fff>
    26dc:	0123feb3          	and	t4,t2,s2
    26e0:	01277733          	and	a4,a4,s2
    26e4:	010e9e93          	sll	t4,t4,0x10
    26e8:	01247933          	and	s2,s0,s2
    26ec:	0103d393          	srl	t2,t2,0x10
    26f0:	00ee8eb3          	add	t4,t4,a4
    26f4:	01045413          	srl	s0,s0,0x10
    26f8:	000f0513          	mv	a0,t5
    26fc:	00090593          	mv	a1,s2
    2700:	0bd010ef          	jal	3fbc <__mulsi3>
    2704:	00050f93          	mv	t6,a0
    2708:	00040593          	mv	a1,s0
    270c:	000f0513          	mv	a0,t5
    2710:	0ad010ef          	jal	3fbc <__mulsi3>
    2714:	00050713          	mv	a4,a0
    2718:	00090593          	mv	a1,s2
    271c:	000a0513          	mv	a0,s4
    2720:	09d010ef          	jal	3fbc <__mulsi3>
    2724:	00050f13          	mv	t5,a0
    2728:	00040593          	mv	a1,s0
    272c:	000a0513          	mv	a0,s4
    2730:	08d010ef          	jal	3fbc <__mulsi3>
    2734:	010fd693          	srl	a3,t6,0x10
    2738:	01e70733          	add	a4,a4,t5
    273c:	00e686b3          	add	a3,a3,a4
    2740:	01e6f463          	bgeu	a3,t5,2748 <__muldf3+0x328>
    2744:	01350533          	add	a0,a0,s3
    2748:	00010a37          	lui	s4,0x10
    274c:	fffa0f13          	add	t5,s4,-1 # ffff <DMEM_TOTAL_SIZE+0x7fff>
    2750:	01e6f733          	and	a4,a3,t5
    2754:	01efffb3          	and	t6,t6,t5
    2758:	01071713          	sll	a4,a4,0x10
    275c:	01f70733          	add	a4,a4,t6
    2760:	01e4ff33          	and	t5,s1,t5
    2764:	0106d693          	srl	a3,a3,0x10
    2768:	00a68fb3          	add	t6,a3,a0
    276c:	00e383b3          	add	t2,t2,a4
    2770:	0104d493          	srl	s1,s1,0x10
    2774:	000f0513          	mv	a0,t5
    2778:	00028593          	mv	a1,t0
    277c:	041010ef          	jal	3fbc <__mulsi3>
    2780:	00050a93          	mv	s5,a0
    2784:	000e0593          	mv	a1,t3
    2788:	000f0513          	mv	a0,t5
    278c:	031010ef          	jal	3fbc <__mulsi3>
    2790:	00050993          	mv	s3,a0
    2794:	00028593          	mv	a1,t0
    2798:	00048513          	mv	a0,s1
    279c:	021010ef          	jal	3fbc <__mulsi3>
    27a0:	00050293          	mv	t0,a0
    27a4:	000e0593          	mv	a1,t3
    27a8:	00048513          	mv	a0,s1
    27ac:	011010ef          	jal	3fbc <__mulsi3>
    27b0:	010ad613          	srl	a2,s5,0x10
    27b4:	005989b3          	add	s3,s3,t0
    27b8:	01360633          	add	a2,a2,s3
    27bc:	00567463          	bgeu	a2,t0,27c4 <__muldf3+0x3a4>
    27c0:	01450533          	add	a0,a0,s4
    27c4:	00010a37          	lui	s4,0x10
    27c8:	fffa0693          	add	a3,s4,-1 # ffff <DMEM_TOTAL_SIZE+0x7fff>
    27cc:	00d672b3          	and	t0,a2,a3
    27d0:	00dafab3          	and	s5,s5,a3
    27d4:	01065613          	srl	a2,a2,0x10
    27d8:	01029293          	sll	t0,t0,0x10
    27dc:	00a60e33          	add	t3,a2,a0
    27e0:	015282b3          	add	t0,t0,s5
    27e4:	000f0513          	mv	a0,t5
    27e8:	00090593          	mv	a1,s2
    27ec:	7d0010ef          	jal	3fbc <__mulsi3>
    27f0:	00050993          	mv	s3,a0
    27f4:	00040593          	mv	a1,s0
    27f8:	000f0513          	mv	a0,t5
    27fc:	7c0010ef          	jal	3fbc <__mulsi3>
    2800:	00050f13          	mv	t5,a0
    2804:	00090593          	mv	a1,s2
    2808:	00048513          	mv	a0,s1
    280c:	7b0010ef          	jal	3fbc <__mulsi3>
    2810:	00050913          	mv	s2,a0
    2814:	00040593          	mv	a1,s0
    2818:	00048513          	mv	a0,s1
    281c:	7a0010ef          	jal	3fbc <__mulsi3>
    2820:	012f06b3          	add	a3,t5,s2
    2824:	0109d593          	srl	a1,s3,0x10
    2828:	00d58433          	add	s0,a1,a3
    282c:	00050f13          	mv	t5,a0
    2830:	01247463          	bgeu	s0,s2,2838 <IMEM_SIZE_PER_THREAD+0x38>
    2834:	01450f33          	add	t5,a0,s4
    2838:	00010637          	lui	a2,0x10
    283c:	fff60613          	add	a2,a2,-1 # ffff <DMEM_TOTAL_SIZE+0x7fff>
    2840:	00c476b3          	and	a3,s0,a2
    2844:	00c9f9b3          	and	s3,s3,a2
    2848:	01069693          	sll	a3,a3,0x10
    284c:	007787b3          	add	a5,a5,t2
    2850:	013686b3          	add	a3,a3,s3
    2854:	01f685b3          	add	a1,a3,t6
    2858:	00e7b733          	sltu	a4,a5,a4
    285c:	00e58733          	add	a4,a1,a4
    2860:	005782b3          	add	t0,a5,t0
    2864:	01c70633          	add	a2,a4,t3
    2868:	00f2b7b3          	sltu	a5,t0,a5
    286c:	00f607b3          	add	a5,a2,a5
    2870:	00d5b6b3          	sltu	a3,a1,a3
    2874:	00b735b3          	sltu	a1,a4,a1
    2878:	00b6e6b3          	or	a3,a3,a1
    287c:	00e63733          	sltu	a4,a2,a4
    2880:	01045593          	srl	a1,s0,0x10
    2884:	00c7b633          	sltu	a2,a5,a2
    2888:	00b686b3          	add	a3,a3,a1
    288c:	00929a13          	sll	s4,t0,0x9
    2890:	00c76733          	or	a4,a4,a2
    2894:	00d70733          	add	a4,a4,a3
    2898:	01da6a33          	or	s4,s4,t4
    289c:	01e70733          	add	a4,a4,t5
    28a0:	01403a33          	snez	s4,s4
    28a4:	0172d293          	srl	t0,t0,0x17
    28a8:	00971713          	sll	a4,a4,0x9
    28ac:	0177d693          	srl	a3,a5,0x17
    28b0:	005a6a33          	or	s4,s4,t0
    28b4:	00979793          	sll	a5,a5,0x9
    28b8:	00fa6a33          	or	s4,s4,a5
    28bc:	00771793          	sll	a5,a4,0x7
    28c0:	00d764b3          	or	s1,a4,a3
    28c4:	0207d063          	bgez	a5,28e4 <IMEM_SIZE_PER_THREAD+0xe4>
    28c8:	001a5793          	srl	a5,s4,0x1
    28cc:	001a7a13          	and	s4,s4,1
    28d0:	01f49713          	sll	a4,s1,0x1f
    28d4:	0147e7b3          	or	a5,a5,s4
    28d8:	00e7ea33          	or	s4,a5,a4
    28dc:	0014d493          	srl	s1,s1,0x1
    28e0:	00088313          	mv	t1,a7
    28e4:	3ff30793          	add	a5,t1,1023
    28e8:	12f05663          	blez	a5,2a14 <IMEM_SIZE_PER_THREAD+0x214>
    28ec:	007a7713          	and	a4,s4,7
    28f0:	02070063          	beqz	a4,2910 <IMEM_SIZE_PER_THREAD+0x110>
    28f4:	00fa7713          	and	a4,s4,15
    28f8:	00400693          	li	a3,4
    28fc:	00d70a63          	beq	a4,a3,2910 <IMEM_SIZE_PER_THREAD+0x110>
    2900:	004a0713          	add	a4,s4,4
    2904:	01473a33          	sltu	s4,a4,s4
    2908:	014484b3          	add	s1,s1,s4
    290c:	00070a13          	mv	s4,a4
    2910:	00749713          	sll	a4,s1,0x7
    2914:	00075a63          	bgez	a4,2928 <IMEM_SIZE_PER_THREAD+0x128>
    2918:	ff0007b7          	lui	a5,0xff000
    291c:	fff78793          	add	a5,a5,-1 # feffffff <MTSSV_BASE+0xfeef8007>
    2920:	00f4f4b3          	and	s1,s1,a5
    2924:	40030793          	add	a5,t1,1024
    2928:	7fe00713          	li	a4,2046
    292c:	1cf74463          	blt	a4,a5,2af4 <IMEM_SIZE_PER_THREAD+0x2f4>
    2930:	003a5a13          	srl	s4,s4,0x3
    2934:	01d49713          	sll	a4,s1,0x1d
    2938:	00949693          	sll	a3,s1,0x9
    293c:	01476733          	or	a4,a4,s4
    2940:	00c6d693          	srl	a3,a3,0xc
    2944:	7ff7f793          	and	a5,a5,2047
    2948:	c89ff06f          	j	25d0 <__muldf3+0x1b0>
    294c:	00a4ea33          	or	s4,s1,a0
    2950:	060a0863          	beqz	s4,29c0 <IMEM_SIZE_PER_THREAD+0x1c0>
    2954:	12048e63          	beqz	s1,2a90 <IMEM_SIZE_PER_THREAD+0x290>
    2958:	00048513          	mv	a0,s1
    295c:	738010ef          	jal	4094 <__clzsi2>
    2960:	00050713          	mv	a4,a0
    2964:	ff550693          	add	a3,a0,-11
    2968:	01d00793          	li	a5,29
    296c:	ff870a13          	add	s4,a4,-8
    2970:	40d787b3          	sub	a5,a5,a3
    2974:	00f457b3          	srl	a5,s0,a5
    2978:	014496b3          	sll	a3,s1,s4
    297c:	00d7e4b3          	or	s1,a5,a3
    2980:	01441a33          	sll	s4,s0,s4
    2984:	c0d00793          	li	a5,-1011
    2988:	40e78c33          	sub	s8,a5,a4
    298c:	00000b13          	li	s6,0
    2990:	00000b93          	li	s7,0
    2994:	b09ff06f          	j	249c <__muldf3+0x7c>
    2998:	00058813          	mv	a6,a1
    299c:	7ff00793          	li	a5,2047
    29a0:	00000693          	li	a3,0
    29a4:	00000713          	li	a4,0
    29a8:	c29ff06f          	j	25d0 <__muldf3+0x1b0>
    29ac:	00050a13          	mv	s4,a0
    29b0:	00c00b13          	li	s6,12
    29b4:	7ff00c13          	li	s8,2047
    29b8:	00300b93          	li	s7,3
    29bc:	ae1ff06f          	j	249c <__muldf3+0x7c>
    29c0:	00000493          	li	s1,0
    29c4:	00400b13          	li	s6,4
    29c8:	00000c13          	li	s8,0
    29cc:	00100b93          	li	s7,1
    29d0:	acdff06f          	j	249c <__muldf3+0x7c>
    29d4:	001b6b13          	or	s6,s6,1
    29d8:	000c0313          	mv	t1,s8
    29dc:	00000413          	li	s0,0
    29e0:	00000e13          	li	t3,0
    29e4:	00100693          	li	a3,1
    29e8:	afdff06f          	j	24e4 <__muldf3+0xc4>
    29ec:	002b6b13          	or	s6,s6,2
    29f0:	00000413          	li	s0,0
    29f4:	00000e13          	li	t3,0
    29f8:	00200693          	li	a3,2
    29fc:	ae9ff06f          	j	24e4 <__muldf3+0xc4>
    2a00:	00040493          	mv	s1,s0
    2a04:	000e0a13          	mv	s4,t3
    2a08:	00068b93          	mv	s7,a3
    2a0c:	00098593          	mv	a1,s3
    2a10:	b99ff06f          	j	25a8 <__muldf3+0x188>
    2a14:	00100713          	li	a4,1
    2a18:	10079063          	bnez	a5,2b18 <IMEM_SIZE_PER_THREAD+0x318>
    2a1c:	41e30313          	add	t1,t1,1054
    2a20:	006a1633          	sll	a2,s4,t1
    2a24:	00c03633          	snez	a2,a2
    2a28:	00649333          	sll	t1,s1,t1
    2a2c:	00ea5a33          	srl	s4,s4,a4
    2a30:	00666633          	or	a2,a2,t1
    2a34:	01466633          	or	a2,a2,s4
    2a38:	00767793          	and	a5,a2,7
    2a3c:	00e4d5b3          	srl	a1,s1,a4
    2a40:	02078063          	beqz	a5,2a60 <IMEM_SIZE_PER_THREAD+0x260>
    2a44:	00f67793          	and	a5,a2,15
    2a48:	00400713          	li	a4,4
    2a4c:	00e78a63          	beq	a5,a4,2a60 <IMEM_SIZE_PER_THREAD+0x260>
    2a50:	00460793          	add	a5,a2,4
    2a54:	00c7b633          	sltu	a2,a5,a2
    2a58:	00c585b3          	add	a1,a1,a2
    2a5c:	00078613          	mv	a2,a5
    2a60:	00859513          	sll	a0,a1,0x8
    2a64:	00100793          	li	a5,1
    2a68:	00000693          	li	a3,0
    2a6c:	00000713          	li	a4,0
    2a70:	b60540e3          	bltz	a0,25d0 <__muldf3+0x1b0>
    2a74:	10c0006f          	j	2b80 <IMEM_SIZE_PER_THREAD+0x380>
    2a78:	00f00713          	li	a4,15
    2a7c:	12eb1063          	bne	s6,a4,2b9c <IMEM_SIZE_PER_THREAD+0x39c>
    2a80:	00000813          	li	a6,0
    2a84:	000806b7          	lui	a3,0x80
    2a88:	00000713          	li	a4,0
    2a8c:	b45ff06f          	j	25d0 <__muldf3+0x1b0>
    2a90:	604010ef          	jal	4094 <__clzsi2>
    2a94:	01550693          	add	a3,a0,21
    2a98:	01c00793          	li	a5,28
    2a9c:	02050713          	add	a4,a0,32
    2aa0:	ecd7d4e3          	bge	a5,a3,2968 <IMEM_SIZE_PER_THREAD+0x168>
    2aa4:	ff850513          	add	a0,a0,-8
    2aa8:	00000a13          	li	s4,0
    2aac:	00a414b3          	sll	s1,s0,a0
    2ab0:	ed5ff06f          	j	2984 <IMEM_SIZE_PER_THREAD+0x184>
    2ab4:	000a8513          	mv	a0,s5
    2ab8:	5dc010ef          	jal	4094 <__clzsi2>
    2abc:	01550713          	add	a4,a0,21
    2ac0:	01c00793          	li	a5,28
    2ac4:	02050313          	add	t1,a0,32
    2ac8:	aae7d4e3          	bge	a5,a4,2570 <__muldf3+0x150>
    2acc:	ff850513          	add	a0,a0,-8
    2ad0:	00000e13          	li	t3,0
    2ad4:	00aa9433          	sll	s0,s5,a0
    2ad8:	ab5ff06f          	j	258c <__muldf3+0x16c>
    2adc:	00000813          	li	a6,0
    2ae0:	7ff00793          	li	a5,2047
    2ae4:	000806b7          	lui	a3,0x80
    2ae8:	ae9ff06f          	j	25d0 <__muldf3+0x1b0>
    2aec:	00088313          	mv	t1,a7
    2af0:	df5ff06f          	j	28e4 <IMEM_SIZE_PER_THREAD+0xe4>
    2af4:	7ff00793          	li	a5,2047
    2af8:	00000693          	li	a3,0
    2afc:	00000713          	li	a4,0
    2b00:	ad1ff06f          	j	25d0 <__muldf3+0x1b0>
    2b04:	00000813          	li	a6,0
    2b08:	7ff00793          	li	a5,2047
    2b0c:	000806b7          	lui	a3,0x80
    2b10:	00000713          	li	a4,0
    2b14:	abdff06f          	j	25d0 <__muldf3+0x1b0>
    2b18:	40f70733          	sub	a4,a4,a5
    2b1c:	03800693          	li	a3,56
    2b20:	aae6c2e3          	blt	a3,a4,25c4 <__muldf3+0x1a4>
    2b24:	01f00693          	li	a3,31
    2b28:	eee6dae3          	bge	a3,a4,2a1c <IMEM_SIZE_PER_THREAD+0x21c>
    2b2c:	fe100693          	li	a3,-31
    2b30:	40f687b3          	sub	a5,a3,a5
    2b34:	02000693          	li	a3,32
    2b38:	00f4d7b3          	srl	a5,s1,a5
    2b3c:	00d70863          	beq	a4,a3,2b4c <IMEM_SIZE_PER_THREAD+0x34c>
    2b40:	43e30313          	add	t1,t1,1086
    2b44:	00649333          	sll	t1,s1,t1
    2b48:	006a6a33          	or	s4,s4,t1
    2b4c:	01403633          	snez	a2,s4
    2b50:	00f66633          	or	a2,a2,a5
    2b54:	00767713          	and	a4,a2,7
    2b58:	00000693          	li	a3,0
    2b5c:	02070863          	beqz	a4,2b8c <IMEM_SIZE_PER_THREAD+0x38c>
    2b60:	00f67793          	and	a5,a2,15
    2b64:	00400713          	li	a4,4
    2b68:	00000593          	li	a1,0
    2b6c:	00e78a63          	beq	a5,a4,2b80 <IMEM_SIZE_PER_THREAD+0x380>
    2b70:	00460793          	add	a5,a2,4
    2b74:	00c7b633          	sltu	a2,a5,a2
    2b78:	00c035b3          	snez	a1,a2
    2b7c:	00078613          	mv	a2,a5
    2b80:	00959693          	sll	a3,a1,0x9
    2b84:	01d59713          	sll	a4,a1,0x1d
    2b88:	00c6d693          	srl	a3,a3,0xc
    2b8c:	00365613          	srl	a2,a2,0x3
    2b90:	00e66733          	or	a4,a2,a4
    2b94:	00000793          	li	a5,0
    2b98:	a39ff06f          	j	25d0 <__muldf3+0x1b0>
    2b9c:	00040493          	mv	s1,s0
    2ba0:	000a8a13          	mv	s4,s5
    2ba4:	00300b93          	li	s7,3
    2ba8:	00098593          	mv	a1,s3
    2bac:	9fdff06f          	j	25a8 <__muldf3+0x188>

00002bb0 <__subdf3>:
    2bb0:	001007b7          	lui	a5,0x100
    2bb4:	fff78793          	add	a5,a5,-1 # fffff <IMEM_SIZE+0xebfff>
    2bb8:	fe010113          	add	sp,sp,-32
    2bbc:	00b7f8b3          	and	a7,a5,a1
    2bc0:	00d7f833          	and	a6,a5,a3
    2bc4:	0146d793          	srl	a5,a3,0x14
    2bc8:	00389893          	sll	a7,a7,0x3
    2bcc:	00812c23          	sw	s0,24(sp)
    2bd0:	01312623          	sw	s3,12(sp)
    2bd4:	01f5d413          	srl	s0,a1,0x1f
    2bd8:	0145d993          	srl	s3,a1,0x14
    2bdc:	01d55713          	srl	a4,a0,0x1d
    2be0:	00381813          	sll	a6,a6,0x3
    2be4:	01d65593          	srl	a1,a2,0x1d
    2be8:	00112e23          	sw	ra,28(sp)
    2bec:	00912a23          	sw	s1,20(sp)
    2bf0:	01212823          	sw	s2,16(sp)
    2bf4:	7ff7ff13          	and	t5,a5,2047
    2bf8:	7ff00313          	li	t1,2047
    2bfc:	01176733          	or	a4,a4,a7
    2c00:	7ff9f993          	and	s3,s3,2047
    2c04:	00040e13          	mv	t3,s0
    2c08:	00351893          	sll	a7,a0,0x3
    2c0c:	01f6d693          	srl	a3,a3,0x1f
    2c10:	0105e5b3          	or	a1,a1,a6
    2c14:	00361e93          	sll	t4,a2,0x3
    2c18:	206f0c63          	beq	t5,t1,2e30 <__subdf3+0x280>
    2c1c:	0016c693          	xor	a3,a3,1
    2c20:	41e987b3          	sub	a5,s3,t5
    2c24:	16d40263          	beq	s0,a3,2d88 <__subdf3+0x1d8>
    2c28:	00f05ae3          	blez	a5,343c <__subdf3+0x88c>
    2c2c:	240f0a63          	beqz	t5,2e80 <__subdf3+0x2d0>
    2c30:	3c698463          	beq	s3,t1,2ff8 <__subdf3+0x448>
    2c34:	03800693          	li	a3,56
    2c38:	00100513          	li	a0,1
    2c3c:	02f6ce63          	blt	a3,a5,2c78 <__subdf3+0xc8>
    2c40:	008006b7          	lui	a3,0x800
    2c44:	00d5e5b3          	or	a1,a1,a3
    2c48:	01f00693          	li	a3,31
    2c4c:	4ef6c463          	blt	a3,a5,3134 <__subdf3+0x584>
    2c50:	02000693          	li	a3,32
    2c54:	40f686b3          	sub	a3,a3,a5
    2c58:	00d59533          	sll	a0,a1,a3
    2c5c:	00fed633          	srl	a2,t4,a5
    2c60:	00de96b3          	sll	a3,t4,a3
    2c64:	00c56533          	or	a0,a0,a2
    2c68:	00d036b3          	snez	a3,a3
    2c6c:	00f5d7b3          	srl	a5,a1,a5
    2c70:	00d56533          	or	a0,a0,a3
    2c74:	40f70733          	sub	a4,a4,a5
    2c78:	40a88533          	sub	a0,a7,a0
    2c7c:	00a8b633          	sltu	a2,a7,a0
    2c80:	00050493          	mv	s1,a0
    2c84:	40c70933          	sub	s2,a4,a2
    2c88:	00891793          	sll	a5,s2,0x8
    2c8c:	3407d863          	bgez	a5,2fdc <__subdf3+0x42c>
    2c90:	008007b7          	lui	a5,0x800
    2c94:	fff78793          	add	a5,a5,-1 # 7fffff <MTSSV_BASE+0x6f8007>
    2c98:	00f97933          	and	s2,s2,a5
    2c9c:	2e090663          	beqz	s2,2f88 <__subdf3+0x3d8>
    2ca0:	00090513          	mv	a0,s2
    2ca4:	3f0010ef          	jal	4094 <__clzsi2>
    2ca8:	ff850793          	add	a5,a0,-8
    2cac:	02000693          	li	a3,32
    2cb0:	40f68733          	sub	a4,a3,a5
    2cb4:	00e4d733          	srl	a4,s1,a4
    2cb8:	00f91933          	sll	s2,s2,a5
    2cbc:	01276733          	or	a4,a4,s2
    2cc0:	00f494b3          	sll	s1,s1,a5
    2cc4:	3f37c463          	blt	a5,s3,30ac <__subdf3+0x4fc>
    2cc8:	413787b3          	sub	a5,a5,s3
    2ccc:	00178793          	add	a5,a5,1
    2cd0:	40f686b3          	sub	a3,a3,a5
    2cd4:	00d49633          	sll	a2,s1,a3
    2cd8:	00f4d933          	srl	s2,s1,a5
    2cdc:	00c03633          	snez	a2,a2
    2ce0:	00c96633          	or	a2,s2,a2
    2ce4:	00d716b3          	sll	a3,a4,a3
    2ce8:	00c6e4b3          	or	s1,a3,a2
    2cec:	00f75933          	srl	s2,a4,a5
    2cf0:	00000993          	li	s3,0
    2cf4:	0074f793          	and	a5,s1,7
    2cf8:	02078063          	beqz	a5,2d18 <__subdf3+0x168>
    2cfc:	00f4f793          	and	a5,s1,15
    2d00:	00400713          	li	a4,4
    2d04:	00e78a63          	beq	a5,a4,2d18 <__subdf3+0x168>
    2d08:	00448793          	add	a5,s1,4
    2d0c:	0097b533          	sltu	a0,a5,s1
    2d10:	00a90933          	add	s2,s2,a0
    2d14:	00078493          	mv	s1,a5
    2d18:	00891793          	sll	a5,s2,0x8
    2d1c:	6c07d063          	bgez	a5,33dc <__subdf3+0x82c>
    2d20:	00198793          	add	a5,s3,1
    2d24:	7ff00713          	li	a4,2047
    2d28:	24e78663          	beq	a5,a4,2f74 <__subdf3+0x3c4>
    2d2c:	ff800737          	lui	a4,0xff800
    2d30:	fff70713          	add	a4,a4,-1 # ff7fffff <MTSSV_BASE+0xff6f8007>
    2d34:	00e97733          	and	a4,s2,a4
    2d38:	7ff7f793          	and	a5,a5,2047
    2d3c:	01d71813          	sll	a6,a4,0x1d
    2d40:	0034d513          	srl	a0,s1,0x3
    2d44:	00971713          	sll	a4,a4,0x9
    2d48:	00a86833          	or	a6,a6,a0
    2d4c:	00c75713          	srl	a4,a4,0xc
    2d50:	00147e13          	and	t3,s0,1
    2d54:	01c12083          	lw	ra,28(sp)
    2d58:	01812403          	lw	s0,24(sp)
    2d5c:	01479793          	sll	a5,a5,0x14
    2d60:	00e7e7b3          	or	a5,a5,a4
    2d64:	01fe1713          	sll	a4,t3,0x1f
    2d68:	00e7e7b3          	or	a5,a5,a4
    2d6c:	01412483          	lw	s1,20(sp)
    2d70:	01012903          	lw	s2,16(sp)
    2d74:	00c12983          	lw	s3,12(sp)
    2d78:	00080513          	mv	a0,a6
    2d7c:	00078593          	mv	a1,a5
    2d80:	02010113          	add	sp,sp,32
    2d84:	00008067          	ret
    2d88:	70f05263          	blez	a5,348c <__subdf3+0x8dc>
    2d8c:	1c0f1663          	bnez	t5,2f58 <__subdf3+0x3a8>
    2d90:	01d5e6b3          	or	a3,a1,t4
    2d94:	26068e63          	beqz	a3,3010 <__subdf3+0x460>
    2d98:	fff78693          	add	a3,a5,-1
    2d9c:	46068863          	beqz	a3,320c <__subdf3+0x65c>
    2da0:	24678c63          	beq	a5,t1,2ff8 <__subdf3+0x448>
    2da4:	03800793          	li	a5,56
    2da8:	00100913          	li	s2,1
    2dac:	02d7cc63          	blt	a5,a3,2de4 <__subdf3+0x234>
    2db0:	00068793          	mv	a5,a3
    2db4:	01f00693          	li	a3,31
    2db8:	48f6ca63          	blt	a3,a5,324c <__subdf3+0x69c>
    2dbc:	02000693          	li	a3,32
    2dc0:	40f686b3          	sub	a3,a3,a5
    2dc4:	00d59933          	sll	s2,a1,a3
    2dc8:	00fed633          	srl	a2,t4,a5
    2dcc:	00de96b3          	sll	a3,t4,a3
    2dd0:	00c96933          	or	s2,s2,a2
    2dd4:	00d036b3          	snez	a3,a3
    2dd8:	00f5d7b3          	srl	a5,a1,a5
    2ddc:	00d96933          	or	s2,s2,a3
    2de0:	00f70733          	add	a4,a4,a5
    2de4:	01190633          	add	a2,s2,a7
    2de8:	01263933          	sltu	s2,a2,s2
    2dec:	00060493          	mv	s1,a2
    2df0:	00e90933          	add	s2,s2,a4
    2df4:	00891793          	sll	a5,s2,0x8
    2df8:	1e07d263          	bgez	a5,2fdc <__subdf3+0x42c>
    2dfc:	00198993          	add	s3,s3,1
    2e00:	7ff00793          	li	a5,2047
    2e04:	16f98863          	beq	s3,a5,2f74 <__subdf3+0x3c4>
    2e08:	ff8007b7          	lui	a5,0xff800
    2e0c:	fff78793          	add	a5,a5,-1 # ff7fffff <MTSSV_BASE+0xff6f8007>
    2e10:	0014f513          	and	a0,s1,1
    2e14:	00f977b3          	and	a5,s2,a5
    2e18:	0014d713          	srl	a4,s1,0x1
    2e1c:	00a76733          	or	a4,a4,a0
    2e20:	01f79513          	sll	a0,a5,0x1f
    2e24:	00e564b3          	or	s1,a0,a4
    2e28:	0017d913          	srl	s2,a5,0x1
    2e2c:	ec9ff06f          	j	2cf4 <__subdf3+0x144>
    2e30:	01d5e833          	or	a6,a1,t4
    2e34:	80198313          	add	t1,s3,-2047
    2e38:	06080863          	beqz	a6,2ea8 <__subdf3+0x2f8>
    2e3c:	06d40a63          	beq	s0,a3,2eb0 <__subdf3+0x300>
    2e40:	0e030463          	beqz	t1,2f28 <__subdf3+0x378>
    2e44:	26098e63          	beqz	s3,30c0 <__subdf3+0x510>
    2e48:	00361513          	sll	a0,a2,0x3
    2e4c:	00355513          	srl	a0,a0,0x3
    2e50:	00068413          	mv	s0,a3
    2e54:	00058713          	mv	a4,a1
    2e58:	01d71813          	sll	a6,a4,0x1d
    2e5c:	00a86833          	or	a6,a6,a0
    2e60:	00375713          	srl	a4,a4,0x3
    2e64:	01076733          	or	a4,a4,a6
    2e68:	10070663          	beqz	a4,2f74 <__subdf3+0x3c4>
    2e6c:	00000e13          	li	t3,0
    2e70:	7ff00793          	li	a5,2047
    2e74:	00080737          	lui	a4,0x80
    2e78:	00000813          	li	a6,0
    2e7c:	ed9ff06f          	j	2d54 <__subdf3+0x1a4>
    2e80:	01d5e6b3          	or	a3,a1,t4
    2e84:	18068663          	beqz	a3,3010 <__subdf3+0x460>
    2e88:	fff78693          	add	a3,a5,-1
    2e8c:	3a068263          	beqz	a3,3230 <__subdf3+0x680>
    2e90:	16678463          	beq	a5,t1,2ff8 <__subdf3+0x448>
    2e94:	03800793          	li	a5,56
    2e98:	00100513          	li	a0,1
    2e9c:	dcd7cee3          	blt	a5,a3,2c78 <__subdf3+0xc8>
    2ea0:	00068793          	mv	a5,a3
    2ea4:	da5ff06f          	j	2c48 <__subdf3+0x98>
    2ea8:	0016c693          	xor	a3,a3,1
    2eac:	f8d41ae3          	bne	s0,a3,2e40 <__subdf3+0x290>
    2eb0:	18030863          	beqz	t1,3040 <__subdf3+0x490>
    2eb4:	2c099063          	bnez	s3,3174 <__subdf3+0x5c4>
    2eb8:	7ff00793          	li	a5,2047
    2ebc:	011766b3          	or	a3,a4,a7
    2ec0:	48068863          	beqz	a3,3350 <__subdf3+0x7a0>
    2ec4:	fff78693          	add	a3,a5,-1
    2ec8:	34068263          	beqz	a3,320c <__subdf3+0x65c>
    2ecc:	7ff00513          	li	a0,2047
    2ed0:	2aa78263          	beq	a5,a0,3174 <__subdf3+0x5c4>
    2ed4:	03800793          	li	a5,56
    2ed8:	00100913          	li	s2,1
    2edc:	02d7ca63          	blt	a5,a3,2f10 <__subdf3+0x360>
    2ee0:	01f00793          	li	a5,31
    2ee4:	4cd7c663          	blt	a5,a3,33b0 <__subdf3+0x800>
    2ee8:	02000793          	li	a5,32
    2eec:	40d787b3          	sub	a5,a5,a3
    2ef0:	00f71933          	sll	s2,a4,a5
    2ef4:	00d8d633          	srl	a2,a7,a3
    2ef8:	00f897b3          	sll	a5,a7,a5
    2efc:	00c96933          	or	s2,s2,a2
    2f00:	00f037b3          	snez	a5,a5
    2f04:	00d756b3          	srl	a3,a4,a3
    2f08:	00f96933          	or	s2,s2,a5
    2f0c:	00d585b3          	add	a1,a1,a3
    2f10:	01d90733          	add	a4,s2,t4
    2f14:	01273933          	sltu	s2,a4,s2
    2f18:	00070493          	mv	s1,a4
    2f1c:	00b90933          	add	s2,s2,a1
    2f20:	000f0993          	mv	s3,t5
    2f24:	ed1ff06f          	j	2df4 <__subdf3+0x244>
    2f28:	00198793          	add	a5,s3,1
    2f2c:	7fe7f793          	and	a5,a5,2046
    2f30:	14079463          	bnez	a5,3078 <__subdf3+0x4c8>
    2f34:	01d5e833          	or	a6,a1,t4
    2f38:	011767b3          	or	a5,a4,a7
    2f3c:	2a099463          	bnez	s3,31e4 <__subdf3+0x634>
    2f40:	38078e63          	beqz	a5,32dc <__subdf3+0x72c>
    2f44:	3c081063          	bnez	a6,3304 <__subdf3+0x754>
    2f48:	00351513          	sll	a0,a0,0x3
    2f4c:	00355913          	srl	s2,a0,0x3
    2f50:	00000793          	li	a5,0
    2f54:	1140006f          	j	3068 <__subdf3+0x4b8>
    2f58:	0a698063          	beq	s3,t1,2ff8 <__subdf3+0x448>
    2f5c:	03800693          	li	a3,56
    2f60:	00100913          	li	s2,1
    2f64:	e8f6c0e3          	blt	a3,a5,2de4 <__subdf3+0x234>
    2f68:	008006b7          	lui	a3,0x800
    2f6c:	00d5e5b3          	or	a1,a1,a3
    2f70:	e45ff06f          	j	2db4 <__subdf3+0x204>
    2f74:	00147e13          	and	t3,s0,1
    2f78:	7ff00793          	li	a5,2047
    2f7c:	00000713          	li	a4,0
    2f80:	00000813          	li	a6,0
    2f84:	dd1ff06f          	j	2d54 <__subdf3+0x1a4>
    2f88:	00048513          	mv	a0,s1
    2f8c:	108010ef          	jal	4094 <__clzsi2>
    2f90:	01850793          	add	a5,a0,24
    2f94:	01f00693          	li	a3,31
    2f98:	d0f6dae3          	bge	a3,a5,2cac <__subdf3+0xfc>
    2f9c:	ff850713          	add	a4,a0,-8
    2fa0:	00e49733          	sll	a4,s1,a4
    2fa4:	1b37ce63          	blt	a5,s3,3160 <__subdf3+0x5b0>
    2fa8:	413789b3          	sub	s3,a5,s3
    2fac:	00198793          	add	a5,s3,1
    2fb0:	42f6de63          	bge	a3,a5,33ec <__subdf3+0x83c>
    2fb4:	fe198993          	add	s3,s3,-31
    2fb8:	02000693          	li	a3,32
    2fbc:	013754b3          	srl	s1,a4,s3
    2fc0:	00d78c63          	beq	a5,a3,2fd8 <__subdf3+0x428>
    2fc4:	04000693          	li	a3,64
    2fc8:	40f687b3          	sub	a5,a3,a5
    2fcc:	00f71733          	sll	a4,a4,a5
    2fd0:	00e03733          	snez	a4,a4
    2fd4:	00e4e4b3          	or	s1,s1,a4
    2fd8:	00000993          	li	s3,0
    2fdc:	0074f793          	and	a5,s1,7
    2fe0:	d0079ee3          	bnez	a5,2cfc <__subdf3+0x14c>
    2fe4:	00098793          	mv	a5,s3
    2fe8:	0034d513          	srl	a0,s1,0x3
    2fec:	00090713          	mv	a4,s2
    2ff0:	0280006f          	j	3018 <__subdf3+0x468>
    2ff4:	e6081ce3          	bnez	a6,2e6c <__subdf3+0x2bc>
    2ff8:	00351513          	sll	a0,a0,0x3
    2ffc:	01d71813          	sll	a6,a4,0x1d
    3000:	00355513          	srl	a0,a0,0x3
    3004:	00a86833          	or	a6,a6,a0
    3008:	00375713          	srl	a4,a4,0x3
    300c:	e59ff06f          	j	2e64 <__subdf3+0x2b4>
    3010:	00351513          	sll	a0,a0,0x3
    3014:	00355513          	srl	a0,a0,0x3
    3018:	01d71813          	sll	a6,a4,0x1d
    301c:	7ff00693          	li	a3,2047
    3020:	00a86833          	or	a6,a6,a0
    3024:	00375713          	srl	a4,a4,0x3
    3028:	e2d78ee3          	beq	a5,a3,2e64 <__subdf3+0x2b4>
    302c:	00c71713          	sll	a4,a4,0xc
    3030:	00c75713          	srl	a4,a4,0xc
    3034:	7ff7f793          	and	a5,a5,2047
    3038:	00147e13          	and	t3,s0,1
    303c:	d19ff06f          	j	2d54 <__subdf3+0x1a4>
    3040:	00198693          	add	a3,s3,1
    3044:	7fe6f793          	and	a5,a3,2046
    3048:	12079e63          	bnez	a5,3184 <__subdf3+0x5d4>
    304c:	011767b3          	or	a5,a4,a7
    3050:	24099a63          	bnez	s3,32a4 <__subdf3+0x6f4>
    3054:	30078663          	beqz	a5,3360 <__subdf3+0x7b0>
    3058:	01d5e7b3          	or	a5,a1,t4
    305c:	30079a63          	bnez	a5,3370 <__subdf3+0x7c0>
    3060:	00351513          	sll	a0,a0,0x3
    3064:	00355913          	srl	s2,a0,0x3
    3068:	01d71813          	sll	a6,a4,0x1d
    306c:	01286833          	or	a6,a6,s2
    3070:	00375713          	srl	a4,a4,0x3
    3074:	fb9ff06f          	j	302c <__subdf3+0x47c>
    3078:	41d88833          	sub	a6,a7,t4
    307c:	0108b7b3          	sltu	a5,a7,a6
    3080:	40b70933          	sub	s2,a4,a1
    3084:	40f90933          	sub	s2,s2,a5
    3088:	00891793          	sll	a5,s2,0x8
    308c:	00080493          	mv	s1,a6
    3090:	1207c263          	bltz	a5,31b4 <__subdf3+0x604>
    3094:	01286833          	or	a6,a6,s2
    3098:	c00812e3          	bnez	a6,2c9c <__subdf3+0xec>
    309c:	00000e13          	li	t3,0
    30a0:	00000793          	li	a5,0
    30a4:	00000713          	li	a4,0
    30a8:	cadff06f          	j	2d54 <__subdf3+0x1a4>
    30ac:	ff800937          	lui	s2,0xff800
    30b0:	fff90913          	add	s2,s2,-1 # ff7fffff <MTSSV_BASE+0xff6f8007>
    30b4:	40f989b3          	sub	s3,s3,a5
    30b8:	01277933          	and	s2,a4,s2
    30bc:	c39ff06f          	j	2cf4 <__subdf3+0x144>
    30c0:	7ff00793          	li	a5,2047
    30c4:	01176533          	or	a0,a4,a7
    30c8:	10050463          	beqz	a0,31d0 <__subdf3+0x620>
    30cc:	fff78813          	add	a6,a5,-1
    30d0:	1e080263          	beqz	a6,32b4 <__subdf3+0x704>
    30d4:	7ff00513          	li	a0,2047
    30d8:	d6a788e3          	beq	a5,a0,2e48 <__subdf3+0x298>
    30dc:	03800793          	li	a5,56
    30e0:	00068413          	mv	s0,a3
    30e4:	00100513          	li	a0,1
    30e8:	0307ca63          	blt	a5,a6,311c <__subdf3+0x56c>
    30ec:	01f00793          	li	a5,31
    30f0:	1907c463          	blt	a5,a6,3278 <__subdf3+0x6c8>
    30f4:	02000793          	li	a5,32
    30f8:	410787b3          	sub	a5,a5,a6
    30fc:	00f71533          	sll	a0,a4,a5
    3100:	0108d6b3          	srl	a3,a7,a6
    3104:	00f897b3          	sll	a5,a7,a5
    3108:	00d56533          	or	a0,a0,a3
    310c:	00f037b3          	snez	a5,a5
    3110:	01075833          	srl	a6,a4,a6
    3114:	00f56533          	or	a0,a0,a5
    3118:	410585b3          	sub	a1,a1,a6
    311c:	40ae8533          	sub	a0,t4,a0
    3120:	00aeb733          	sltu	a4,t4,a0
    3124:	00050493          	mv	s1,a0
    3128:	40e58933          	sub	s2,a1,a4
    312c:	000f0993          	mv	s3,t5
    3130:	b59ff06f          	j	2c88 <__subdf3+0xd8>
    3134:	fe078693          	add	a3,a5,-32
    3138:	02000613          	li	a2,32
    313c:	00d5d6b3          	srl	a3,a1,a3
    3140:	00c78a63          	beq	a5,a2,3154 <__subdf3+0x5a4>
    3144:	04000613          	li	a2,64
    3148:	40f607b3          	sub	a5,a2,a5
    314c:	00f597b3          	sll	a5,a1,a5
    3150:	00feeeb3          	or	t4,t4,a5
    3154:	01d03533          	snez	a0,t4
    3158:	00d56533          	or	a0,a0,a3
    315c:	b1dff06f          	j	2c78 <__subdf3+0xc8>
    3160:	ff8006b7          	lui	a3,0xff800
    3164:	fff68693          	add	a3,a3,-1 # ff7fffff <MTSSV_BASE+0xff6f8007>
    3168:	40f987b3          	sub	a5,s3,a5
    316c:	00d77733          	and	a4,a4,a3
    3170:	ef9ff06f          	j	3068 <__subdf3+0x4b8>
    3174:	00361513          	sll	a0,a2,0x3
    3178:	00355513          	srl	a0,a0,0x3
    317c:	00058713          	mv	a4,a1
    3180:	cd9ff06f          	j	2e58 <__subdf3+0x2a8>
    3184:	7ff00793          	li	a5,2047
    3188:	def686e3          	beq	a3,a5,2f74 <__subdf3+0x3c4>
    318c:	01d88eb3          	add	t4,a7,t4
    3190:	011eb633          	sltu	a2,t4,a7
    3194:	00b707b3          	add	a5,a4,a1
    3198:	00c787b3          	add	a5,a5,a2
    319c:	01f79513          	sll	a0,a5,0x1f
    31a0:	001ede93          	srl	t4,t4,0x1
    31a4:	01d564b3          	or	s1,a0,t4
    31a8:	0017d913          	srl	s2,a5,0x1
    31ac:	00068993          	mv	s3,a3
    31b0:	b45ff06f          	j	2cf4 <__subdf3+0x144>
    31b4:	411e8633          	sub	a2,t4,a7
    31b8:	40e587b3          	sub	a5,a1,a4
    31bc:	00ceb733          	sltu	a4,t4,a2
    31c0:	00060493          	mv	s1,a2
    31c4:	40e78933          	sub	s2,a5,a4
    31c8:	00068413          	mv	s0,a3
    31cc:	ad1ff06f          	j	2c9c <__subdf3+0xec>
    31d0:	00361613          	sll	a2,a2,0x3
    31d4:	00365513          	srl	a0,a2,0x3
    31d8:	00068413          	mv	s0,a3
    31dc:	00058713          	mv	a4,a1
    31e0:	e39ff06f          	j	3018 <__subdf3+0x468>
    31e4:	e00798e3          	bnez	a5,2ff4 <__subdf3+0x444>
    31e8:	22080663          	beqz	a6,3414 <__subdf3+0x864>
    31ec:	0035d713          	srl	a4,a1,0x3
    31f0:	00361613          	sll	a2,a2,0x3
    31f4:	01d59593          	sll	a1,a1,0x1d
    31f8:	00b76733          	or	a4,a4,a1
    31fc:	00365613          	srl	a2,a2,0x3
    3200:	00c76733          	or	a4,a4,a2
    3204:	00068413          	mv	s0,a3
    3208:	c61ff06f          	j	2e68 <__subdf3+0x2b8>
    320c:	01d88eb3          	add	t4,a7,t4
    3210:	00b705b3          	add	a1,a4,a1
    3214:	011eb633          	sltu	a2,t4,a7
    3218:	00c58933          	add	s2,a1,a2
    321c:	00891793          	sll	a5,s2,0x8
    3220:	000e8493          	mv	s1,t4
    3224:	0a07d863          	bgez	a5,32d4 <__subdf3+0x724>
    3228:	00200993          	li	s3,2
    322c:	bddff06f          	j	2e08 <__subdf3+0x258>
    3230:	41d88eb3          	sub	t4,a7,t4
    3234:	40b705b3          	sub	a1,a4,a1
    3238:	01d8b633          	sltu	a2,a7,t4
    323c:	000e8493          	mv	s1,t4
    3240:	40c58933          	sub	s2,a1,a2
    3244:	00100993          	li	s3,1
    3248:	a41ff06f          	j	2c88 <__subdf3+0xd8>
    324c:	fe078693          	add	a3,a5,-32
    3250:	02000613          	li	a2,32
    3254:	00d5d6b3          	srl	a3,a1,a3
    3258:	00c78a63          	beq	a5,a2,326c <__subdf3+0x6bc>
    325c:	04000613          	li	a2,64
    3260:	40f607b3          	sub	a5,a2,a5
    3264:	00f597b3          	sll	a5,a1,a5
    3268:	00feeeb3          	or	t4,t4,a5
    326c:	01d03933          	snez	s2,t4
    3270:	00d96933          	or	s2,s2,a3
    3274:	b71ff06f          	j	2de4 <__subdf3+0x234>
    3278:	fe080793          	add	a5,a6,-32
    327c:	02000693          	li	a3,32
    3280:	00f757b3          	srl	a5,a4,a5
    3284:	00d80a63          	beq	a6,a3,3298 <__subdf3+0x6e8>
    3288:	04000693          	li	a3,64
    328c:	410686b3          	sub	a3,a3,a6
    3290:	00d71733          	sll	a4,a4,a3
    3294:	00e8e8b3          	or	a7,a7,a4
    3298:	01103533          	snez	a0,a7
    329c:	00f56533          	or	a0,a0,a5
    32a0:	e7dff06f          	j	311c <__subdf3+0x56c>
    32a4:	ec0788e3          	beqz	a5,3174 <__subdf3+0x5c4>
    32a8:	01d5eeb3          	or	t4,a1,t4
    32ac:	bc0e90e3          	bnez	t4,2e6c <__subdf3+0x2bc>
    32b0:	d49ff06f          	j	2ff8 <__subdf3+0x448>
    32b4:	411e8633          	sub	a2,t4,a7
    32b8:	40e585b3          	sub	a1,a1,a4
    32bc:	00ceb733          	sltu	a4,t4,a2
    32c0:	00060493          	mv	s1,a2
    32c4:	40e58933          	sub	s2,a1,a4
    32c8:	00068413          	mv	s0,a3
    32cc:	00100993          	li	s3,1
    32d0:	9b9ff06f          	j	2c88 <__subdf3+0xd8>
    32d4:	00100793          	li	a5,1
    32d8:	d11ff06f          	j	2fe8 <__subdf3+0x438>
    32dc:	dc0800e3          	beqz	a6,309c <__subdf3+0x4ec>
    32e0:	00361613          	sll	a2,a2,0x3
    32e4:	00365793          	srl	a5,a2,0x3
    32e8:	01d59813          	sll	a6,a1,0x1d
    32ec:	00959713          	sll	a4,a1,0x9
    32f0:	00f86833          	or	a6,a6,a5
    32f4:	00c75713          	srl	a4,a4,0xc
    32f8:	00068e13          	mv	t3,a3
    32fc:	00000793          	li	a5,0
    3300:	a55ff06f          	j	2d54 <__subdf3+0x1a4>
    3304:	41d88933          	sub	s2,a7,t4
    3308:	0128b7b3          	sltu	a5,a7,s2
    330c:	40b70633          	sub	a2,a4,a1
    3310:	40f60633          	sub	a2,a2,a5
    3314:	00861793          	sll	a5,a2,0x8
    3318:	0e07d263          	bgez	a5,33fc <__subdf3+0x84c>
    331c:	411e8633          	sub	a2,t4,a7
    3320:	40e58733          	sub	a4,a1,a4
    3324:	00cebeb3          	sltu	t4,t4,a2
    3328:	41d70733          	sub	a4,a4,t4
    332c:	00871793          	sll	a5,a4,0x8
    3330:	00060493          	mv	s1,a2
    3334:	1207de63          	bgez	a5,3470 <__subdf3+0x8c0>
    3338:	ff8007b7          	lui	a5,0xff800
    333c:	fff78793          	add	a5,a5,-1 # ff7fffff <MTSSV_BASE+0xff6f8007>
    3340:	00f77733          	and	a4,a4,a5
    3344:	00068413          	mv	s0,a3
    3348:	00100793          	li	a5,1
    334c:	9f1ff06f          	j	2d3c <__subdf3+0x18c>
    3350:	00361613          	sll	a2,a2,0x3
    3354:	00365513          	srl	a0,a2,0x3
    3358:	00058713          	mv	a4,a1
    335c:	cbdff06f          	j	3018 <__subdf3+0x468>
    3360:	00361613          	sll	a2,a2,0x3
    3364:	00365913          	srl	s2,a2,0x3
    3368:	00058713          	mv	a4,a1
    336c:	cfdff06f          	j	3068 <__subdf3+0x4b8>
    3370:	01d886b3          	add	a3,a7,t4
    3374:	00b707b3          	add	a5,a4,a1
    3378:	0116b633          	sltu	a2,a3,a7
    337c:	00c787b3          	add	a5,a5,a2
    3380:	00879713          	sll	a4,a5,0x8
    3384:	0036d813          	srl	a6,a3,0x3
    3388:	08075e63          	bgez	a4,3424 <__subdf3+0x874>
    338c:	ff800737          	lui	a4,0xff800
    3390:	fff70713          	add	a4,a4,-1 # ff7fffff <MTSSV_BASE+0xff6f8007>
    3394:	00e7f7b3          	and	a5,a5,a4
    3398:	01d79713          	sll	a4,a5,0x1d
    339c:	00979793          	sll	a5,a5,0x9
    33a0:	01076833          	or	a6,a4,a6
    33a4:	00c7d713          	srl	a4,a5,0xc
    33a8:	00100793          	li	a5,1
    33ac:	9a9ff06f          	j	2d54 <__subdf3+0x1a4>
    33b0:	fe068793          	add	a5,a3,-32
    33b4:	02000613          	li	a2,32
    33b8:	00f757b3          	srl	a5,a4,a5
    33bc:	00c68a63          	beq	a3,a2,33d0 <__subdf3+0x820>
    33c0:	04000613          	li	a2,64
    33c4:	40d606b3          	sub	a3,a2,a3
    33c8:	00d71733          	sll	a4,a4,a3
    33cc:	00e8e8b3          	or	a7,a7,a4
    33d0:	01103933          	snez	s2,a7
    33d4:	00f96933          	or	s2,s2,a5
    33d8:	b39ff06f          	j	2f10 <__subdf3+0x360>
    33dc:	0034d513          	srl	a0,s1,0x3
    33e0:	00098793          	mv	a5,s3
    33e4:	00090713          	mv	a4,s2
    33e8:	c31ff06f          	j	3018 <__subdf3+0x468>
    33ec:	02000693          	li	a3,32
    33f0:	40f686b3          	sub	a3,a3,a5
    33f4:	00000613          	li	a2,0
    33f8:	8e9ff06f          	j	2ce0 <__subdf3+0x130>
    33fc:	00c96833          	or	a6,s2,a2
    3400:	c8080ee3          	beqz	a6,309c <__subdf3+0x4ec>
    3404:	00395913          	srl	s2,s2,0x3
    3408:	00000793          	li	a5,0
    340c:	00060713          	mv	a4,a2
    3410:	c59ff06f          	j	3068 <__subdf3+0x4b8>
    3414:	00000e13          	li	t3,0
    3418:	7ff00793          	li	a5,2047
    341c:	00080737          	lui	a4,0x80
    3420:	935ff06f          	j	2d54 <__subdf3+0x1a4>
    3424:	01d79713          	sll	a4,a5,0x1d
    3428:	00979793          	sll	a5,a5,0x9
    342c:	01076833          	or	a6,a4,a6
    3430:	00c7d713          	srl	a4,a5,0xc
    3434:	00000793          	li	a5,0
    3438:	91dff06f          	j	2d54 <__subdf3+0x1a4>
    343c:	ae0786e3          	beqz	a5,2f28 <__subdf3+0x378>
    3440:	413f0833          	sub	a6,t5,s3
    3444:	00080793          	mv	a5,a6
    3448:	c6098ee3          	beqz	s3,30c4 <__subdf3+0x514>
    344c:	03800793          	li	a5,56
    3450:	0107ca63          	blt	a5,a6,3464 <__subdf3+0x8b4>
    3454:	008007b7          	lui	a5,0x800
    3458:	00f76733          	or	a4,a4,a5
    345c:	00068413          	mv	s0,a3
    3460:	c8dff06f          	j	30ec <__subdf3+0x53c>
    3464:	00068413          	mv	s0,a3
    3468:	00100513          	li	a0,1
    346c:	cb1ff06f          	j	311c <__subdf3+0x56c>
    3470:	01d71813          	sll	a6,a4,0x1d
    3474:	00365613          	srl	a2,a2,0x3
    3478:	00c86833          	or	a6,a6,a2
    347c:	00375713          	srl	a4,a4,0x3
    3480:	00000793          	li	a5,0
    3484:	00068413          	mv	s0,a3
    3488:	ba5ff06f          	j	302c <__subdf3+0x47c>
    348c:	ba078ae3          	beqz	a5,3040 <__subdf3+0x490>
    3490:	413f06b3          	sub	a3,t5,s3
    3494:	00099663          	bnez	s3,34a0 <__subdf3+0x8f0>
    3498:	00068793          	mv	a5,a3
    349c:	a21ff06f          	j	2ebc <__subdf3+0x30c>
    34a0:	03800793          	li	a5,56
    34a4:	00100913          	li	s2,1
    34a8:	a6d7c4e3          	blt	a5,a3,2f10 <__subdf3+0x360>
    34ac:	008007b7          	lui	a5,0x800
    34b0:	00f76733          	or	a4,a4,a5
    34b4:	a2dff06f          	j	2ee0 <__subdf3+0x330>

000034b8 <__fixdfsi>:
    34b8:	0145d793          	srl	a5,a1,0x14
    34bc:	001006b7          	lui	a3,0x100
    34c0:	fff68713          	add	a4,a3,-1 # fffff <IMEM_SIZE+0xebfff>
    34c4:	7ff7f793          	and	a5,a5,2047
    34c8:	3fe00613          	li	a2,1022
    34cc:	00b77733          	and	a4,a4,a1
    34d0:	01f5d593          	srl	a1,a1,0x1f
    34d4:	00f65e63          	bge	a2,a5,34f0 <__fixdfsi+0x38>
    34d8:	41d00613          	li	a2,1053
    34dc:	00f65e63          	bge	a2,a5,34f8 <__fixdfsi+0x40>
    34e0:	80000537          	lui	a0,0x80000
    34e4:	fff50513          	add	a0,a0,-1 # 7fffffff <MTSSV_BASE+0x7fef8007>
    34e8:	00a58533          	add	a0,a1,a0
    34ec:	00008067          	ret
    34f0:	00000513          	li	a0,0
    34f4:	00008067          	ret
    34f8:	43300613          	li	a2,1075
    34fc:	40f60633          	sub	a2,a2,a5
    3500:	01f00813          	li	a6,31
    3504:	00d76733          	or	a4,a4,a3
    3508:	02c85063          	bge	a6,a2,3528 <__fixdfsi+0x70>
    350c:	41300693          	li	a3,1043
    3510:	40f687b3          	sub	a5,a3,a5
    3514:	00f75733          	srl	a4,a4,a5
    3518:	40e00533          	neg	a0,a4
    351c:	fc059ce3          	bnez	a1,34f4 <__fixdfsi+0x3c>
    3520:	00070513          	mv	a0,a4
    3524:	00008067          	ret
    3528:	bed78793          	add	a5,a5,-1043 # 7ffbed <MTSSV_BASE+0x6f7bf5>
    352c:	00f71733          	sll	a4,a4,a5
    3530:	00c55533          	srl	a0,a0,a2
    3534:	00a76733          	or	a4,a4,a0
    3538:	fe1ff06f          	j	3518 <__fixdfsi+0x60>

0000353c <__divsf3>:
    353c:	fc010113          	add	sp,sp,-64
    3540:	01755793          	srl	a5,a0,0x17
    3544:	03312623          	sw	s3,44(sp)
    3548:	03512223          	sw	s5,36(sp)
    354c:	02112e23          	sw	ra,60(sp)
    3550:	00951a93          	sll	s5,a0,0x9
    3554:	02812c23          	sw	s0,56(sp)
    3558:	02912a23          	sw	s1,52(sp)
    355c:	03212823          	sw	s2,48(sp)
    3560:	03412423          	sw	s4,40(sp)
    3564:	03612023          	sw	s6,32(sp)
    3568:	01712e23          	sw	s7,28(sp)
    356c:	0ff7f793          	zext.b	a5,a5
    3570:	009ada93          	srl	s5,s5,0x9
    3574:	01f55993          	srl	s3,a0,0x1f
    3578:	12078a63          	beqz	a5,36ac <__divsf3+0x170>
    357c:	0ff00713          	li	a4,255
    3580:	06e78c63          	beq	a5,a4,35f8 <__divsf3+0xbc>
    3584:	003a9a93          	sll	s5,s5,0x3
    3588:	04000737          	lui	a4,0x4000
    358c:	00eaeab3          	or	s5,s5,a4
    3590:	f8178a13          	add	s4,a5,-127
    3594:	00000413          	li	s0,0
    3598:	00000b93          	li	s7,0
    359c:	0175d793          	srl	a5,a1,0x17
    35a0:	00959913          	sll	s2,a1,0x9
    35a4:	0ff7f793          	zext.b	a5,a5
    35a8:	00995913          	srl	s2,s2,0x9
    35ac:	01f5d493          	srl	s1,a1,0x1f
    35b0:	06078863          	beqz	a5,3620 <__divsf3+0xe4>
    35b4:	0ff00713          	li	a4,255
    35b8:	10e78463          	beq	a5,a4,36c0 <__divsf3+0x184>
    35bc:	00391913          	sll	s2,s2,0x3
    35c0:	04000737          	lui	a4,0x4000
    35c4:	00e96933          	or	s2,s2,a4
    35c8:	f8178793          	add	a5,a5,-127
    35cc:	00000693          	li	a3,0
    35d0:	00f00713          	li	a4,15
    35d4:	0099cb33          	xor	s6,s3,s1
    35d8:	40fa0a33          	sub	s4,s4,a5
    35dc:	28876063          	bltu	a4,s0,385c <__divsf3+0x320>
    35e0:	00100737          	lui	a4,0x100
    35e4:	00241413          	sll	s0,s0,0x2
    35e8:	04070713          	add	a4,a4,64 # 100040 <DMEM_BASE+0x40>
    35ec:	00e40433          	add	s0,s0,a4
    35f0:	00042783          	lw	a5,0(s0)
    35f4:	00078067          	jr	a5
    35f8:	140a9a63          	bnez	s5,374c <__divsf3+0x210>
    35fc:	0175d793          	srl	a5,a1,0x17
    3600:	00959913          	sll	s2,a1,0x9
    3604:	0ff7f793          	zext.b	a5,a5
    3608:	00800413          	li	s0,8
    360c:	0ff00a13          	li	s4,255
    3610:	00200b93          	li	s7,2
    3614:	00995913          	srl	s2,s2,0x9
    3618:	01f5d493          	srl	s1,a1,0x1f
    361c:	f8079ce3          	bnez	a5,35b4 <__divsf3+0x78>
    3620:	0c091863          	bnez	s2,36f0 <__divsf3+0x1b4>
    3624:	00146413          	or	s0,s0,1
    3628:	00d00793          	li	a5,13
    362c:	0099cb33          	xor	s6,s3,s1
    3630:	0087ee63          	bltu	a5,s0,364c <__divsf3+0x110>
    3634:	001007b7          	lui	a5,0x100
    3638:	08078793          	add	a5,a5,128 # 100080 <DMEM_BASE+0x80>
    363c:	00241413          	sll	s0,s0,0x2
    3640:	00f40433          	add	s0,s0,a5
    3644:	00042783          	lw	a5,0(s0)
    3648:	00078067          	jr	a5
    364c:	0ff00793          	li	a5,255
    3650:	00000713          	li	a4,0
    3654:	03c12083          	lw	ra,60(sp)
    3658:	03812403          	lw	s0,56(sp)
    365c:	01779513          	sll	a0,a5,0x17
    3660:	01fb1b13          	sll	s6,s6,0x1f
    3664:	00e56533          	or	a0,a0,a4
    3668:	03412483          	lw	s1,52(sp)
    366c:	03012903          	lw	s2,48(sp)
    3670:	02c12983          	lw	s3,44(sp)
    3674:	02812a03          	lw	s4,40(sp)
    3678:	02412a83          	lw	s5,36(sp)
    367c:	01c12b83          	lw	s7,28(sp)
    3680:	01656533          	or	a0,a0,s6
    3684:	02012b03          	lw	s6,32(sp)
    3688:	04010113          	add	sp,sp,64
    368c:	00008067          	ret
    3690:	00300793          	li	a5,3
    3694:	00048513          	mv	a0,s1
    3698:	0ef69a63          	bne	a3,a5,378c <__divsf3+0x250>
    369c:	00000b13          	li	s6,0
    36a0:	0ff00793          	li	a5,255
    36a4:	00400737          	lui	a4,0x400
    36a8:	fadff06f          	j	3654 <__divsf3+0x118>
    36ac:	060a9a63          	bnez	s5,3720 <__divsf3+0x1e4>
    36b0:	00400413          	li	s0,4
    36b4:	00000a13          	li	s4,0
    36b8:	00100b93          	li	s7,1
    36bc:	ee1ff06f          	j	359c <__divsf3+0x60>
    36c0:	04091863          	bnez	s2,3710 <__divsf3+0x1d4>
    36c4:	00246413          	or	s0,s0,2
    36c8:	ffd40413          	add	s0,s0,-3
    36cc:	00b00793          	li	a5,11
    36d0:	0099cb33          	xor	s6,s3,s1
    36d4:	0887e463          	bltu	a5,s0,375c <__divsf3+0x220>
    36d8:	001007b7          	lui	a5,0x100
    36dc:	0b878793          	add	a5,a5,184 # 1000b8 <DMEM_BASE+0xb8>
    36e0:	00241413          	sll	s0,s0,0x2
    36e4:	00f40433          	add	s0,s0,a5
    36e8:	00042783          	lw	a5,0(s0)
    36ec:	00078067          	jr	a5
    36f0:	00090513          	mv	a0,s2
    36f4:	1a1000ef          	jal	4094 <__clzsi2>
    36f8:	ffb50793          	add	a5,a0,-5
    36fc:	00f91933          	sll	s2,s2,a5
    3700:	f8a00793          	li	a5,-118
    3704:	40a787b3          	sub	a5,a5,a0
    3708:	00000693          	li	a3,0
    370c:	ec5ff06f          	j	35d0 <__divsf3+0x94>
    3710:	00346413          	or	s0,s0,3
    3714:	0ff00793          	li	a5,255
    3718:	00300693          	li	a3,3
    371c:	eb5ff06f          	j	35d0 <__divsf3+0x94>
    3720:	000a8513          	mv	a0,s5
    3724:	00b12623          	sw	a1,12(sp)
    3728:	16d000ef          	jal	4094 <__clzsi2>
    372c:	ffb50793          	add	a5,a0,-5
    3730:	00fa9ab3          	sll	s5,s5,a5
    3734:	f8a00793          	li	a5,-118
    3738:	00c12583          	lw	a1,12(sp)
    373c:	40a78a33          	sub	s4,a5,a0
    3740:	00000413          	li	s0,0
    3744:	00000b93          	li	s7,0
    3748:	e55ff06f          	j	359c <__divsf3+0x60>
    374c:	00c00413          	li	s0,12
    3750:	0ff00a13          	li	s4,255
    3754:	00300b93          	li	s7,3
    3758:	e45ff06f          	j	359c <__divsf3+0x60>
    375c:	00000793          	li	a5,0
    3760:	00000713          	li	a4,0
    3764:	ef1ff06f          	j	3654 <__divsf3+0x118>
    3768:	f01a0a13          	add	s4,s4,-255
    376c:	00200793          	li	a5,2
    3770:	00098513          	mv	a0,s3
    3774:	06fb9663          	bne	s7,a5,37e0 <__divsf3+0x2a4>
    3778:	00050b13          	mv	s6,a0
    377c:	0ff00793          	li	a5,255
    3780:	00000713          	li	a4,0
    3784:	ed1ff06f          	j	3654 <__divsf3+0x118>
    3788:	000a8913          	mv	s2,s5
    378c:	00050b13          	mv	s6,a0
    3790:	07fa0793          	add	a5,s4,127
    3794:	06f05663          	blez	a5,3800 <__divsf3+0x2c4>
    3798:	00797713          	and	a4,s2,7
    379c:	00070a63          	beqz	a4,37b0 <__divsf3+0x274>
    37a0:	00f97713          	and	a4,s2,15
    37a4:	00400693          	li	a3,4
    37a8:	00d70463          	beq	a4,a3,37b0 <__divsf3+0x274>
    37ac:	00490913          	add	s2,s2,4
    37b0:	00491713          	sll	a4,s2,0x4
    37b4:	00075a63          	bgez	a4,37c8 <__divsf3+0x28c>
    37b8:	f80007b7          	lui	a5,0xf8000
    37bc:	fff78793          	add	a5,a5,-1 # f7ffffff <MTSSV_BASE+0xf7ef8007>
    37c0:	00f97933          	and	s2,s2,a5
    37c4:	080a0793          	add	a5,s4,128
    37c8:	0fe00713          	li	a4,254
    37cc:	e8f740e3          	blt	a4,a5,364c <__divsf3+0x110>
    37d0:	00691713          	sll	a4,s2,0x6
    37d4:	00975713          	srl	a4,a4,0x9
    37d8:	0ff7f793          	zext.b	a5,a5
    37dc:	e79ff06f          	j	3654 <__divsf3+0x118>
    37e0:	00300793          	li	a5,3
    37e4:	eafb8ce3          	beq	s7,a5,369c <__divsf3+0x160>
    37e8:	00100793          	li	a5,1
    37ec:	f8fb9ee3          	bne	s7,a5,3788 <__divsf3+0x24c>
    37f0:	00050b13          	mv	s6,a0
    37f4:	00000793          	li	a5,0
    37f8:	00000713          	li	a4,0
    37fc:	e59ff06f          	j	3654 <__divsf3+0x118>
    3800:	00100693          	li	a3,1
    3804:	00078c63          	beqz	a5,381c <__divsf3+0x2e0>
    3808:	40f686b3          	sub	a3,a3,a5
    380c:	01b00613          	li	a2,27
    3810:	00000793          	li	a5,0
    3814:	00000713          	li	a4,0
    3818:	e2d64ee3          	blt	a2,a3,3654 <__divsf3+0x118>
    381c:	09ea0793          	add	a5,s4,158
    3820:	00f917b3          	sll	a5,s2,a5
    3824:	00f037b3          	snez	a5,a5
    3828:	00d95933          	srl	s2,s2,a3
    382c:	00f96933          	or	s2,s2,a5
    3830:	00797793          	and	a5,s2,7
    3834:	00078a63          	beqz	a5,3848 <__divsf3+0x30c>
    3838:	00f97793          	and	a5,s2,15
    383c:	00400713          	li	a4,4
    3840:	00e78463          	beq	a5,a4,3848 <__divsf3+0x30c>
    3844:	00490913          	add	s2,s2,4
    3848:	00591793          	sll	a5,s2,0x5
    384c:	1207de63          	bgez	a5,3988 <__divsf3+0x44c>
    3850:	00100793          	li	a5,1
    3854:	00000713          	li	a4,0
    3858:	dfdff06f          	j	3654 <__divsf3+0x118>
    385c:	000104b7          	lui	s1,0x10
    3860:	00591b93          	sll	s7,s2,0x5
    3864:	fe048493          	add	s1,s1,-32 # ffe0 <DMEM_TOTAL_SIZE+0x7fe0>
    3868:	01812c23          	sw	s8,24(sp)
    386c:	010bd993          	srl	s3,s7,0x10
    3870:	009bf4b3          	and	s1,s7,s1
    3874:	0d2af863          	bgeu	s5,s2,3944 <__divsf3+0x408>
    3878:	00098593          	mv	a1,s3
    387c:	000a8513          	mv	a0,s5
    3880:	768000ef          	jal	3fe8 <__hidden___udivsi3>
    3884:	00048593          	mv	a1,s1
    3888:	00050913          	mv	s2,a0
    388c:	730000ef          	jal	3fbc <__mulsi3>
    3890:	000a8c13          	mv	s8,s5
    3894:	fffa0a13          	add	s4,s4,-1
    3898:	00050413          	mv	s0,a0
    389c:	00000a93          	li	s5,0
    38a0:	00098593          	mv	a1,s3
    38a4:	000c0513          	mv	a0,s8
    38a8:	788000ef          	jal	4030 <__umodsi3>
    38ac:	01051793          	sll	a5,a0,0x10
    38b0:	0157e7b3          	or	a5,a5,s5
    38b4:	0087fa63          	bgeu	a5,s0,38c8 <__divsf3+0x38c>
    38b8:	00fb87b3          	add	a5,s7,a5
    38bc:	fff90713          	add	a4,s2,-1
    38c0:	0b77fc63          	bgeu	a5,s7,3978 <__divsf3+0x43c>
    38c4:	00070913          	mv	s2,a4
    38c8:	40878433          	sub	s0,a5,s0
    38cc:	00098593          	mv	a1,s3
    38d0:	00040513          	mv	a0,s0
    38d4:	714000ef          	jal	3fe8 <__hidden___udivsi3>
    38d8:	00048593          	mv	a1,s1
    38dc:	00050493          	mv	s1,a0
    38e0:	6dc000ef          	jal	3fbc <__mulsi3>
    38e4:	00050793          	mv	a5,a0
    38e8:	00098593          	mv	a1,s3
    38ec:	00040513          	mv	a0,s0
    38f0:	00078413          	mv	s0,a5
    38f4:	73c000ef          	jal	4030 <__umodsi3>
    38f8:	01051793          	sll	a5,a0,0x10
    38fc:	0287f663          	bgeu	a5,s0,3928 <__divsf3+0x3ec>
    3900:	01778733          	add	a4,a5,s7
    3904:	00f736b3          	sltu	a3,a4,a5
    3908:	fff48613          	add	a2,s1,-1
    390c:	00070793          	mv	a5,a4
    3910:	00069a63          	bnez	a3,3924 <__divsf3+0x3e8>
    3914:	00877863          	bgeu	a4,s0,3924 <__divsf3+0x3e8>
    3918:	ffe48493          	add	s1,s1,-2
    391c:	017707b3          	add	a5,a4,s7
    3920:	0080006f          	j	3928 <__divsf3+0x3ec>
    3924:	00060493          	mv	s1,a2
    3928:	01091913          	sll	s2,s2,0x10
    392c:	408787b3          	sub	a5,a5,s0
    3930:	00996933          	or	s2,s2,s1
    3934:	00f037b3          	snez	a5,a5
    3938:	01812c03          	lw	s8,24(sp)
    393c:	00f96933          	or	s2,s2,a5
    3940:	e51ff06f          	j	3790 <__divsf3+0x254>
    3944:	001adc13          	srl	s8,s5,0x1
    3948:	00098593          	mv	a1,s3
    394c:	000c0513          	mv	a0,s8
    3950:	698000ef          	jal	3fe8 <__hidden___udivsi3>
    3954:	00048593          	mv	a1,s1
    3958:	00050913          	mv	s2,a0
    395c:	01fa9a93          	sll	s5,s5,0x1f
    3960:	65c000ef          	jal	3fbc <__mulsi3>
    3964:	00050413          	mv	s0,a0
    3968:	010ada93          	srl	s5,s5,0x10
    396c:	f35ff06f          	j	38a0 <__divsf3+0x364>
    3970:	00048513          	mv	a0,s1
    3974:	e7dff06f          	j	37f0 <__divsf3+0x2b4>
    3978:	f487f6e3          	bgeu	a5,s0,38c4 <__divsf3+0x388>
    397c:	ffe90913          	add	s2,s2,-2
    3980:	017787b3          	add	a5,a5,s7
    3984:	f45ff06f          	j	38c8 <__divsf3+0x38c>
    3988:	00691913          	sll	s2,s2,0x6
    398c:	00995713          	srl	a4,s2,0x9
    3990:	00000793          	li	a5,0
    3994:	cc1ff06f          	j	3654 <__divsf3+0x118>
    3998:	00048513          	mv	a0,s1
    399c:	dddff06f          	j	3778 <__divsf3+0x23c>

000039a0 <__mulsf3>:
    39a0:	fd010113          	add	sp,sp,-48
    39a4:	01755793          	srl	a5,a0,0x17
    39a8:	03212023          	sw	s2,32(sp)
    39ac:	01412c23          	sw	s4,24(sp)
    39b0:	02112623          	sw	ra,44(sp)
    39b4:	00951a13          	sll	s4,a0,0x9
    39b8:	02812423          	sw	s0,40(sp)
    39bc:	02912223          	sw	s1,36(sp)
    39c0:	01312e23          	sw	s3,28(sp)
    39c4:	01512a23          	sw	s5,20(sp)
    39c8:	01612823          	sw	s6,16(sp)
    39cc:	0ff7f793          	zext.b	a5,a5
    39d0:	009a5a13          	srl	s4,s4,0x9
    39d4:	01f55913          	srl	s2,a0,0x1f
    39d8:	26078663          	beqz	a5,3c44 <__mulsf3+0x2a4>
    39dc:	0ff00713          	li	a4,255
    39e0:	18e78c63          	beq	a5,a4,3b78 <__mulsf3+0x1d8>
    39e4:	003a1a13          	sll	s4,s4,0x3
    39e8:	04000737          	lui	a4,0x4000
    39ec:	00ea6a33          	or	s4,s4,a4
    39f0:	f8178993          	add	s3,a5,-127
    39f4:	00000493          	li	s1,0
    39f8:	00000b13          	li	s6,0
    39fc:	0175d793          	srl	a5,a1,0x17
    3a00:	00959a93          	sll	s5,a1,0x9
    3a04:	0ff7f793          	zext.b	a5,a5
    3a08:	009ada93          	srl	s5,s5,0x9
    3a0c:	01f5d413          	srl	s0,a1,0x1f
    3a10:	18078863          	beqz	a5,3ba0 <__mulsf3+0x200>
    3a14:	0ff00713          	li	a4,255
    3a18:	20e78063          	beq	a5,a4,3c18 <__mulsf3+0x278>
    3a1c:	003a9a93          	sll	s5,s5,0x3
    3a20:	f8178793          	add	a5,a5,-127
    3a24:	04000737          	lui	a4,0x4000
    3a28:	00eaeab3          	or	s5,s5,a4
    3a2c:	00f989b3          	add	s3,s3,a5
    3a30:	00000693          	li	a3,0
    3a34:	00a00793          	li	a5,10
    3a38:	00198893          	add	a7,s3,1
    3a3c:	1697ce63          	blt	a5,s1,3bb8 <__mulsf3+0x218>
    3a40:	00894533          	xor	a0,s2,s0
    3a44:	00200793          	li	a5,2
    3a48:	00050813          	mv	a6,a0
    3a4c:	2097de63          	bge	a5,s1,3c68 <__mulsf3+0x2c8>
    3a50:	00100713          	li	a4,1
    3a54:	00971733          	sll	a4,a4,s1
    3a58:	53077793          	and	a5,a4,1328
    3a5c:	16079063          	bnez	a5,3bbc <__mulsf3+0x21c>
    3a60:	24077793          	and	a5,a4,576
    3a64:	28079e63          	bnez	a5,3d00 <__mulsf3+0x360>
    3a68:	08877713          	and	a4,a4,136
    3a6c:	28071263          	bnez	a4,3cf0 <__mulsf3+0x350>
    3a70:	00010eb7          	lui	t4,0x10
    3a74:	fffe8713          	add	a4,t4,-1 # ffff <DMEM_TOTAL_SIZE+0x7fff>
    3a78:	00ea77b3          	and	a5,s4,a4
    3a7c:	00eaf733          	and	a4,s5,a4
    3a80:	010a5a13          	srl	s4,s4,0x10
    3a84:	010ada93          	srl	s5,s5,0x10
    3a88:	00078513          	mv	a0,a5
    3a8c:	00070593          	mv	a1,a4
    3a90:	52c000ef          	jal	3fbc <__mulsi3>
    3a94:	00050313          	mv	t1,a0
    3a98:	000a8593          	mv	a1,s5
    3a9c:	00078513          	mv	a0,a5
    3aa0:	51c000ef          	jal	3fbc <__mulsi3>
    3aa4:	00050793          	mv	a5,a0
    3aa8:	00070593          	mv	a1,a4
    3aac:	000a0513          	mv	a0,s4
    3ab0:	50c000ef          	jal	3fbc <__mulsi3>
    3ab4:	00050e13          	mv	t3,a0
    3ab8:	000a8593          	mv	a1,s5
    3abc:	000a0513          	mv	a0,s4
    3ac0:	4fc000ef          	jal	3fbc <__mulsi3>
    3ac4:	01035713          	srl	a4,t1,0x10
    3ac8:	01c787b3          	add	a5,a5,t3
    3acc:	00f70733          	add	a4,a4,a5
    3ad0:	01c77463          	bgeu	a4,t3,3ad8 <__mulsf3+0x138>
    3ad4:	01d50533          	add	a0,a0,t4
    3ad8:	000106b7          	lui	a3,0x10
    3adc:	fff68693          	add	a3,a3,-1 # ffff <DMEM_TOTAL_SIZE+0x7fff>
    3ae0:	00d777b3          	and	a5,a4,a3
    3ae4:	01079793          	sll	a5,a5,0x10
    3ae8:	00d37333          	and	t1,t1,a3
    3aec:	006787b3          	add	a5,a5,t1
    3af0:	01075713          	srl	a4,a4,0x10
    3af4:	00679a13          	sll	s4,a5,0x6
    3af8:	00a70733          	add	a4,a4,a0
    3afc:	01a7d793          	srl	a5,a5,0x1a
    3b00:	00671713          	sll	a4,a4,0x6
    3b04:	01403a33          	snez	s4,s4
    3b08:	00fa6a33          	or	s4,s4,a5
    3b0c:	00471793          	sll	a5,a4,0x4
    3b10:	01476a33          	or	s4,a4,s4
    3b14:	0007da63          	bgez	a5,3b28 <__mulsf3+0x188>
    3b18:	001a5793          	srl	a5,s4,0x1
    3b1c:	001a7a13          	and	s4,s4,1
    3b20:	0147ea33          	or	s4,a5,s4
    3b24:	00088993          	mv	s3,a7
    3b28:	07f98793          	add	a5,s3,127
    3b2c:	1ef05263          	blez	a5,3d10 <__mulsf3+0x370>
    3b30:	007a7713          	and	a4,s4,7
    3b34:	00070a63          	beqz	a4,3b48 <__mulsf3+0x1a8>
    3b38:	00fa7713          	and	a4,s4,15
    3b3c:	00400693          	li	a3,4
    3b40:	00d70463          	beq	a4,a3,3b48 <__mulsf3+0x1a8>
    3b44:	004a0a13          	add	s4,s4,4
    3b48:	004a1713          	sll	a4,s4,0x4
    3b4c:	00075a63          	bgez	a4,3b60 <__mulsf3+0x1c0>
    3b50:	f80007b7          	lui	a5,0xf8000
    3b54:	fff78793          	add	a5,a5,-1 # f7ffffff <MTSSV_BASE+0xf7ef8007>
    3b58:	00fa7a33          	and	s4,s4,a5
    3b5c:	08098793          	add	a5,s3,128
    3b60:	0fe00713          	li	a4,254
    3b64:	22f74663          	blt	a4,a5,3d90 <__mulsf3+0x3f0>
    3b68:	006a1713          	sll	a4,s4,0x6
    3b6c:	00975713          	srl	a4,a4,0x9
    3b70:	0ff7f793          	zext.b	a5,a5
    3b74:	06c0006f          	j	3be0 <__mulsf3+0x240>
    3b78:	160a1463          	bnez	s4,3ce0 <__mulsf3+0x340>
    3b7c:	0175d793          	srl	a5,a1,0x17
    3b80:	00959a93          	sll	s5,a1,0x9
    3b84:	0ff7f793          	zext.b	a5,a5
    3b88:	00800493          	li	s1,8
    3b8c:	0ff00993          	li	s3,255
    3b90:	00200b13          	li	s6,2
    3b94:	009ada93          	srl	s5,s5,0x9
    3b98:	01f5d413          	srl	s0,a1,0x1f
    3b9c:	e6079ce3          	bnez	a5,3a14 <__mulsf3+0x74>
    3ba0:	100a9863          	bnez	s5,3cb0 <__mulsf3+0x310>
    3ba4:	0014e493          	or	s1,s1,1
    3ba8:	00a00793          	li	a5,10
    3bac:	00100693          	li	a3,1
    3bb0:	00198893          	add	a7,s3,1
    3bb4:	e897d6e3          	bge	a5,s1,3a40 <__mulsf3+0xa0>
    3bb8:	00090513          	mv	a0,s2
    3bbc:	00200793          	li	a5,2
    3bc0:	08fb0c63          	beq	s6,a5,3c58 <__mulsf3+0x2b8>
    3bc4:	00300793          	li	a5,3
    3bc8:	12fb0c63          	beq	s6,a5,3d00 <__mulsf3+0x360>
    3bcc:	00100793          	li	a5,1
    3bd0:	00050813          	mv	a6,a0
    3bd4:	1afb1a63          	bne	s6,a5,3d88 <__mulsf3+0x3e8>
    3bd8:	00000793          	li	a5,0
    3bdc:	00000713          	li	a4,0
    3be0:	02c12083          	lw	ra,44(sp)
    3be4:	02812403          	lw	s0,40(sp)
    3be8:	01779513          	sll	a0,a5,0x17
    3bec:	00e56533          	or	a0,a0,a4
    3bf0:	01f81793          	sll	a5,a6,0x1f
    3bf4:	02412483          	lw	s1,36(sp)
    3bf8:	02012903          	lw	s2,32(sp)
    3bfc:	01c12983          	lw	s3,28(sp)
    3c00:	01812a03          	lw	s4,24(sp)
    3c04:	01412a83          	lw	s5,20(sp)
    3c08:	01012b03          	lw	s6,16(sp)
    3c0c:	00f56533          	or	a0,a0,a5
    3c10:	03010113          	add	sp,sp,48
    3c14:	00008067          	ret
    3c18:	0ff98713          	add	a4,s3,255
    3c1c:	0a0a8a63          	beqz	s5,3cd0 <__mulsf3+0x330>
    3c20:	0034e493          	or	s1,s1,3
    3c24:	00a00693          	li	a3,10
    3c28:	10098893          	add	a7,s3,256
    3c2c:	1496c063          	blt	a3,s1,3d6c <__mulsf3+0x3cc>
    3c30:	00894833          	xor	a6,s2,s0
    3c34:	00080513          	mv	a0,a6
    3c38:	00070993          	mv	s3,a4
    3c3c:	00300693          	li	a3,3
    3c40:	e11ff06f          	j	3a50 <__mulsf3+0xb0>
    3c44:	040a1063          	bnez	s4,3c84 <__mulsf3+0x2e4>
    3c48:	00400493          	li	s1,4
    3c4c:	00000993          	li	s3,0
    3c50:	00100b13          	li	s6,1
    3c54:	da9ff06f          	j	39fc <__mulsf3+0x5c>
    3c58:	00050813          	mv	a6,a0
    3c5c:	0ff00793          	li	a5,255
    3c60:	00000713          	li	a4,0
    3c64:	f7dff06f          	j	3be0 <__mulsf3+0x240>
    3c68:	fff48493          	add	s1,s1,-1
    3c6c:	00100713          	li	a4,1
    3c70:	e09760e3          	bltu	a4,s1,3a70 <__mulsf3+0xd0>
    3c74:	fef682e3          	beq	a3,a5,3c58 <__mulsf3+0x2b8>
    3c78:	000a8a13          	mv	s4,s5
    3c7c:	00068b13          	mv	s6,a3
    3c80:	f4dff06f          	j	3bcc <__mulsf3+0x22c>
    3c84:	000a0513          	mv	a0,s4
    3c88:	00b12623          	sw	a1,12(sp)
    3c8c:	408000ef          	jal	4094 <__clzsi2>
    3c90:	ffb50793          	add	a5,a0,-5
    3c94:	00fa1a33          	sll	s4,s4,a5
    3c98:	f8a00793          	li	a5,-118
    3c9c:	00c12583          	lw	a1,12(sp)
    3ca0:	40a789b3          	sub	s3,a5,a0
    3ca4:	00000493          	li	s1,0
    3ca8:	00000b13          	li	s6,0
    3cac:	d51ff06f          	j	39fc <__mulsf3+0x5c>
    3cb0:	000a8513          	mv	a0,s5
    3cb4:	3e0000ef          	jal	4094 <__clzsi2>
    3cb8:	ffb50793          	add	a5,a0,-5
    3cbc:	40a98533          	sub	a0,s3,a0
    3cc0:	00fa9ab3          	sll	s5,s5,a5
    3cc4:	f8a50993          	add	s3,a0,-118
    3cc8:	00000693          	li	a3,0
    3ccc:	d69ff06f          	j	3a34 <__mulsf3+0x94>
    3cd0:	0024e493          	or	s1,s1,2
    3cd4:	00070993          	mv	s3,a4
    3cd8:	00200693          	li	a3,2
    3cdc:	d59ff06f          	j	3a34 <__mulsf3+0x94>
    3ce0:	00c00493          	li	s1,12
    3ce4:	0ff00993          	li	s3,255
    3ce8:	00300b13          	li	s6,3
    3cec:	d11ff06f          	j	39fc <__mulsf3+0x5c>
    3cf0:	000a8a13          	mv	s4,s5
    3cf4:	00068b13          	mv	s6,a3
    3cf8:	00040513          	mv	a0,s0
    3cfc:	ec1ff06f          	j	3bbc <__mulsf3+0x21c>
    3d00:	00000813          	li	a6,0
    3d04:	0ff00793          	li	a5,255
    3d08:	00400737          	lui	a4,0x400
    3d0c:	ed5ff06f          	j	3be0 <__mulsf3+0x240>
    3d10:	00100693          	li	a3,1
    3d14:	00078c63          	beqz	a5,3d2c <__mulsf3+0x38c>
    3d18:	40f686b3          	sub	a3,a3,a5
    3d1c:	01b00613          	li	a2,27
    3d20:	00000793          	li	a5,0
    3d24:	00000713          	li	a4,0
    3d28:	ead64ce3          	blt	a2,a3,3be0 <__mulsf3+0x240>
    3d2c:	09e98713          	add	a4,s3,158
    3d30:	00ea1733          	sll	a4,s4,a4
    3d34:	00e03733          	snez	a4,a4
    3d38:	00da57b3          	srl	a5,s4,a3
    3d3c:	00e7e7b3          	or	a5,a5,a4
    3d40:	0077f713          	and	a4,a5,7
    3d44:	00070a63          	beqz	a4,3d58 <__mulsf3+0x3b8>
    3d48:	00f7f713          	and	a4,a5,15
    3d4c:	00400693          	li	a3,4
    3d50:	00d70463          	beq	a4,a3,3d58 <__mulsf3+0x3b8>
    3d54:	00478793          	add	a5,a5,4
    3d58:	00579713          	sll	a4,a5,0x5
    3d5c:	04075063          	bgez	a4,3d9c <__mulsf3+0x3fc>
    3d60:	00100793          	li	a5,1
    3d64:	00000713          	li	a4,0
    3d68:	e79ff06f          	j	3be0 <__mulsf3+0x240>
    3d6c:	00f00693          	li	a3,15
    3d70:	00000813          	li	a6,0
    3d74:	00400737          	lui	a4,0x400
    3d78:	000a8a13          	mv	s4,s5
    3d7c:	00300b13          	li	s6,3
    3d80:	e6d480e3          	beq	s1,a3,3be0 <__mulsf3+0x240>
    3d84:	f75ff06f          	j	3cf8 <__mulsf3+0x358>
    3d88:	00088993          	mv	s3,a7
    3d8c:	d9dff06f          	j	3b28 <__mulsf3+0x188>
    3d90:	0ff00793          	li	a5,255
    3d94:	00000713          	li	a4,0
    3d98:	e49ff06f          	j	3be0 <__mulsf3+0x240>
    3d9c:	00679793          	sll	a5,a5,0x6
    3da0:	0097d713          	srl	a4,a5,0x9
    3da4:	00000793          	li	a5,0
    3da8:	e39ff06f          	j	3be0 <__mulsf3+0x240>

00003dac <__floatsisf>:
    3dac:	ff010113          	add	sp,sp,-16
    3db0:	00112623          	sw	ra,12(sp)
    3db4:	00812423          	sw	s0,8(sp)
    3db8:	00912223          	sw	s1,4(sp)
    3dbc:	04050863          	beqz	a0,3e0c <__floatsisf+0x60>
    3dc0:	41f55713          	sra	a4,a0,0x1f
    3dc4:	00a74433          	xor	s0,a4,a0
    3dc8:	40e40433          	sub	s0,s0,a4
    3dcc:	00050793          	mv	a5,a0
    3dd0:	00040513          	mv	a0,s0
    3dd4:	01f7d493          	srl	s1,a5,0x1f
    3dd8:	2bc000ef          	jal	4094 <__clzsi2>
    3ddc:	09e00793          	li	a5,158
    3de0:	40a787b3          	sub	a5,a5,a0
    3de4:	09600713          	li	a4,150
    3de8:	04f74a63          	blt	a4,a5,3e3c <__floatsisf+0x90>
    3dec:	00800713          	li	a4,8
    3df0:	0ce50263          	beq	a0,a4,3eb4 <__floatsisf+0x108>
    3df4:	ff850513          	add	a0,a0,-8
    3df8:	00a41433          	sll	s0,s0,a0
    3dfc:	00941413          	sll	s0,s0,0x9
    3e00:	00945413          	srl	s0,s0,0x9
    3e04:	0ff7f793          	zext.b	a5,a5
    3e08:	0100006f          	j	3e18 <__floatsisf+0x6c>
    3e0c:	00000493          	li	s1,0
    3e10:	00000793          	li	a5,0
    3e14:	00000413          	li	s0,0
    3e18:	01779793          	sll	a5,a5,0x17
    3e1c:	00c12083          	lw	ra,12(sp)
    3e20:	0087e7b3          	or	a5,a5,s0
    3e24:	00812403          	lw	s0,8(sp)
    3e28:	01f49513          	sll	a0,s1,0x1f
    3e2c:	00a7e533          	or	a0,a5,a0
    3e30:	00412483          	lw	s1,4(sp)
    3e34:	01010113          	add	sp,sp,16
    3e38:	00008067          	ret
    3e3c:	09900713          	li	a4,153
    3e40:	04f74a63          	blt	a4,a5,3e94 <__floatsisf+0xe8>
    3e44:	ffb50713          	add	a4,a0,-5
    3e48:	00e41733          	sll	a4,s0,a4
    3e4c:	fc0006b7          	lui	a3,0xfc000
    3e50:	fff68693          	add	a3,a3,-1 # fbffffff <MTSSV_BASE+0xfbef8007>
    3e54:	00777613          	and	a2,a4,7
    3e58:	00d77433          	and	s0,a4,a3
    3e5c:	02060463          	beqz	a2,3e84 <__floatsisf+0xd8>
    3e60:	00f77713          	and	a4,a4,15
    3e64:	00400613          	li	a2,4
    3e68:	00c70e63          	beq	a4,a2,3e84 <__floatsisf+0xd8>
    3e6c:	00440413          	add	s0,s0,4
    3e70:	00541713          	sll	a4,s0,0x5
    3e74:	00075863          	bgez	a4,3e84 <__floatsisf+0xd8>
    3e78:	09f00793          	li	a5,159
    3e7c:	00d47433          	and	s0,s0,a3
    3e80:	40a787b3          	sub	a5,a5,a0
    3e84:	00641413          	sll	s0,s0,0x6
    3e88:	00945413          	srl	s0,s0,0x9
    3e8c:	0ff7f793          	zext.b	a5,a5
    3e90:	f89ff06f          	j	3e18 <__floatsisf+0x6c>
    3e94:	01b50713          	add	a4,a0,27
    3e98:	00500693          	li	a3,5
    3e9c:	00e41733          	sll	a4,s0,a4
    3ea0:	40a686b3          	sub	a3,a3,a0
    3ea4:	00d45433          	srl	s0,s0,a3
    3ea8:	00e03733          	snez	a4,a4
    3eac:	00e46733          	or	a4,s0,a4
    3eb0:	f9dff06f          	j	3e4c <__floatsisf+0xa0>
    3eb4:	00941413          	sll	s0,s0,0x9
    3eb8:	00945413          	srl	s0,s0,0x9
    3ebc:	09600793          	li	a5,150
    3ec0:	f59ff06f          	j	3e18 <__floatsisf+0x6c>

00003ec4 <__extendsfdf2>:
    3ec4:	01755793          	srl	a5,a0,0x17
    3ec8:	0ff7f793          	zext.b	a5,a5
    3ecc:	ff010113          	add	sp,sp,-16
    3ed0:	00178713          	add	a4,a5,1
    3ed4:	00812423          	sw	s0,8(sp)
    3ed8:	00912223          	sw	s1,4(sp)
    3edc:	00112623          	sw	ra,12(sp)
    3ee0:	00951493          	sll	s1,a0,0x9
    3ee4:	0fe77713          	and	a4,a4,254
    3ee8:	0094d493          	srl	s1,s1,0x9
    3eec:	01f55413          	srl	s0,a0,0x1f
    3ef0:	02070e63          	beqz	a4,3f2c <__extendsfdf2+0x68>
    3ef4:	0034d713          	srl	a4,s1,0x3
    3ef8:	38078793          	add	a5,a5,896
    3efc:	01d49493          	sll	s1,s1,0x1d
    3f00:	01f41513          	sll	a0,s0,0x1f
    3f04:	00c12083          	lw	ra,12(sp)
    3f08:	00812403          	lw	s0,8(sp)
    3f0c:	01479793          	sll	a5,a5,0x14
    3f10:	00e7e7b3          	or	a5,a5,a4
    3f14:	00a7e7b3          	or	a5,a5,a0
    3f18:	00078593          	mv	a1,a5
    3f1c:	00048513          	mv	a0,s1
    3f20:	00412483          	lw	s1,4(sp)
    3f24:	01010113          	add	sp,sp,16
    3f28:	00008067          	ret
    3f2c:	04079263          	bnez	a5,3f70 <__extendsfdf2+0xac>
    3f30:	06048263          	beqz	s1,3f94 <__extendsfdf2+0xd0>
    3f34:	00048513          	mv	a0,s1
    3f38:	15c000ef          	jal	4094 <__clzsi2>
    3f3c:	00a00793          	li	a5,10
    3f40:	06a7c663          	blt	a5,a0,3fac <__extendsfdf2+0xe8>
    3f44:	00b00713          	li	a4,11
    3f48:	40a70733          	sub	a4,a4,a0
    3f4c:	01550793          	add	a5,a0,21
    3f50:	00e4d733          	srl	a4,s1,a4
    3f54:	00f494b3          	sll	s1,s1,a5
    3f58:	38900793          	li	a5,905
    3f5c:	00c71713          	sll	a4,a4,0xc
    3f60:	40a787b3          	sub	a5,a5,a0
    3f64:	00c75713          	srl	a4,a4,0xc
    3f68:	7ff7f793          	and	a5,a5,2047
    3f6c:	f95ff06f          	j	3f00 <__extendsfdf2+0x3c>
    3f70:	02048863          	beqz	s1,3fa0 <__extendsfdf2+0xdc>
    3f74:	0034d713          	srl	a4,s1,0x3
    3f78:	000807b7          	lui	a5,0x80
    3f7c:	00f76733          	or	a4,a4,a5
    3f80:	00c71713          	sll	a4,a4,0xc
    3f84:	01d49493          	sll	s1,s1,0x1d
    3f88:	00c75713          	srl	a4,a4,0xc
    3f8c:	7ff00793          	li	a5,2047
    3f90:	f71ff06f          	j	3f00 <__extendsfdf2+0x3c>
    3f94:	00000793          	li	a5,0
    3f98:	00000713          	li	a4,0
    3f9c:	f65ff06f          	j	3f00 <__extendsfdf2+0x3c>
    3fa0:	7ff00793          	li	a5,2047
    3fa4:	00000713          	li	a4,0
    3fa8:	f59ff06f          	j	3f00 <__extendsfdf2+0x3c>
    3fac:	ff550713          	add	a4,a0,-11
    3fb0:	00e49733          	sll	a4,s1,a4
    3fb4:	00000493          	li	s1,0
    3fb8:	fa1ff06f          	j	3f58 <__extendsfdf2+0x94>

00003fbc <__mulsi3>:
    3fbc:	00050613          	mv	a2,a0
    3fc0:	00000513          	li	a0,0
    3fc4:	0015f693          	and	a3,a1,1
    3fc8:	00068463          	beqz	a3,3fd0 <__mulsi3+0x14>
    3fcc:	00c50533          	add	a0,a0,a2
    3fd0:	0015d593          	srl	a1,a1,0x1
    3fd4:	00161613          	sll	a2,a2,0x1
    3fd8:	fe0596e3          	bnez	a1,3fc4 <__mulsi3+0x8>
    3fdc:	00008067          	ret

00003fe0 <__divsi3>:
    3fe0:	06054063          	bltz	a0,4040 <__umodsi3+0x10>
    3fe4:	0605c663          	bltz	a1,4050 <__umodsi3+0x20>

00003fe8 <__hidden___udivsi3>:
    3fe8:	00058613          	mv	a2,a1
    3fec:	00050593          	mv	a1,a0
    3ff0:	fff00513          	li	a0,-1
    3ff4:	02060c63          	beqz	a2,402c <__hidden___udivsi3+0x44>
    3ff8:	00100693          	li	a3,1
    3ffc:	00b67a63          	bgeu	a2,a1,4010 <__hidden___udivsi3+0x28>
    4000:	00c05863          	blez	a2,4010 <__hidden___udivsi3+0x28>
    4004:	00161613          	sll	a2,a2,0x1
    4008:	00169693          	sll	a3,a3,0x1
    400c:	feb66ae3          	bltu	a2,a1,4000 <__hidden___udivsi3+0x18>
    4010:	00000513          	li	a0,0
    4014:	00c5e663          	bltu	a1,a2,4020 <__hidden___udivsi3+0x38>
    4018:	40c585b3          	sub	a1,a1,a2
    401c:	00d56533          	or	a0,a0,a3
    4020:	0016d693          	srl	a3,a3,0x1
    4024:	00165613          	srl	a2,a2,0x1
    4028:	fe0696e3          	bnez	a3,4014 <__hidden___udivsi3+0x2c>
    402c:	00008067          	ret

00004030 <__umodsi3>:
    4030:	00008293          	mv	t0,ra
    4034:	fb5ff0ef          	jal	3fe8 <__hidden___udivsi3>
    4038:	00058513          	mv	a0,a1
    403c:	00028067          	jr	t0
    4040:	40a00533          	neg	a0,a0
    4044:	00b04863          	bgtz	a1,4054 <__umodsi3+0x24>
    4048:	40b005b3          	neg	a1,a1
    404c:	f9dff06f          	j	3fe8 <__hidden___udivsi3>
    4050:	40b005b3          	neg	a1,a1
    4054:	00008293          	mv	t0,ra
    4058:	f91ff0ef          	jal	3fe8 <__hidden___udivsi3>
    405c:	40a00533          	neg	a0,a0
    4060:	00028067          	jr	t0

00004064 <__modsi3>:
    4064:	00008293          	mv	t0,ra
    4068:	0005ca63          	bltz	a1,407c <__modsi3+0x18>
    406c:	00054c63          	bltz	a0,4084 <__modsi3+0x20>
    4070:	f79ff0ef          	jal	3fe8 <__hidden___udivsi3>
    4074:	00058513          	mv	a0,a1
    4078:	00028067          	jr	t0
    407c:	40b005b3          	neg	a1,a1
    4080:	fe0558e3          	bgez	a0,4070 <__modsi3+0xc>
    4084:	40a00533          	neg	a0,a0
    4088:	f61ff0ef          	jal	3fe8 <__hidden___udivsi3>
    408c:	40b00533          	neg	a0,a1
    4090:	00028067          	jr	t0

00004094 <__clzsi2>:
    4094:	000107b7          	lui	a5,0x10
    4098:	02f57a63          	bgeu	a0,a5,40cc <__clzsi2+0x38>
    409c:	10053713          	sltiu	a4,a0,256
    40a0:	00173713          	seqz	a4,a4
    40a4:	00371713          	sll	a4,a4,0x3
    40a8:	001007b7          	lui	a5,0x100
    40ac:	00e55533          	srl	a0,a0,a4
    40b0:	0e878793          	add	a5,a5,232 # 1000e8 <__clz_tab>
    40b4:	00a787b3          	add	a5,a5,a0
    40b8:	0007c503          	lbu	a0,0(a5)
    40bc:	02000693          	li	a3,32
    40c0:	40e686b3          	sub	a3,a3,a4
    40c4:	40a68533          	sub	a0,a3,a0
    40c8:	00008067          	ret
    40cc:	010007b7          	lui	a5,0x1000
    40d0:	02f57463          	bgeu	a0,a5,40f8 <__clzsi2+0x64>
    40d4:	01000713          	li	a4,16
    40d8:	001007b7          	lui	a5,0x100
    40dc:	00e55533          	srl	a0,a0,a4
    40e0:	0e878793          	add	a5,a5,232 # 1000e8 <__clz_tab>
    40e4:	00a787b3          	add	a5,a5,a0
    40e8:	0007c503          	lbu	a0,0(a5)
    40ec:	01000693          	li	a3,16
    40f0:	40a68533          	sub	a0,a3,a0
    40f4:	00008067          	ret
    40f8:	01800713          	li	a4,24
    40fc:	001007b7          	lui	a5,0x100
    4100:	00e55533          	srl	a0,a0,a4
    4104:	0e878793          	add	a5,a5,232 # 1000e8 <__clz_tab>
    4108:	00a787b3          	add	a5,a5,a0
    410c:	0007c503          	lbu	a0,0(a5)
    4110:	00800693          	li	a3,8
    4114:	40a68533          	sub	a0,a3,a0
    4118:	00008067          	ret

0000411c <__libc_init_array>:
    411c:	ff010113          	add	sp,sp,-16
    4120:	00812423          	sw	s0,8(sp)
    4124:	01212023          	sw	s2,0(sp)
    4128:	000fc797          	auipc	a5,0xfc
    412c:	ed878793          	add	a5,a5,-296 # 100000 <DMEM_BASE>
    4130:	000fc417          	auipc	s0,0xfc
    4134:	ed040413          	add	s0,s0,-304 # 100000 <DMEM_BASE>
    4138:	00112623          	sw	ra,12(sp)
    413c:	00912223          	sw	s1,4(sp)
    4140:	40878933          	sub	s2,a5,s0
    4144:	02878063          	beq	a5,s0,4164 <__libc_init_array+0x48>
    4148:	40295913          	sra	s2,s2,0x2
    414c:	00000493          	li	s1,0
    4150:	00042783          	lw	a5,0(s0)
    4154:	00148493          	add	s1,s1,1
    4158:	00440413          	add	s0,s0,4
    415c:	000780e7          	jalr	a5
    4160:	ff24e8e3          	bltu	s1,s2,4150 <__libc_init_array+0x34>
    4164:	000fc797          	auipc	a5,0xfc
    4168:	e9c78793          	add	a5,a5,-356 # 100000 <DMEM_BASE>
    416c:	000fc417          	auipc	s0,0xfc
    4170:	e9440413          	add	s0,s0,-364 # 100000 <DMEM_BASE>
    4174:	40878933          	sub	s2,a5,s0
    4178:	40295913          	sra	s2,s2,0x2
    417c:	00878e63          	beq	a5,s0,4198 <__libc_init_array+0x7c>
    4180:	00000493          	li	s1,0
    4184:	00042783          	lw	a5,0(s0)
    4188:	00148493          	add	s1,s1,1
    418c:	00440413          	add	s0,s0,4
    4190:	000780e7          	jalr	a5
    4194:	ff24e8e3          	bltu	s1,s2,4184 <__libc_init_array+0x68>
    4198:	00c12083          	lw	ra,12(sp)
    419c:	00812403          	lw	s0,8(sp)
    41a0:	00412483          	lw	s1,4(sp)
    41a4:	00012903          	lw	s2,0(sp)
    41a8:	01010113          	add	sp,sp,16
    41ac:	00008067          	ret

000041b0 <memmove>:
    41b0:	02a5f663          	bgeu	a1,a0,41dc <memmove+0x2c>
    41b4:	00c58733          	add	a4,a1,a2
    41b8:	02e57263          	bgeu	a0,a4,41dc <memmove+0x2c>
    41bc:	00c507b3          	add	a5,a0,a2
    41c0:	04060663          	beqz	a2,420c <memmove+0x5c>
    41c4:	fff74683          	lbu	a3,-1(a4) # 3fffff <MTSSV_BASE+0x2f8007>
    41c8:	fff78793          	add	a5,a5,-1
    41cc:	fff70713          	add	a4,a4,-1
    41d0:	00d78023          	sb	a3,0(a5)
    41d4:	fef518e3          	bne	a0,a5,41c4 <memmove+0x14>
    41d8:	00008067          	ret
    41dc:	00f00793          	li	a5,15
    41e0:	02c7e863          	bltu	a5,a2,4210 <memmove+0x60>
    41e4:	00050793          	mv	a5,a0
    41e8:	fff60693          	add	a3,a2,-1
    41ec:	0c060263          	beqz	a2,42b0 <memmove+0x100>
    41f0:	00168693          	add	a3,a3,1
    41f4:	00d786b3          	add	a3,a5,a3
    41f8:	0005c703          	lbu	a4,0(a1)
    41fc:	00178793          	add	a5,a5,1
    4200:	00158593          	add	a1,a1,1
    4204:	fee78fa3          	sb	a4,-1(a5)
    4208:	fed798e3          	bne	a5,a3,41f8 <memmove+0x48>
    420c:	00008067          	ret
    4210:	00b567b3          	or	a5,a0,a1
    4214:	0037f793          	and	a5,a5,3
    4218:	08079663          	bnez	a5,42a4 <memmove+0xf4>
    421c:	ff060893          	add	a7,a2,-16
    4220:	ff08f893          	and	a7,a7,-16
    4224:	01088893          	add	a7,a7,16 # 7fe00010 <MTSSV_BASE+0x7fcf8018>
    4228:	011506b3          	add	a3,a0,a7
    422c:	00058713          	mv	a4,a1
    4230:	00050793          	mv	a5,a0
    4234:	00072803          	lw	a6,0(a4)
    4238:	01070713          	add	a4,a4,16
    423c:	01078793          	add	a5,a5,16
    4240:	ff07a823          	sw	a6,-16(a5)
    4244:	ff472803          	lw	a6,-12(a4)
    4248:	ff07aa23          	sw	a6,-12(a5)
    424c:	ff872803          	lw	a6,-8(a4)
    4250:	ff07ac23          	sw	a6,-8(a5)
    4254:	ffc72803          	lw	a6,-4(a4)
    4258:	ff07ae23          	sw	a6,-4(a5)
    425c:	fcd79ce3          	bne	a5,a3,4234 <memmove+0x84>
    4260:	00c67813          	and	a6,a2,12
    4264:	011585b3          	add	a1,a1,a7
    4268:	00f67713          	and	a4,a2,15
    426c:	04080463          	beqz	a6,42b4 <memmove+0x104>
    4270:	ffc70813          	add	a6,a4,-4
    4274:	ffc87813          	and	a6,a6,-4
    4278:	00480813          	add	a6,a6,4
    427c:	010687b3          	add	a5,a3,a6
    4280:	00058713          	mv	a4,a1
    4284:	00072883          	lw	a7,0(a4)
    4288:	00468693          	add	a3,a3,4
    428c:	00470713          	add	a4,a4,4
    4290:	ff16ae23          	sw	a7,-4(a3)
    4294:	fef698e3          	bne	a3,a5,4284 <memmove+0xd4>
    4298:	00367613          	and	a2,a2,3
    429c:	010585b3          	add	a1,a1,a6
    42a0:	f49ff06f          	j	41e8 <memmove+0x38>
    42a4:	fff60693          	add	a3,a2,-1
    42a8:	00050793          	mv	a5,a0
    42ac:	f45ff06f          	j	41f0 <memmove+0x40>
    42b0:	00008067          	ret
    42b4:	00070613          	mv	a2,a4
    42b8:	f31ff06f          	j	41e8 <memmove+0x38>

000042bc <memset>:
    42bc:	00f00313          	li	t1,15
    42c0:	00050713          	mv	a4,a0
    42c4:	02c37e63          	bgeu	t1,a2,4300 <memset+0x44>
    42c8:	00f77793          	and	a5,a4,15
    42cc:	0a079063          	bnez	a5,436c <memset+0xb0>
    42d0:	08059263          	bnez	a1,4354 <memset+0x98>
    42d4:	ff067693          	and	a3,a2,-16
    42d8:	00f67613          	and	a2,a2,15
    42dc:	00e686b3          	add	a3,a3,a4
    42e0:	00b72023          	sw	a1,0(a4)
    42e4:	00b72223          	sw	a1,4(a4)
    42e8:	00b72423          	sw	a1,8(a4)
    42ec:	00b72623          	sw	a1,12(a4)
    42f0:	01070713          	add	a4,a4,16
    42f4:	fed766e3          	bltu	a4,a3,42e0 <memset+0x24>
    42f8:	00061463          	bnez	a2,4300 <memset+0x44>
    42fc:	00008067          	ret
    4300:	40c306b3          	sub	a3,t1,a2
    4304:	00269693          	sll	a3,a3,0x2
    4308:	00000297          	auipc	t0,0x0
    430c:	005686b3          	add	a3,a3,t0
    4310:	00c68067          	jr	12(a3)
    4314:	00b70723          	sb	a1,14(a4)
    4318:	00b706a3          	sb	a1,13(a4)
    431c:	00b70623          	sb	a1,12(a4)
    4320:	00b705a3          	sb	a1,11(a4)
    4324:	00b70523          	sb	a1,10(a4)
    4328:	00b704a3          	sb	a1,9(a4)
    432c:	00b70423          	sb	a1,8(a4)
    4330:	00b703a3          	sb	a1,7(a4)
    4334:	00b70323          	sb	a1,6(a4)
    4338:	00b702a3          	sb	a1,5(a4)
    433c:	00b70223          	sb	a1,4(a4)
    4340:	00b701a3          	sb	a1,3(a4)
    4344:	00b70123          	sb	a1,2(a4)
    4348:	00b700a3          	sb	a1,1(a4)
    434c:	00b70023          	sb	a1,0(a4)
    4350:	00008067          	ret
    4354:	0ff5f593          	zext.b	a1,a1
    4358:	00859693          	sll	a3,a1,0x8
    435c:	00d5e5b3          	or	a1,a1,a3
    4360:	01059693          	sll	a3,a1,0x10
    4364:	00d5e5b3          	or	a1,a1,a3
    4368:	f6dff06f          	j	42d4 <memset+0x18>
    436c:	00279693          	sll	a3,a5,0x2
    4370:	00000297          	auipc	t0,0x0
    4374:	005686b3          	add	a3,a3,t0
    4378:	00008293          	mv	t0,ra
    437c:	fa0680e7          	jalr	-96(a3)
    4380:	00028093          	mv	ra,t0
    4384:	ff078793          	add	a5,a5,-16
    4388:	40f70733          	sub	a4,a4,a5
    438c:	00f60633          	add	a2,a2,a5
    4390:	f6c378e3          	bgeu	t1,a2,4300 <memset+0x44>
    4394:	f3dff06f          	j	42d0 <memset+0x14>

00004398 <memcpy>:
    4398:	00a5c7b3          	xor	a5,a1,a0
    439c:	0037f793          	and	a5,a5,3
    43a0:	00c508b3          	add	a7,a0,a2
    43a4:	06079463          	bnez	a5,440c <memcpy+0x74>
    43a8:	00300793          	li	a5,3
    43ac:	06c7f063          	bgeu	a5,a2,440c <memcpy+0x74>
    43b0:	00357793          	and	a5,a0,3
    43b4:	00050713          	mv	a4,a0
    43b8:	06079a63          	bnez	a5,442c <memcpy+0x94>
    43bc:	ffc8f613          	and	a2,a7,-4
    43c0:	40e606b3          	sub	a3,a2,a4
    43c4:	02000793          	li	a5,32
    43c8:	08d7ce63          	blt	a5,a3,4464 <memcpy+0xcc>
    43cc:	00058693          	mv	a3,a1
    43d0:	00070793          	mv	a5,a4
    43d4:	02c77863          	bgeu	a4,a2,4404 <memcpy+0x6c>
    43d8:	0006a803          	lw	a6,0(a3)
    43dc:	00478793          	add	a5,a5,4
    43e0:	00468693          	add	a3,a3,4
    43e4:	ff07ae23          	sw	a6,-4(a5)
    43e8:	fec7e8e3          	bltu	a5,a2,43d8 <memcpy+0x40>
    43ec:	fff60793          	add	a5,a2,-1
    43f0:	40e787b3          	sub	a5,a5,a4
    43f4:	ffc7f793          	and	a5,a5,-4
    43f8:	00478793          	add	a5,a5,4
    43fc:	00f70733          	add	a4,a4,a5
    4400:	00f585b3          	add	a1,a1,a5
    4404:	01176863          	bltu	a4,a7,4414 <memcpy+0x7c>
    4408:	00008067          	ret
    440c:	00050713          	mv	a4,a0
    4410:	05157863          	bgeu	a0,a7,4460 <memcpy+0xc8>
    4414:	0005c783          	lbu	a5,0(a1)
    4418:	00170713          	add	a4,a4,1
    441c:	00158593          	add	a1,a1,1
    4420:	fef70fa3          	sb	a5,-1(a4)
    4424:	fee898e3          	bne	a7,a4,4414 <memcpy+0x7c>
    4428:	00008067          	ret
    442c:	0005c683          	lbu	a3,0(a1)
    4430:	00170713          	add	a4,a4,1
    4434:	00377793          	and	a5,a4,3
    4438:	fed70fa3          	sb	a3,-1(a4)
    443c:	00158593          	add	a1,a1,1
    4440:	f6078ee3          	beqz	a5,43bc <memcpy+0x24>
    4444:	0005c683          	lbu	a3,0(a1)
    4448:	00170713          	add	a4,a4,1
    444c:	00377793          	and	a5,a4,3
    4450:	fed70fa3          	sb	a3,-1(a4)
    4454:	00158593          	add	a1,a1,1
    4458:	fc079ae3          	bnez	a5,442c <memcpy+0x94>
    445c:	f61ff06f          	j	43bc <memcpy+0x24>
    4460:	00008067          	ret
    4464:	ff010113          	add	sp,sp,-16
    4468:	00812623          	sw	s0,12(sp)
    446c:	02000413          	li	s0,32
    4470:	0005a383          	lw	t2,0(a1)
    4474:	0045a283          	lw	t0,4(a1)
    4478:	0085af83          	lw	t6,8(a1)
    447c:	00c5af03          	lw	t5,12(a1)
    4480:	0105ae83          	lw	t4,16(a1)
    4484:	0145ae03          	lw	t3,20(a1)
    4488:	0185a303          	lw	t1,24(a1)
    448c:	01c5a803          	lw	a6,28(a1)
    4490:	0205a683          	lw	a3,32(a1)
    4494:	02470713          	add	a4,a4,36
    4498:	40e607b3          	sub	a5,a2,a4
    449c:	fc772e23          	sw	t2,-36(a4)
    44a0:	fe572023          	sw	t0,-32(a4)
    44a4:	fff72223          	sw	t6,-28(a4)
    44a8:	ffe72423          	sw	t5,-24(a4)
    44ac:	ffd72623          	sw	t4,-20(a4)
    44b0:	ffc72823          	sw	t3,-16(a4)
    44b4:	fe672a23          	sw	t1,-12(a4)
    44b8:	ff072c23          	sw	a6,-8(a4)
    44bc:	fed72e23          	sw	a3,-4(a4)
    44c0:	02458593          	add	a1,a1,36
    44c4:	faf446e3          	blt	s0,a5,4470 <memcpy+0xd8>
    44c8:	00058693          	mv	a3,a1
    44cc:	00070793          	mv	a5,a4
    44d0:	02c77863          	bgeu	a4,a2,4500 <memcpy+0x168>
    44d4:	0006a803          	lw	a6,0(a3)
    44d8:	00478793          	add	a5,a5,4
    44dc:	00468693          	add	a3,a3,4
    44e0:	ff07ae23          	sw	a6,-4(a5)
    44e4:	fec7e8e3          	bltu	a5,a2,44d4 <memcpy+0x13c>
    44e8:	fff60793          	add	a5,a2,-1
    44ec:	40e787b3          	sub	a5,a5,a4
    44f0:	ffc7f793          	and	a5,a5,-4
    44f4:	00478793          	add	a5,a5,4
    44f8:	00f70733          	add	a4,a4,a5
    44fc:	00f585b3          	add	a1,a1,a5
    4500:	01176863          	bltu	a4,a7,4510 <memcpy+0x178>
    4504:	00c12403          	lw	s0,12(sp)
    4508:	01010113          	add	sp,sp,16
    450c:	00008067          	ret
    4510:	0005c783          	lbu	a5,0(a1)
    4514:	00170713          	add	a4,a4,1
    4518:	00158593          	add	a1,a1,1
    451c:	fef70fa3          	sb	a5,-1(a4)
    4520:	fee882e3          	beq	a7,a4,4504 <memcpy+0x16c>
    4524:	0005c783          	lbu	a5,0(a1)
    4528:	00170713          	add	a4,a4,1
    452c:	00158593          	add	a1,a1,1
    4530:	fef70fa3          	sb	a5,-1(a4)
    4534:	fce89ee3          	bne	a7,a4,4510 <memcpy+0x178>
    4538:	fcdff06f          	j	4504 <memcpy+0x16c>

0000453c <strcmp>:
    453c:	00b56733          	or	a4,a0,a1
    4540:	fff00393          	li	t2,-1
    4544:	00377713          	and	a4,a4,3
    4548:	10071063          	bnez	a4,4648 <strcmp+0x10c>
    454c:	7f7f87b7          	lui	a5,0x7f7f8
    4550:	f7f78793          	add	a5,a5,-129 # 7f7f7f7f <MTSSV_BASE+0x7f6eff87>
    4554:	00052603          	lw	a2,0(a0)
    4558:	0005a683          	lw	a3,0(a1)
    455c:	00f672b3          	and	t0,a2,a5
    4560:	00f66333          	or	t1,a2,a5
    4564:	00f282b3          	add	t0,t0,a5
    4568:	0062e2b3          	or	t0,t0,t1
    456c:	10729263          	bne	t0,t2,4670 <strcmp+0x134>
    4570:	08d61663          	bne	a2,a3,45fc <strcmp+0xc0>
    4574:	00452603          	lw	a2,4(a0)
    4578:	0045a683          	lw	a3,4(a1)
    457c:	00f672b3          	and	t0,a2,a5
    4580:	00f66333          	or	t1,a2,a5
    4584:	00f282b3          	add	t0,t0,a5
    4588:	0062e2b3          	or	t0,t0,t1
    458c:	0c729e63          	bne	t0,t2,4668 <strcmp+0x12c>
    4590:	06d61663          	bne	a2,a3,45fc <strcmp+0xc0>
    4594:	00852603          	lw	a2,8(a0)
    4598:	0085a683          	lw	a3,8(a1)
    459c:	00f672b3          	and	t0,a2,a5
    45a0:	00f66333          	or	t1,a2,a5
    45a4:	00f282b3          	add	t0,t0,a5
    45a8:	0062e2b3          	or	t0,t0,t1
    45ac:	0c729863          	bne	t0,t2,467c <strcmp+0x140>
    45b0:	04d61663          	bne	a2,a3,45fc <strcmp+0xc0>
    45b4:	00c52603          	lw	a2,12(a0)
    45b8:	00c5a683          	lw	a3,12(a1)
    45bc:	00f672b3          	and	t0,a2,a5
    45c0:	00f66333          	or	t1,a2,a5
    45c4:	00f282b3          	add	t0,t0,a5
    45c8:	0062e2b3          	or	t0,t0,t1
    45cc:	0c729263          	bne	t0,t2,4690 <strcmp+0x154>
    45d0:	02d61663          	bne	a2,a3,45fc <strcmp+0xc0>
    45d4:	01052603          	lw	a2,16(a0)
    45d8:	0105a683          	lw	a3,16(a1)
    45dc:	00f672b3          	and	t0,a2,a5
    45e0:	00f66333          	or	t1,a2,a5
    45e4:	00f282b3          	add	t0,t0,a5
    45e8:	0062e2b3          	or	t0,t0,t1
    45ec:	0a729c63          	bne	t0,t2,46a4 <strcmp+0x168>
    45f0:	01450513          	add	a0,a0,20
    45f4:	01458593          	add	a1,a1,20
    45f8:	f4d60ee3          	beq	a2,a3,4554 <strcmp+0x18>
    45fc:	01061713          	sll	a4,a2,0x10
    4600:	01069793          	sll	a5,a3,0x10
    4604:	00f71e63          	bne	a4,a5,4620 <strcmp+0xe4>
    4608:	01065713          	srl	a4,a2,0x10
    460c:	0106d793          	srl	a5,a3,0x10
    4610:	40f70533          	sub	a0,a4,a5
    4614:	0ff57593          	zext.b	a1,a0
    4618:	02059063          	bnez	a1,4638 <strcmp+0xfc>
    461c:	00008067          	ret
    4620:	01075713          	srl	a4,a4,0x10
    4624:	0107d793          	srl	a5,a5,0x10
    4628:	40f70533          	sub	a0,a4,a5
    462c:	0ff57593          	zext.b	a1,a0
    4630:	00059463          	bnez	a1,4638 <strcmp+0xfc>
    4634:	00008067          	ret
    4638:	0ff77713          	zext.b	a4,a4
    463c:	0ff7f793          	zext.b	a5,a5
    4640:	40f70533          	sub	a0,a4,a5
    4644:	00008067          	ret
    4648:	00054603          	lbu	a2,0(a0)
    464c:	0005c683          	lbu	a3,0(a1)
    4650:	00150513          	add	a0,a0,1
    4654:	00158593          	add	a1,a1,1
    4658:	00d61463          	bne	a2,a3,4660 <strcmp+0x124>
    465c:	fe0616e3          	bnez	a2,4648 <strcmp+0x10c>
    4660:	40d60533          	sub	a0,a2,a3
    4664:	00008067          	ret
    4668:	00450513          	add	a0,a0,4
    466c:	00458593          	add	a1,a1,4
    4670:	fcd61ce3          	bne	a2,a3,4648 <strcmp+0x10c>
    4674:	00000513          	li	a0,0
    4678:	00008067          	ret
    467c:	00850513          	add	a0,a0,8
    4680:	00858593          	add	a1,a1,8
    4684:	fcd612e3          	bne	a2,a3,4648 <strcmp+0x10c>
    4688:	00000513          	li	a0,0
    468c:	00008067          	ret
    4690:	00c50513          	add	a0,a0,12
    4694:	00c58593          	add	a1,a1,12
    4698:	fad618e3          	bne	a2,a3,4648 <strcmp+0x10c>
    469c:	00000513          	li	a0,0
    46a0:	00008067          	ret
    46a4:	01050513          	add	a0,a0,16
    46a8:	01058593          	add	a1,a1,16
    46ac:	f8d61ee3          	bne	a2,a3,4648 <strcmp+0x10c>
    46b0:	00000513          	li	a0,0
    46b4:	00008067          	ret

000046b8 <__CTOR_LIST__>:
	...

000046c0 <__CTOR_END__>:
	...

Disassembly of section .text.conv:

000046c8 <conv>:
    46c8:	40020e37          	lui	t3,0x40020
    46cc:	fcde2423          	sw	a3,-56(t3) # 4001ffc8 <MTSSV_BASE+0x3ff17fd0>
    46d0:	40020337          	lui	t1,0x40020
    46d4:	fce32823          	sw	a4,-48(t1) # 4001ffd0 <MTSSV_BASE+0x3ff17fd8>
    46d8:	400208b7          	lui	a7,0x40020
    46dc:	fcb8aa23          	sw	a1,-44(a7) # 4001ffd4 <MTSSV_BASE+0x3ff17fdc>
    46e0:	40020837          	lui	a6,0x40020
    46e4:	fca82c23          	sw	a0,-40(a6) # 4001ffd8 <MTSSV_BASE+0x3ff17fe0>
    46e8:	400206b7          	lui	a3,0x40020
    46ec:	400207b7          	lui	a5,0x40020
    46f0:	40020737          	lui	a4,0x40020
    46f4:	fcc6ae23          	sw	a2,-36(a3) # 4001ffdc <MTSSV_BASE+0x3ff17fe4>
    46f8:	fc07a023          	sw	zero,-64(a5) # 4001ffc0 <MTSSV_BASE+0x3ff17fc8>
    46fc:	fc470713          	add	a4,a4,-60 # 4001ffc4 <MTSSV_BASE+0x3ff17fcc>
    4700:	00072783          	lw	a5,0(a4)
    4704:	fe078ee3          	beqz	a5,4700 <conv+0x38>
    4708:	400207b7          	lui	a5,0x40020
    470c:	40020737          	lui	a4,0x40020
    4710:	00100693          	li	a3,1
    4714:	fcd7a023          	sw	a3,-64(a5) # 4001ffc0 <MTSSV_BASE+0x3ff17fc8>
    4718:	fc470713          	add	a4,a4,-60 # 4001ffc4 <MTSSV_BASE+0x3ff17fcc>
    471c:	00072783          	lw	a5,0(a4)
    4720:	fe078ee3          	beqz	a5,471c <conv+0x54>
    4724:	00008067          	ret

Disassembly of section .text.linear:

00004728 <linear>:
    4728:	40020337          	lui	t1,0x40020
    472c:	fca32c23          	sw	a0,-40(t1) # 4001ffd8 <MTSSV_BASE+0x3ff17fe0>
    4730:	400208b7          	lui	a7,0x40020
    4734:	fcb8aa23          	sw	a1,-44(a7) # 4001ffd4 <MTSSV_BASE+0x3ff17fdc>
    4738:	40020837          	lui	a6,0x40020
    473c:	fcc82e23          	sw	a2,-36(a6) # 4001ffdc <MTSSV_BASE+0x3ff17fe4>
    4740:	40020537          	lui	a0,0x40020
    4744:	fed52023          	sw	a3,-32(a0) # 4001ffe0 <MTSSV_BASE+0x3ff17fe8>
    4748:	400205b7          	lui	a1,0x40020
    474c:	fce5a423          	sw	a4,-56(a1) # 4001ffc8 <MTSSV_BASE+0x3ff17fd0>
    4750:	40020637          	lui	a2,0x40020
    4754:	fcf62623          	sw	a5,-52(a2) # 4001ffcc <MTSSV_BASE+0x3ff17fd4>
    4758:	400206b7          	lui	a3,0x40020
    475c:	40020737          	lui	a4,0x40020
    4760:	00400793          	li	a5,4
    4764:	fcf6a023          	sw	a5,-64(a3) # 4001ffc0 <MTSSV_BASE+0x3ff17fc8>
    4768:	fc470713          	add	a4,a4,-60 # 4001ffc4 <MTSSV_BASE+0x3ff17fcc>
    476c:	00072783          	lw	a5,0(a4)
    4770:	fe078ee3          	beqz	a5,476c <linear+0x44>
    4774:	400207b7          	lui	a5,0x40020
    4778:	40020737          	lui	a4,0x40020
    477c:	00500693          	li	a3,5
    4780:	fcd7a023          	sw	a3,-64(a5) # 4001ffc0 <MTSSV_BASE+0x3ff17fc8>
    4784:	fc470713          	add	a4,a4,-60 # 4001ffc4 <MTSSV_BASE+0x3ff17fcc>
    4788:	00072783          	lw	a5,0(a4)
    478c:	fe078ee3          	beqz	a5,4788 <linear+0x60>
    4790:	00008067          	ret

Disassembly of section .text.pool_max_2x2:

00004794 <pool_max_2x2>:
    4794:	400208b7          	lui	a7,0x40020
    4798:	fcb8aa23          	sw	a1,-44(a7) # 4001ffd4 <MTSSV_BASE+0x3ff17fdc>
    479c:	40020837          	lui	a6,0x40020
    47a0:	400206b7          	lui	a3,0x40020
    47a4:	fca82c23          	sw	a0,-40(a6) # 4001ffd8 <MTSSV_BASE+0x3ff17fe0>
    47a8:	01f65593          	srl	a1,a2,0x1f
    47ac:	fcc6ae23          	sw	a2,-36(a3) # 4001ffdc <MTSSV_BASE+0x3ff17fe4>
    47b0:	400207b7          	lui	a5,0x40020
    47b4:	00c585b3          	add	a1,a1,a2
    47b8:	40020737          	lui	a4,0x40020
    47bc:	00200693          	li	a3,2
    47c0:	4015d593          	sra	a1,a1,0x1
    47c4:	fcd7a023          	sw	a3,-64(a5) # 4001ffc0 <MTSSV_BASE+0x3ff17fc8>
    47c8:	fc470713          	add	a4,a4,-60 # 4001ffc4 <MTSSV_BASE+0x3ff17fcc>
    47cc:	00072783          	lw	a5,0(a4)
    47d0:	fe078ee3          	beqz	a5,47cc <pool_max_2x2+0x38>
    47d4:	00100793          	li	a5,1
    47d8:	02c7de63          	bge	a5,a2,4814 <pool_max_2x2+0x80>
    47dc:	40020537          	lui	a0,0x40020
    47e0:	40020637          	lui	a2,0x40020
    47e4:	40020737          	lui	a4,0x40020
    47e8:	00000693          	li	a3,0
    47ec:	fe450513          	add	a0,a0,-28 # 4001ffe4 <MTSSV_BASE+0x3ff17fec>
    47f0:	fc060613          	add	a2,a2,-64 # 4001ffc0 <MTSSV_BASE+0x3ff17fc8>
    47f4:	00300813          	li	a6,3
    47f8:	fc470713          	add	a4,a4,-60 # 4001ffc4 <MTSSV_BASE+0x3ff17fcc>
    47fc:	00d52023          	sw	a3,0(a0)
    4800:	01062023          	sw	a6,0(a2)
    4804:	00072783          	lw	a5,0(a4)
    4808:	fe078ee3          	beqz	a5,4804 <pool_max_2x2+0x70>
    480c:	00168693          	add	a3,a3,1
    4810:	feb6c6e3          	blt	a3,a1,47fc <pool_max_2x2+0x68>
    4814:	00008067          	ret

Disassembly of section .text.infer:

00004818 <infer>:
    4818:	fb010113          	add	sp,sp,-80
    481c:	04812423          	sw	s0,72(sp)
    4820:	04912223          	sw	s1,68(sp)
    4824:	05212023          	sw	s2,64(sp)
    4828:	03312e23          	sw	s3,60(sp)
    482c:	04112623          	sw	ra,76(sp)
    4830:	03412c23          	sw	s4,56(sp)
    4834:	00068913          	mv	s2,a3
    4838:	00050993          	mv	s3,a0
    483c:	00058493          	mv	s1,a1
    4840:	00060413          	mv	s0,a2
    4844:	3a069463          	bnez	a3,4bec <infer+0x3d4>
    4848:	01c5a703          	lw	a4,28(a1)
    484c:	00058693          	mv	a3,a1
    4850:	02000613          	li	a2,32
    4854:	00050593          	mv	a1,a0
    4858:	00040513          	mv	a0,s0
    485c:	e6dff0ef          	jal	46c8 <conv>
    4860:	31040a13          	add	s4,s0,784
    4864:	000a0513          	mv	a0,s4
    4868:	01c00613          	li	a2,28
    486c:	00040593          	mv	a1,s0
    4870:	f25ff0ef          	jal	4794 <pool_max_2x2>
    4874:	03c4a703          	lw	a4,60(s1)
    4878:	3d440993          	add	s3,s0,980
    487c:	02048693          	add	a3,s1,32
    4880:	000a0593          	mv	a1,s4
    4884:	00098513          	mv	a0,s3
    4888:	00e00613          	li	a2,14
    488c:	e3dff0ef          	jal	46c8 <conv>
    4890:	4ec40a13          	add	s4,s0,1260
    4894:	00098593          	mv	a1,s3
    4898:	00a00613          	li	a2,10
    489c:	000a0513          	mv	a0,s4
    48a0:	ef5ff0ef          	jal	4794 <pool_max_2x2>
    48a4:	53240993          	add	s3,s0,1330
    48a8:	36048793          	add	a5,s1,864
    48ac:	04048713          	add	a4,s1,64
    48b0:	02000693          	li	a3,32
    48b4:	01900613          	li	a2,25
    48b8:	000a0593          	mv	a1,s4
    48bc:	00098513          	mv	a0,s3
    48c0:	e69ff0ef          	jal	4728 <linear>
    48c4:	74048793          	add	a5,s1,1856
    48c8:	3e048713          	add	a4,s1,992
    48cc:	01b00693          	li	a3,27
    48d0:	02000613          	li	a2,32
    48d4:	00098593          	mv	a1,s3
    48d8:	55240513          	add	a0,s0,1362
    48dc:	e4dff0ef          	jal	4728 <linear>
    48e0:	55244783          	lbu	a5,1362(s0)
    48e4:	55344703          	lbu	a4,1363(s0)
    48e8:	00100493          	li	s1,1
    48ec:	00e7e663          	bltu	a5,a4,48f8 <infer+0xe0>
    48f0:	00078713          	mv	a4,a5
    48f4:	00000493          	li	s1,0
    48f8:	55444783          	lbu	a5,1364(s0)
    48fc:	22f76463          	bltu	a4,a5,4b24 <infer+0x30c>
    4900:	00070793          	mv	a5,a4
    4904:	55544703          	lbu	a4,1365(s0)
    4908:	20e7ea63          	bltu	a5,a4,4b1c <infer+0x304>
    490c:	00078713          	mv	a4,a5
    4910:	55644783          	lbu	a5,1366(s0)
    4914:	20f76063          	bltu	a4,a5,4b14 <infer+0x2fc>
    4918:	00070793          	mv	a5,a4
    491c:	55744703          	lbu	a4,1367(s0)
    4920:	1ee7e663          	bltu	a5,a4,4b0c <infer+0x2f4>
    4924:	00078713          	mv	a4,a5
    4928:	55844783          	lbu	a5,1368(s0)
    492c:	1cf76c63          	bltu	a4,a5,4b04 <infer+0x2ec>
    4930:	00070793          	mv	a5,a4
    4934:	55944703          	lbu	a4,1369(s0)
    4938:	1ce7e263          	bltu	a5,a4,4afc <infer+0x2e4>
    493c:	00078713          	mv	a4,a5
    4940:	55a44783          	lbu	a5,1370(s0)
    4944:	1af76863          	bltu	a4,a5,4af4 <infer+0x2dc>
    4948:	00070793          	mv	a5,a4
    494c:	55b44703          	lbu	a4,1371(s0)
    4950:	18e7ee63          	bltu	a5,a4,4aec <infer+0x2d4>
    4954:	00078713          	mv	a4,a5
    4958:	55c44783          	lbu	a5,1372(s0)
    495c:	18f76463          	bltu	a4,a5,4ae4 <infer+0x2cc>
    4960:	00070793          	mv	a5,a4
    4964:	55d44703          	lbu	a4,1373(s0)
    4968:	16e7ea63          	bltu	a5,a4,4adc <infer+0x2c4>
    496c:	00078713          	mv	a4,a5
    4970:	55e44783          	lbu	a5,1374(s0)
    4974:	16f76063          	bltu	a4,a5,4ad4 <infer+0x2bc>
    4978:	00070793          	mv	a5,a4
    497c:	55f44703          	lbu	a4,1375(s0)
    4980:	14e7e663          	bltu	a5,a4,4acc <infer+0x2b4>
    4984:	00078713          	mv	a4,a5
    4988:	56044783          	lbu	a5,1376(s0)
    498c:	12f76c63          	bltu	a4,a5,4ac4 <infer+0x2ac>
    4990:	00070793          	mv	a5,a4
    4994:	56144703          	lbu	a4,1377(s0)
    4998:	12e7e263          	bltu	a5,a4,4abc <infer+0x2a4>
    499c:	00078713          	mv	a4,a5
    49a0:	56244783          	lbu	a5,1378(s0)
    49a4:	10f76863          	bltu	a4,a5,4ab4 <infer+0x29c>
    49a8:	00070793          	mv	a5,a4
    49ac:	56344703          	lbu	a4,1379(s0)
    49b0:	0ee7ee63          	bltu	a5,a4,4aac <infer+0x294>
    49b4:	00078713          	mv	a4,a5
    49b8:	56444783          	lbu	a5,1380(s0)
    49bc:	0ef76463          	bltu	a4,a5,4aa4 <infer+0x28c>
    49c0:	00070793          	mv	a5,a4
    49c4:	56544703          	lbu	a4,1381(s0)
    49c8:	0ce7ea63          	bltu	a5,a4,4a9c <infer+0x284>
    49cc:	00078713          	mv	a4,a5
    49d0:	56644783          	lbu	a5,1382(s0)
    49d4:	0cf76063          	bltu	a4,a5,4a94 <infer+0x27c>
    49d8:	00070793          	mv	a5,a4
    49dc:	56744703          	lbu	a4,1383(s0)
    49e0:	0ae7e663          	bltu	a5,a4,4a8c <infer+0x274>
    49e4:	00078713          	mv	a4,a5
    49e8:	56844783          	lbu	a5,1384(s0)
    49ec:	08f76c63          	bltu	a4,a5,4a84 <infer+0x26c>
    49f0:	00070793          	mv	a5,a4
    49f4:	56944703          	lbu	a4,1385(s0)
    49f8:	08e7e263          	bltu	a5,a4,4a7c <infer+0x264>
    49fc:	00078713          	mv	a4,a5
    4a00:	56a44783          	lbu	a5,1386(s0)
    4a04:	06f76863          	bltu	a4,a5,4a74 <infer+0x25c>
    4a08:	00070793          	mv	a5,a4
    4a0c:	56b44703          	lbu	a4,1387(s0)
    4a10:	04e7e863          	bltu	a5,a4,4a60 <infer+0x248>
    4a14:	00078713          	mv	a4,a5
    4a18:	56c44783          	lbu	a5,1388(s0)
    4a1c:	04f76863          	bltu	a4,a5,4a6c <infer+0x254>
    4a20:	00090e63          	beqz	s2,4a3c <infer+0x224>
    4a24:	00101937          	lui	s2,0x101
    4a28:	9d894983          	lbu	s3,-1576(s2) # 1009d8 <report_task_performance_off>
    4a2c:	10098063          	beqz	s3,4b2c <infer+0x314>
    4a30:	00100537          	lui	a0,0x100
    4a34:	28c50513          	add	a0,a0,652 # 10028c <__clz_tab+0x1a4>
    4a38:	621010ef          	jal	6858 <bm_printf>
    4a3c:	04c12083          	lw	ra,76(sp)
    4a40:	04812403          	lw	s0,72(sp)
    4a44:	04012903          	lw	s2,64(sp)
    4a48:	03c12983          	lw	s3,60(sp)
    4a4c:	03812a03          	lw	s4,56(sp)
    4a50:	00048513          	mv	a0,s1
    4a54:	04412483          	lw	s1,68(sp)
    4a58:	05010113          	add	sp,sp,80
    4a5c:	00008067          	ret
    4a60:	56c44783          	lbu	a5,1388(s0)
    4a64:	01900493          	li	s1,25
    4a68:	faf77ce3          	bgeu	a4,a5,4a20 <infer+0x208>
    4a6c:	01a00493          	li	s1,26
    4a70:	fb1ff06f          	j	4a20 <infer+0x208>
    4a74:	01800493          	li	s1,24
    4a78:	f95ff06f          	j	4a0c <infer+0x1f4>
    4a7c:	01700493          	li	s1,23
    4a80:	f81ff06f          	j	4a00 <infer+0x1e8>
    4a84:	01600493          	li	s1,22
    4a88:	f6dff06f          	j	49f4 <infer+0x1dc>
    4a8c:	01500493          	li	s1,21
    4a90:	f59ff06f          	j	49e8 <infer+0x1d0>
    4a94:	01400493          	li	s1,20
    4a98:	f45ff06f          	j	49dc <infer+0x1c4>
    4a9c:	01300493          	li	s1,19
    4aa0:	f31ff06f          	j	49d0 <infer+0x1b8>
    4aa4:	01200493          	li	s1,18
    4aa8:	f1dff06f          	j	49c4 <infer+0x1ac>
    4aac:	01100493          	li	s1,17
    4ab0:	f09ff06f          	j	49b8 <infer+0x1a0>
    4ab4:	01000493          	li	s1,16
    4ab8:	ef5ff06f          	j	49ac <infer+0x194>
    4abc:	00f00493          	li	s1,15
    4ac0:	ee1ff06f          	j	49a0 <infer+0x188>
    4ac4:	00e00493          	li	s1,14
    4ac8:	ecdff06f          	j	4994 <infer+0x17c>
    4acc:	00d00493          	li	s1,13
    4ad0:	eb9ff06f          	j	4988 <infer+0x170>
    4ad4:	00c00493          	li	s1,12
    4ad8:	ea5ff06f          	j	497c <infer+0x164>
    4adc:	00b00493          	li	s1,11
    4ae0:	e91ff06f          	j	4970 <infer+0x158>
    4ae4:	00a00493          	li	s1,10
    4ae8:	e7dff06f          	j	4964 <infer+0x14c>
    4aec:	00900493          	li	s1,9
    4af0:	e69ff06f          	j	4958 <infer+0x140>
    4af4:	00800493          	li	s1,8
    4af8:	e55ff06f          	j	494c <infer+0x134>
    4afc:	00700493          	li	s1,7
    4b00:	e41ff06f          	j	4940 <infer+0x128>
    4b04:	00600493          	li	s1,6
    4b08:	e2dff06f          	j	4934 <infer+0x11c>
    4b0c:	00500493          	li	s1,5
    4b10:	e19ff06f          	j	4928 <infer+0x110>
    4b14:	00400493          	li	s1,4
    4b18:	e05ff06f          	j	491c <infer+0x104>
    4b1c:	00300493          	li	s1,3
    4b20:	df1ff06f          	j	4910 <infer+0xf8>
    4b24:	00200493          	li	s1,2
    4b28:	dddff06f          	j	4904 <infer+0xec>
    4b2c:	03512a23          	sw	s5,52(sp)
    4b30:	780027f3          	csrr	a5,0x780
    4b34:	00101737          	lui	a4,0x101
    4b38:	ffe78793          	add	a5,a5,-2
    4b3c:	9ef72623          	sw	a5,-1556(a4) # 1009ec <end_cycle>
    4b40:	00101ab7          	lui	s5,0x101
    4b44:	00101837          	lui	a6,0x101
    4b48:	9f0aa603          	lw	a2,-1552(s5) # 1009f0 <start_cycle>
    4b4c:	9ec72503          	lw	a0,-1556(a4)
    4b50:	9e882683          	lw	a3,-1560(a6) # 1009e8 <paused_cycle_count>
    4b54:	00101437          	lui	s0,0x101
    4b58:	9e042783          	lw	a5,-1568(s0) # 1009e0 <total_cycle_count>
    4b5c:	9e442703          	lw	a4,-1564(s0)
    4b60:	40c50533          	sub	a0,a0,a2
    4b64:	40d50533          	sub	a0,a0,a3
    4b68:	00a786b3          	add	a3,a5,a0
    4b6c:	41f55593          	sra	a1,a0,0x1f
    4b70:	00b70733          	add	a4,a4,a1
    4b74:	00f6b7b3          	sltu	a5,a3,a5
    4b78:	00e787b3          	add	a5,a5,a4
    4b7c:	00810613          	add	a2,sp,8
    4b80:	9e082423          	sw	zero,-1560(a6)
    4b84:	9ed42023          	sw	a3,-1568(s0)
    4b88:	9ef42223          	sw	a5,-1564(s0)
    4b8c:	565010ef          	jal	68f0 <bm_format_with_commas>
    4b90:	00100a37          	lui	s4,0x100
    4b94:	001005b7          	lui	a1,0x100
    4b98:	00810613          	add	a2,sp,8
    4b9c:	25058593          	add	a1,a1,592 # 100250 <__clz_tab+0x168>
    4ba0:	214a0513          	add	a0,s4,532 # 100214 <__clz_tab+0x12c>
    4ba4:	4b5010ef          	jal	6858 <bm_printf>
    4ba8:	78099073          	csrw	0x780,s3
    4bac:	780027f3          	csrr	a5,0x780
    4bb0:	00378793          	add	a5,a5,3
    4bb4:	9efaa823          	sw	a5,-1552(s5)
    4bb8:	9d894783          	lbu	a5,-1576(s2)
    4bbc:	4c079a63          	bnez	a5,5090 <infer+0x878>
    4bc0:	9e042503          	lw	a0,-1568(s0)
    4bc4:	9e442583          	lw	a1,-1564(s0)
    4bc8:	00810613          	add	a2,sp,8
    4bcc:	525010ef          	jal	68f0 <bm_format_with_commas>
    4bd0:	001005b7          	lui	a1,0x100
    4bd4:	00810613          	add	a2,sp,8
    4bd8:	25858593          	add	a1,a1,600 # 100258 <__clz_tab+0x170>
    4bdc:	214a0513          	add	a0,s4,532
    4be0:	479010ef          	jal	6858 <bm_printf>
    4be4:	03412a83          	lw	s5,52(sp)
    4be8:	e49ff06f          	j	4a30 <infer+0x218>
    4bec:	00101a37          	lui	s4,0x101
    4bf0:	03512a23          	sw	s5,52(sp)
    4bf4:	9d8a4a83          	lbu	s5,-1576(s4) # 1009d8 <report_task_performance_off>
    4bf8:	03612823          	sw	s6,48(sp)
    4bfc:	380a8063          	beqz	s5,4f7c <infer+0x764>
    4c00:	01c5a703          	lw	a4,28(a1)
    4c04:	00058693          	mv	a3,a1
    4c08:	02000613          	li	a2,32
    4c0c:	00050593          	mv	a1,a0
    4c10:	00040513          	mv	a0,s0
    4c14:	ab5ff0ef          	jal	46c8 <conv>
    4c18:	9d8a4983          	lbu	s3,-1576(s4)
    4c1c:	08099663          	bnez	s3,4ca8 <infer+0x490>
    4c20:	780027f3          	csrr	a5,0x780
    4c24:	00101737          	lui	a4,0x101
    4c28:	ffe78793          	add	a5,a5,-2
    4c2c:	9ef72623          	sw	a5,-1556(a4) # 1009ec <end_cycle>
    4c30:	00101ab7          	lui	s5,0x101
    4c34:	001018b7          	lui	a7,0x101
    4c38:	9f0aa583          	lw	a1,-1552(s5) # 1009f0 <start_cycle>
    4c3c:	9ec72503          	lw	a0,-1556(a4)
    4c40:	9e88a603          	lw	a2,-1560(a7) # 1009e8 <paused_cycle_count>
    4c44:	00101737          	lui	a4,0x101
    4c48:	9e072783          	lw	a5,-1568(a4) # 1009e0 <total_cycle_count>
    4c4c:	9e472683          	lw	a3,-1564(a4)
    4c50:	40b50533          	sub	a0,a0,a1
    4c54:	40c50533          	sub	a0,a0,a2
    4c58:	00a78833          	add	a6,a5,a0
    4c5c:	41f55593          	sra	a1,a0,0x1f
    4c60:	00b686b3          	add	a3,a3,a1
    4c64:	00f837b3          	sltu	a5,a6,a5
    4c68:	00d787b3          	add	a5,a5,a3
    4c6c:	00810613          	add	a2,sp,8
    4c70:	9e08a423          	sw	zero,-1560(a7)
    4c74:	9f072023          	sw	a6,-1568(a4)
    4c78:	9ef72223          	sw	a5,-1564(a4)
    4c7c:	475010ef          	jal	68f0 <bm_format_with_commas>
    4c80:	001005b7          	lui	a1,0x100
    4c84:	00100537          	lui	a0,0x100
    4c88:	00810613          	add	a2,sp,8
    4c8c:	20c58593          	add	a1,a1,524 # 10020c <__clz_tab+0x124>
    4c90:	21450513          	add	a0,a0,532 # 100214 <__clz_tab+0x12c>
    4c94:	3c5010ef          	jal	6858 <bm_printf>
    4c98:	78099073          	csrw	0x780,s3
    4c9c:	780027f3          	csrr	a5,0x780
    4ca0:	00378793          	add	a5,a5,3
    4ca4:	9efaa823          	sw	a5,-1552(s5)
    4ca8:	31040a93          	add	s5,s0,784
    4cac:	01c00613          	li	a2,28
    4cb0:	00040593          	mv	a1,s0
    4cb4:	000a8513          	mv	a0,s5
    4cb8:	addff0ef          	jal	4794 <pool_max_2x2>
    4cbc:	9d8a4983          	lbu	s3,-1576(s4)
    4cc0:	08099663          	bnez	s3,4d4c <infer+0x534>
    4cc4:	780027f3          	csrr	a5,0x780
    4cc8:	00101737          	lui	a4,0x101
    4ccc:	ffe78793          	add	a5,a5,-2
    4cd0:	9ef72623          	sw	a5,-1556(a4) # 1009ec <end_cycle>
    4cd4:	00101b37          	lui	s6,0x101
    4cd8:	001018b7          	lui	a7,0x101
    4cdc:	9f0b2583          	lw	a1,-1552(s6) # 1009f0 <start_cycle>
    4ce0:	9ec72503          	lw	a0,-1556(a4)
    4ce4:	9e88a603          	lw	a2,-1560(a7) # 1009e8 <paused_cycle_count>
    4ce8:	00101737          	lui	a4,0x101
    4cec:	9e072783          	lw	a5,-1568(a4) # 1009e0 <total_cycle_count>
    4cf0:	9e472683          	lw	a3,-1564(a4)
    4cf4:	40b50533          	sub	a0,a0,a1
    4cf8:	40c50533          	sub	a0,a0,a2
    4cfc:	00a78833          	add	a6,a5,a0
    4d00:	41f55593          	sra	a1,a0,0x1f
    4d04:	00b686b3          	add	a3,a3,a1
    4d08:	00f837b3          	sltu	a5,a6,a5
    4d0c:	00d787b3          	add	a5,a5,a3
    4d10:	00810613          	add	a2,sp,8
    4d14:	9e08a423          	sw	zero,-1560(a7)
    4d18:	9f072023          	sw	a6,-1568(a4)
    4d1c:	9ef72223          	sw	a5,-1564(a4)
    4d20:	3d1010ef          	jal	68f0 <bm_format_with_commas>
    4d24:	001005b7          	lui	a1,0x100
    4d28:	00100537          	lui	a0,0x100
    4d2c:	00810613          	add	a2,sp,8
    4d30:	22858593          	add	a1,a1,552 # 100228 <__clz_tab+0x140>
    4d34:	21450513          	add	a0,a0,532 # 100214 <__clz_tab+0x12c>
    4d38:	321010ef          	jal	6858 <bm_printf>
    4d3c:	78099073          	csrw	0x780,s3
    4d40:	780027f3          	csrr	a5,0x780
    4d44:	00378793          	add	a5,a5,3
    4d48:	9efb2823          	sw	a5,-1552(s6)
    4d4c:	03c4a703          	lw	a4,60(s1)
    4d50:	3d440993          	add	s3,s0,980
    4d54:	000a8593          	mv	a1,s5
    4d58:	02048693          	add	a3,s1,32
    4d5c:	00e00613          	li	a2,14
    4d60:	00098513          	mv	a0,s3
    4d64:	965ff0ef          	jal	46c8 <conv>
    4d68:	9d8a4a83          	lbu	s5,-1576(s4)
    4d6c:	080a9663          	bnez	s5,4df8 <infer+0x5e0>
    4d70:	780027f3          	csrr	a5,0x780
    4d74:	00101737          	lui	a4,0x101
    4d78:	ffe78793          	add	a5,a5,-2
    4d7c:	9ef72623          	sw	a5,-1556(a4) # 1009ec <end_cycle>
    4d80:	00101b37          	lui	s6,0x101
    4d84:	001018b7          	lui	a7,0x101
    4d88:	9f0b2583          	lw	a1,-1552(s6) # 1009f0 <start_cycle>
    4d8c:	9ec72503          	lw	a0,-1556(a4)
    4d90:	9e88a603          	lw	a2,-1560(a7) # 1009e8 <paused_cycle_count>
    4d94:	00101737          	lui	a4,0x101
    4d98:	9e072783          	lw	a5,-1568(a4) # 1009e0 <total_cycle_count>
    4d9c:	9e472683          	lw	a3,-1564(a4)
    4da0:	40b50533          	sub	a0,a0,a1
    4da4:	40c50533          	sub	a0,a0,a2
    4da8:	00a78833          	add	a6,a5,a0
    4dac:	41f55593          	sra	a1,a0,0x1f
    4db0:	00b686b3          	add	a3,a3,a1
    4db4:	00f837b3          	sltu	a5,a6,a5
    4db8:	00d787b3          	add	a5,a5,a3
    4dbc:	00810613          	add	a2,sp,8
    4dc0:	9e08a423          	sw	zero,-1560(a7)
    4dc4:	9f072023          	sw	a6,-1568(a4)
    4dc8:	9ef72223          	sw	a5,-1564(a4)
    4dcc:	325010ef          	jal	68f0 <bm_format_with_commas>
    4dd0:	001005b7          	lui	a1,0x100
    4dd4:	00100537          	lui	a0,0x100
    4dd8:	00810613          	add	a2,sp,8
    4ddc:	23058593          	add	a1,a1,560 # 100230 <__clz_tab+0x148>
    4de0:	21450513          	add	a0,a0,532 # 100214 <__clz_tab+0x12c>
    4de4:	275010ef          	jal	6858 <bm_printf>
    4de8:	780a9073          	csrw	0x780,s5
    4dec:	780027f3          	csrr	a5,0x780
    4df0:	00378793          	add	a5,a5,3
    4df4:	9efb2823          	sw	a5,-1552(s6)
    4df8:	4ec40a93          	add	s5,s0,1260
    4dfc:	00098593          	mv	a1,s3
    4e00:	00a00613          	li	a2,10
    4e04:	000a8513          	mv	a0,s5
    4e08:	98dff0ef          	jal	4794 <pool_max_2x2>
    4e0c:	9d8a4983          	lbu	s3,-1576(s4)
    4e10:	08099663          	bnez	s3,4e9c <infer+0x684>
    4e14:	780027f3          	csrr	a5,0x780
    4e18:	00101737          	lui	a4,0x101
    4e1c:	ffe78793          	add	a5,a5,-2
    4e20:	9ef72623          	sw	a5,-1556(a4) # 1009ec <end_cycle>
    4e24:	00101b37          	lui	s6,0x101
    4e28:	001018b7          	lui	a7,0x101
    4e2c:	9f0b2583          	lw	a1,-1552(s6) # 1009f0 <start_cycle>
    4e30:	9ec72503          	lw	a0,-1556(a4)
    4e34:	9e88a603          	lw	a2,-1560(a7) # 1009e8 <paused_cycle_count>
    4e38:	00101737          	lui	a4,0x101
    4e3c:	9e072783          	lw	a5,-1568(a4) # 1009e0 <total_cycle_count>
    4e40:	9e472683          	lw	a3,-1564(a4)
    4e44:	40b50533          	sub	a0,a0,a1
    4e48:	40c50533          	sub	a0,a0,a2
    4e4c:	00a78833          	add	a6,a5,a0
    4e50:	41f55593          	sra	a1,a0,0x1f
    4e54:	00b686b3          	add	a3,a3,a1
    4e58:	00f837b3          	sltu	a5,a6,a5
    4e5c:	00d787b3          	add	a5,a5,a3
    4e60:	00810613          	add	a2,sp,8
    4e64:	9e08a423          	sw	zero,-1560(a7)
    4e68:	9f072023          	sw	a6,-1568(a4)
    4e6c:	9ef72223          	sw	a5,-1564(a4)
    4e70:	281010ef          	jal	68f0 <bm_format_with_commas>
    4e74:	001005b7          	lui	a1,0x100
    4e78:	00100537          	lui	a0,0x100
    4e7c:	00810613          	add	a2,sp,8
    4e80:	23858593          	add	a1,a1,568 # 100238 <__clz_tab+0x150>
    4e84:	21450513          	add	a0,a0,532 # 100214 <__clz_tab+0x12c>
    4e88:	1d1010ef          	jal	6858 <bm_printf>
    4e8c:	78099073          	csrw	0x780,s3
    4e90:	780027f3          	csrr	a5,0x780
    4e94:	00378793          	add	a5,a5,3
    4e98:	9efb2823          	sw	a5,-1552(s6)
    4e9c:	53240993          	add	s3,s0,1330
    4ea0:	000a8593          	mv	a1,s5
    4ea4:	36048793          	add	a5,s1,864
    4ea8:	04048713          	add	a4,s1,64
    4eac:	02000693          	li	a3,32
    4eb0:	01900613          	li	a2,25
    4eb4:	00098513          	mv	a0,s3
    4eb8:	871ff0ef          	jal	4728 <linear>
    4ebc:	9d8a4a83          	lbu	s5,-1576(s4)
    4ec0:	120a8463          	beqz	s5,4fe8 <infer+0x7d0>
    4ec4:	74048793          	add	a5,s1,1856
    4ec8:	3e048713          	add	a4,s1,992
    4ecc:	01b00693          	li	a3,27
    4ed0:	02000613          	li	a2,32
    4ed4:	00098593          	mv	a1,s3
    4ed8:	55240513          	add	a0,s0,1362
    4edc:	84dff0ef          	jal	4728 <linear>
    4ee0:	9d8a4483          	lbu	s1,-1576(s4)
    4ee4:	0e049c63          	bnez	s1,4fdc <infer+0x7c4>
    4ee8:	780027f3          	csrr	a5,0x780
    4eec:	00101737          	lui	a4,0x101
    4ef0:	ffe78793          	add	a5,a5,-2
    4ef4:	9ef72623          	sw	a5,-1556(a4) # 1009ec <end_cycle>
    4ef8:	001019b7          	lui	s3,0x101
    4efc:	001018b7          	lui	a7,0x101
    4f00:	9f09a583          	lw	a1,-1552(s3) # 1009f0 <start_cycle>
    4f04:	9ec72503          	lw	a0,-1556(a4)
    4f08:	9e88a603          	lw	a2,-1560(a7) # 1009e8 <paused_cycle_count>
    4f0c:	00101737          	lui	a4,0x101
    4f10:	9e072783          	lw	a5,-1568(a4) # 1009e0 <total_cycle_count>
    4f14:	9e472683          	lw	a3,-1564(a4)
    4f18:	40b50533          	sub	a0,a0,a1
    4f1c:	40c50533          	sub	a0,a0,a2
    4f20:	00a78833          	add	a6,a5,a0
    4f24:	41f55593          	sra	a1,a0,0x1f
    4f28:	00b686b3          	add	a3,a3,a1
    4f2c:	00f837b3          	sltu	a5,a6,a5
    4f30:	00d787b3          	add	a5,a5,a3
    4f34:	00810613          	add	a2,sp,8
    4f38:	9e08a423          	sw	zero,-1560(a7)
    4f3c:	9f072023          	sw	a6,-1568(a4)
    4f40:	9ef72223          	sw	a5,-1564(a4)
    4f44:	1ad010ef          	jal	68f0 <bm_format_with_commas>
    4f48:	001005b7          	lui	a1,0x100
    4f4c:	00100537          	lui	a0,0x100
    4f50:	00810613          	add	a2,sp,8
    4f54:	24858593          	add	a1,a1,584 # 100248 <__clz_tab+0x160>
    4f58:	21450513          	add	a0,a0,532 # 100214 <__clz_tab+0x12c>
    4f5c:	0fd010ef          	jal	6858 <bm_printf>
    4f60:	78049073          	csrw	0x780,s1
    4f64:	780027f3          	csrr	a5,0x780
    4f68:	00378793          	add	a5,a5,3
    4f6c:	9ef9a823          	sw	a5,-1552(s3)
    4f70:	03412a83          	lw	s5,52(sp)
    4f74:	03012b03          	lw	s6,48(sp)
    4f78:	969ff06f          	j	48e0 <infer+0xc8>
    4f7c:	00100537          	lui	a0,0x100
    4f80:	1e850513          	add	a0,a0,488 # 1001e8 <__clz_tab+0x100>
    4f84:	0d5010ef          	jal	6858 <bm_printf>
    4f88:	00100793          	li	a5,1
    4f8c:	cc079073          	csrw	0xcc0,a5
    4f90:	780a9073          	csrw	0x780,s5
    4f94:	780027f3          	csrr	a5,0x780
    4f98:	00101737          	lui	a4,0x101
    4f9c:	00378793          	add	a5,a5,3
    4fa0:	9ef72823          	sw	a5,-1552(a4) # 1009f0 <start_cycle>
    4fa4:	01c4a703          	lw	a4,28(s1)
    4fa8:	001017b7          	lui	a5,0x101
    4fac:	00000813          	li	a6,0
    4fb0:	00000893          	li	a7,0
    4fb4:	00048693          	mv	a3,s1
    4fb8:	02000613          	li	a2,32
    4fbc:	00098593          	mv	a1,s3
    4fc0:	00040513          	mv	a0,s0
    4fc4:	9e07a423          	sw	zero,-1560(a5) # 1009e8 <paused_cycle_count>
    4fc8:	001017b7          	lui	a5,0x101
    4fcc:	9f07a023          	sw	a6,-1568(a5) # 1009e0 <total_cycle_count>
    4fd0:	9f17a223          	sw	a7,-1564(a5)
    4fd4:	ef4ff0ef          	jal	46c8 <conv>
    4fd8:	c41ff06f          	j	4c18 <infer+0x400>
    4fdc:	03412a83          	lw	s5,52(sp)
    4fe0:	03012b03          	lw	s6,48(sp)
    4fe4:	8fdff06f          	j	48e0 <infer+0xc8>
    4fe8:	780027f3          	csrr	a5,0x780
    4fec:	00101737          	lui	a4,0x101
    4ff0:	ffe78793          	add	a5,a5,-2
    4ff4:	9ef72623          	sw	a5,-1556(a4) # 1009ec <end_cycle>
    4ff8:	00101b37          	lui	s6,0x101
    4ffc:	001018b7          	lui	a7,0x101
    5000:	9f0b2583          	lw	a1,-1552(s6) # 1009f0 <start_cycle>
    5004:	9ec72503          	lw	a0,-1556(a4)
    5008:	9e88a603          	lw	a2,-1560(a7) # 1009e8 <paused_cycle_count>
    500c:	00101737          	lui	a4,0x101
    5010:	9e072783          	lw	a5,-1568(a4) # 1009e0 <total_cycle_count>
    5014:	9e472683          	lw	a3,-1564(a4)
    5018:	40b50533          	sub	a0,a0,a1
    501c:	40c50533          	sub	a0,a0,a2
    5020:	00a78833          	add	a6,a5,a0
    5024:	41f55593          	sra	a1,a0,0x1f
    5028:	00b686b3          	add	a3,a3,a1
    502c:	00f837b3          	sltu	a5,a6,a5
    5030:	00d787b3          	add	a5,a5,a3
    5034:	00810613          	add	a2,sp,8
    5038:	9e08a423          	sw	zero,-1560(a7)
    503c:	9f072023          	sw	a6,-1568(a4)
    5040:	9ef72223          	sw	a5,-1564(a4)
    5044:	0ad010ef          	jal	68f0 <bm_format_with_commas>
    5048:	001005b7          	lui	a1,0x100
    504c:	00100537          	lui	a0,0x100
    5050:	00810613          	add	a2,sp,8
    5054:	24058593          	add	a1,a1,576 # 100240 <__clz_tab+0x158>
    5058:	21450513          	add	a0,a0,532 # 100214 <__clz_tab+0x12c>
    505c:	7fc010ef          	jal	6858 <bm_printf>
    5060:	780a9073          	csrw	0x780,s5
    5064:	780027f3          	csrr	a5,0x780
    5068:	00378793          	add	a5,a5,3
    506c:	9efb2823          	sw	a5,-1552(s6)
    5070:	01b00693          	li	a3,27
    5074:	74048793          	add	a5,s1,1856
    5078:	3e048713          	add	a4,s1,992
    507c:	02000613          	li	a2,32
    5080:	00098593          	mv	a1,s3
    5084:	55240513          	add	a0,s0,1362
    5088:	ea0ff0ef          	jal	4728 <linear>
    508c:	e55ff06f          	j	4ee0 <infer+0x6c8>
    5090:	03412a83          	lw	s5,52(sp)
    5094:	99dff06f          	j	4a30 <infer+0x218>

Disassembly of section .text.startup.main:

00005098 <main>:
    5098:	00100537          	lui	a0,0x100
    509c:	fd010113          	add	sp,sp,-48
    50a0:	26050513          	add	a0,a0,608 # 100260 <__clz_tab+0x178>
    50a4:	02112623          	sw	ra,44(sp)
    50a8:	02812423          	sw	s0,40(sp)
    50ac:	02912223          	sw	s1,36(sp)
    50b0:	03212023          	sw	s2,32(sp)
    50b4:	01312e23          	sw	s3,28(sp)
    50b8:	01412c23          	sw	s4,24(sp)
    50bc:	01512a23          	sw	s5,20(sp)
    50c0:	798010ef          	jal	6858 <bm_printf>
    50c4:	064020ef          	jal	7128 <alloc_init>
    50c8:	0a9020ef          	jal	7970 <load_model_params>
    50cc:	00050913          	mv	s2,a0
    50d0:	00100537          	lui	a0,0x100
    50d4:	56d00593          	li	a1,1389
    50d8:	29050513          	add	a0,a0,656 # 100290 <__clz_tab+0x1a8>
    50dc:	77c010ef          	jal	6858 <bm_printf>
    50e0:	001009b7          	lui	s3,0x100
    50e4:	2cc98593          	add	a1,s3,716 # 1002cc <__clz_tab+0x1e4>
    50e8:	56d00513          	li	a0,1389
    50ec:	170020ef          	jal	725c <alloc_get>
    50f0:	00100a37          	lui	s4,0x100
    50f4:	00050493          	mv	s1,a0
    50f8:	2d8a0593          	add	a1,s4,728 # 1002d8 <__clz_tab+0x1f0>
    50fc:	40400513          	li	a0,1028
    5100:	15c020ef          	jal	725c <alloc_get>
    5104:	00050413          	mv	s0,a0
    5108:	00100537          	lui	a0,0x100
    510c:	20850513          	add	a0,a0,520 # 100208 <__clz_tab+0x120>
    5110:	748010ef          	jal	6858 <bm_printf>
    5114:	00100537          	lui	a0,0x100
    5118:	00040613          	mv	a2,s0
    511c:	00c10593          	add	a1,sp,12
    5120:	00000713          	li	a4,0
    5124:	40400693          	li	a3,1028
    5128:	2e450513          	add	a0,a0,740 # 1002e4 <__clz_tab+0x1fc>
    512c:	6e9010ef          	jal	7014 <load_hex_file>
    5130:	00344a83          	lbu	s5,3(s0)
    5134:	00048613          	mv	a2,s1
    5138:	00090593          	mv	a1,s2
    513c:	00000713          	li	a4,0
    5140:	00100693          	li	a3,1
    5144:	00440513          	add	a0,s0,4
    5148:	ed0ff0ef          	jal	4818 <infer>
    514c:	00100713          	li	a4,1
    5150:	00100693          	li	a3,1
    5154:	00000613          	li	a2,0
    5158:	000a8593          	mv	a1,s5
    515c:	081020ef          	jal	79dc <output_detection>
    5160:	00c12503          	lw	a0,12(sp)
    5164:	1ac000ef          	jal	5310 <bm_fclose>
    5168:	001005b7          	lui	a1,0x100
    516c:	00090513          	mv	a0,s2
    5170:	32858593          	add	a1,a1,808 # 100328 <__clz_tab+0x240>
    5174:	4a4020ef          	jal	7618 <alloc_free>
    5178:	2d8a0593          	add	a1,s4,728
    517c:	00040513          	mv	a0,s0
    5180:	498020ef          	jal	7618 <alloc_free>
    5184:	2cc98593          	add	a1,s3,716
    5188:	00048513          	mv	a0,s1
    518c:	48c020ef          	jal	7618 <alloc_free>
    5190:	00100537          	lui	a0,0x100
    5194:	33850513          	add	a0,a0,824 # 100338 <__clz_tab+0x250>
    5198:	6c0010ef          	jal	6858 <bm_printf>
    519c:	29c000ef          	jal	5438 <bm_quit_app>
    51a0:	02c12083          	lw	ra,44(sp)
    51a4:	02812403          	lw	s0,40(sp)
    51a8:	02412483          	lw	s1,36(sp)
    51ac:	02012903          	lw	s2,32(sp)
    51b0:	01c12983          	lw	s3,28(sp)
    51b4:	01812a03          	lw	s4,24(sp)
    51b8:	01412a83          	lw	s5,20(sp)
    51bc:	00000513          	li	a0,0
    51c0:	03010113          	add	sp,sp,48
    51c4:	00008067          	ret

Disassembly of section .text.k5_send_char:

000051c8 <k5_send_char>:
    51c8:	001017b7          	lui	a5,0x101
    51cc:	00101f37          	lui	t5,0x101
    51d0:	8c47ae83          	lw	t4,-1852(a5) # 1008c4 <sys_reg_com_ptr>
    51d4:	9d4f2303          	lw	t1,-1580(t5) # 1009d4 <tx_wr_idx>
    51d8:	10000893          	li	a7,256
    51dc:	0018d893          	srl	a7,a7,0x1
    51e0:	00106e37          	lui	t3,0x106
    51e4:	00100793          	li	a5,1
    51e8:	ff888f93          	add	t6,a7,-8
    51ec:	00fea023          	sw	a5,0(t4)
    51f0:	00130593          	add	a1,t1,1
    51f4:	ff788893          	add	a7,a7,-9
    51f8:	f00e0613          	add	a2,t3,-256 # 105f00 <IOBUF_BASE>
    51fc:	00464803          	lbu	a6,4(a2)
    5200:	00564683          	lbu	a3,5(a2)
    5204:	00664703          	lbu	a4,6(a2)
    5208:	00764783          	lbu	a5,7(a2)
    520c:	00869693          	sll	a3,a3,0x8
    5210:	0106e6b3          	or	a3,a3,a6
    5214:	01071713          	sll	a4,a4,0x10
    5218:	00d76733          	or	a4,a4,a3
    521c:	01879793          	sll	a5,a5,0x18
    5220:	00e7e7b3          	or	a5,a5,a4
    5224:	fcb78ce3          	beq	a5,a1,51fc <k5_send_char+0x34>
    5228:	01131463          	bne	t1,a7,5230 <k5_send_char+0x68>
    522c:	fc0788e3          	beqz	a5,51fc <k5_send_char+0x34>
    5230:	001067b7          	lui	a5,0x106
    5234:	f0878793          	add	a5,a5,-248 # 105f08 <IOBUF_BASE+0x8>
    5238:	00f30333          	add	t1,t1,a5
    523c:	9cbf2a23          	sw	a1,-1580(t5)
    5240:	00a30023          	sb	a0,0(t1)
    5244:	01f59663          	bne	a1,t6,5250 <k5_send_char+0x88>
    5248:	9c0f2a23          	sw	zero,-1580(t5)
    524c:	00000593          	li	a1,0
    5250:	0ff5f793          	zext.b	a5,a1
    5254:	0085d713          	srl	a4,a1,0x8
    5258:	f00e4683          	lbu	a3,-256(t3)
    525c:	0ff77713          	zext.b	a4,a4
    5260:	f0fe0023          	sb	a5,-256(t3)
    5264:	0105d793          	srl	a5,a1,0x10
    5268:	f01e4683          	lbu	a3,-255(t3)
    526c:	0ff7f793          	zext.b	a5,a5
    5270:	f0ee00a3          	sb	a4,-255(t3)
    5274:	f02e4703          	lbu	a4,-254(t3)
    5278:	0185d593          	srl	a1,a1,0x18
    527c:	f0fe0123          	sb	a5,-254(t3)
    5280:	f03e4783          	lbu	a5,-253(t3)
    5284:	f0be01a3          	sb	a1,-253(t3)
    5288:	000ea023          	sw	zero,0(t4)
    528c:	00008067          	ret

Disassembly of section .text.k5_get_char:

00005290 <k5_get_char>:
    5290:	00101637          	lui	a2,0x101
    5294:	10000793          	li	a5,256
    5298:	00106737          	lui	a4,0x106
    529c:	9d062683          	lw	a3,-1584(a2) # 1009d0 <rx_rd_idx>
    52a0:	0017d793          	srl	a5,a5,0x1
    52a4:	f0070713          	add	a4,a4,-256 # 105f00 <IOBUF_BASE>
    52a8:	ff878593          	add	a1,a5,-8
    52ac:	00e787b3          	add	a5,a5,a4
    52b0:	0047a703          	lw	a4,4(a5)
    52b4:	fed70ee3          	beq	a4,a3,52b0 <k5_get_char+0x20>
    52b8:	00868713          	add	a4,a3,8
    52bc:	00e78733          	add	a4,a5,a4
    52c0:	00074503          	lbu	a0,0(a4)
    52c4:	00168693          	add	a3,a3,1
    52c8:	9cd62823          	sw	a3,-1584(a2)
    52cc:	0ff57513          	zext.b	a0,a0
    52d0:	00b69663          	bne	a3,a1,52dc <k5_get_char+0x4c>
    52d4:	9c062823          	sw	zero,-1584(a2)
    52d8:	00000693          	li	a3,0
    52dc:	00d7a023          	sw	a3,0(a5)
    52e0:	00008067          	ret

Disassembly of section .text.bm_fopen_r:

000052e4 <bm_fopen_r>:
    52e4:	00050593          	mv	a1,a0
    52e8:	00100537          	lui	a0,0x100
    52ec:	ff010113          	add	sp,sp,-16
    52f0:	07200613          	li	a2,114
    52f4:	39450513          	add	a0,a0,916 # 100394 <__clz_tab+0x2ac>
    52f8:	00112623          	sw	ra,12(sp)
    52fc:	55c010ef          	jal	6858 <bm_printf>
    5300:	f91ff0ef          	jal	5290 <k5_get_char>
    5304:	00c12083          	lw	ra,12(sp)
    5308:	01010113          	add	sp,sp,16
    530c:	00008067          	ret

Disassembly of section .text.bm_fclose:

00005310 <bm_fclose>:
    5310:	00050593          	mv	a1,a0
    5314:	00100537          	lui	a0,0x100
    5318:	ff010113          	add	sp,sp,-16
    531c:	3b450513          	add	a0,a0,948 # 1003b4 <__clz_tab+0x2cc>
    5320:	00112623          	sw	ra,12(sp)
    5324:	534010ef          	jal	6858 <bm_printf>
    5328:	00c12083          	lw	ra,12(sp)
    532c:	00100513          	li	a0,1
    5330:	01010113          	add	sp,sp,16
    5334:	00008067          	ret

Disassembly of section .text.bm_start_soc_load_hex_file:

00005338 <bm_start_soc_load_hex_file>:
    5338:	00060693          	mv	a3,a2
    533c:	00058613          	mv	a2,a1
    5340:	00050593          	mv	a1,a0
    5344:	00100537          	lui	a0,0x100
    5348:	3cc50513          	add	a0,a0,972 # 1003cc <__clz_tab+0x2e4>
    534c:	50c0106f          	j	6858 <bm_printf>

Disassembly of section .text.bm_check_soc_load_hex_file:

00005350 <bm_check_soc_load_hex_file>:
    5350:	00100537          	lui	a0,0x100
    5354:	fe010113          	add	sp,sp,-32
    5358:	3f450513          	add	a0,a0,1012 # 1003f4 <__clz_tab+0x30c>
    535c:	00812c23          	sw	s0,24(sp)
    5360:	00912a23          	sw	s1,20(sp)
    5364:	01212823          	sw	s2,16(sp)
    5368:	00112e23          	sw	ra,28(sp)
    536c:	00410493          	add	s1,sp,4
    5370:	4e8010ef          	jal	6858 <bm_printf>
    5374:	00000413          	li	s0,0
    5378:	0ff00913          	li	s2,255
    537c:	0080006f          	j	5384 <bm_check_soc_load_hex_file+0x34>
    5380:	00140413          	add	s0,s0,1
    5384:	f0dff0ef          	jal	5290 <k5_get_char>
    5388:	00a48023          	sb	a0,0(s1)
    538c:	00148493          	add	s1,s1,1
    5390:	ff2518e3          	bne	a0,s2,5380 <bm_check_soc_load_hex_file+0x30>
    5394:	02041063          	bnez	s0,53b4 <bm_check_soc_load_hex_file+0x64>
    5398:	01c12083          	lw	ra,28(sp)
    539c:	00040513          	mv	a0,s0
    53a0:	01812403          	lw	s0,24(sp)
    53a4:	01412483          	lw	s1,20(sp)
    53a8:	01012903          	lw	s2,16(sp)
    53ac:	02010113          	add	sp,sp,32
    53b0:	00008067          	ret
    53b4:	01040793          	add	a5,s0,16
    53b8:	00278433          	add	s0,a5,sp
    53bc:	fe040a23          	sb	zero,-12(s0)
    53c0:	00414703          	lbu	a4,4(sp)
    53c4:	06070663          	beqz	a4,5430 <bm_check_soc_load_hex_file+0xe0>
    53c8:	00510613          	add	a2,sp,5
    53cc:	00000413          	li	s0,0
    53d0:	00900513          	li	a0,9
    53d4:	00500813          	li	a6,5
    53d8:	01c0006f          	j	53f4 <bm_check_soc_load_hex_file+0xa4>
    53dc:	0ff77793          	zext.b	a5,a4
    53e0:	00064703          	lbu	a4,0(a2)
    53e4:	00441413          	sll	s0,s0,0x4
    53e8:	00160613          	add	a2,a2,1
    53ec:	00878433          	add	s0,a5,s0
    53f0:	fa0704e3          	beqz	a4,5398 <bm_check_soc_load_hex_file+0x48>
    53f4:	fd070793          	add	a5,a4,-48
    53f8:	fbf70693          	add	a3,a4,-65
    53fc:	0ff7f793          	zext.b	a5,a5
    5400:	0ff6f693          	zext.b	a3,a3
    5404:	fcf57ee3          	bgeu	a0,a5,53e0 <bm_check_soc_load_hex_file+0x90>
    5408:	f9f70593          	add	a1,a4,-97
    540c:	fc970793          	add	a5,a4,-55
    5410:	0ff5f593          	zext.b	a1,a1
    5414:	fa970713          	add	a4,a4,-87
    5418:	0ff7f793          	zext.b	a5,a5
    541c:	fcd872e3          	bgeu	a6,a3,53e0 <bm_check_soc_load_hex_file+0x90>
    5420:	fab87ee3          	bgeu	a6,a1,53dc <bm_check_soc_load_hex_file+0x8c>
    5424:	00100537          	lui	a0,0x100
    5428:	36850513          	add	a0,a0,872 # 100368 <__clz_tab+0x280>
    542c:	42c010ef          	jal	6858 <bm_printf>
    5430:	00000413          	li	s0,0
    5434:	f65ff06f          	j	5398 <bm_check_soc_load_hex_file+0x48>

Disassembly of section .text.bm_quit_app:

00005438 <bm_quit_app>:
    5438:	00100537          	lui	a0,0x100
    543c:	ff010113          	add	sp,sp,-16
    5440:	41450513          	add	a0,a0,1044 # 100414 <__clz_tab+0x32c>
    5444:	00112623          	sw	ra,12(sp)
    5448:	410010ef          	jal	6858 <bm_printf>
    544c:	00c12083          	lw	ra,12(sp)
    5450:	01010113          	add	sp,sp,16
    5454:	e3dff06f          	j	5290 <k5_get_char>

Disassembly of section .text.number:

00005458 <number>:
    5458:	f6010113          	add	sp,sp,-160
    545c:	08812c23          	sw	s0,152(sp)
    5460:	08912a23          	sw	s1,148(sp)
    5464:	09212823          	sw	s2,144(sp)
    5468:	09312623          	sw	s3,140(sp)
    546c:	09612023          	sw	s6,128(sp)
    5470:	08112e23          	sw	ra,156(sp)
    5474:	09412423          	sw	s4,136(sp)
    5478:	09512223          	sw	s5,132(sp)
    547c:	07712e23          	sw	s7,124(sp)
    5480:	07812c23          	sw	s8,120(sp)
    5484:	07a12823          	sw	s10,112(sp)
    5488:	07b12623          	sw	s11,108(sp)
    548c:	0407f813          	and	a6,a5,64
    5490:	00050413          	mv	s0,a0
    5494:	00058993          	mv	s3,a1
    5498:	00060493          	mv	s1,a2
    549c:	00068913          	mv	s2,a3
    54a0:	00070b13          	mv	s6,a4
    54a4:	1c081063          	bnez	a6,5664 <number+0x20c>
    54a8:	00100ab7          	lui	s5,0x100
    54ac:	428a8a93          	add	s5,s5,1064 # 100428 <__clz_tab+0x340>
    54b0:	0107fc13          	and	s8,a5,16
    54b4:	180c0463          	beqz	s8,563c <number+0x1e4>
    54b8:	01000713          	li	a4,16
    54bc:	00e12223          	sw	a4,4(sp)
    54c0:	02000713          	li	a4,32
    54c4:	ffe7f793          	and	a5,a5,-2
    54c8:	00e12623          	sw	a4,12(sp)
    54cc:	0027f713          	and	a4,a5,2
    54d0:	0207fb93          	and	s7,a5,32
    54d4:	18070e63          	beqz	a4,5670 <number+0x218>
    54d8:	2009ca63          	bltz	s3,56ec <number+0x294>
    54dc:	0047f713          	and	a4,a5,4
    54e0:	1e071263          	bnez	a4,56c4 <number+0x26c>
    54e4:	0087f793          	and	a5,a5,8
    54e8:	00012423          	sw	zero,8(sp)
    54ec:	00078863          	beqz	a5,54fc <number+0xa4>
    54f0:	02000793          	li	a5,32
    54f4:	fff90913          	add	s2,s2,-1
    54f8:	00f12423          	sw	a5,8(sp)
    54fc:	000b8e63          	beqz	s7,5518 <number+0xc0>
    5500:	01000793          	li	a5,16
    5504:	20f48263          	beq	s1,a5,5708 <number+0x2b0>
    5508:	ff848793          	add	a5,s1,-8
    550c:	0017b793          	seqz	a5,a5
    5510:	02000b93          	li	s7,32
    5514:	40f90933          	sub	s2,s2,a5
    5518:	16099063          	bnez	s3,5678 <number+0x220>
    551c:	03000793          	li	a5,48
    5520:	00f10e23          	sb	a5,28(sp)
    5524:	00100d13          	li	s10,1
    5528:	01c10d93          	add	s11,sp,28
    552c:	000d0a13          	mv	s4,s10
    5530:	016d5463          	bge	s10,s6,5538 <number+0xe0>
    5534:	000b0a13          	mv	s4,s6
    5538:	00412783          	lw	a5,4(sp)
    553c:	41490933          	sub	s2,s2,s4
    5540:	02079063          	bnez	a5,5560 <number+0x108>
    5544:	1f205a63          	blez	s2,5738 <number+0x2e0>
    5548:	00090613          	mv	a2,s2
    554c:	00040513          	mv	a0,s0
    5550:	02000593          	li	a1,32
    5554:	01240433          	add	s0,s0,s2
    5558:	d65fe0ef          	jal	42bc <memset>
    555c:	fff00913          	li	s2,-1
    5560:	00812783          	lw	a5,8(sp)
    5564:	00078663          	beqz	a5,5570 <number+0x118>
    5568:	00f40023          	sb	a5,0(s0)
    556c:	00140413          	add	s0,s0,1
    5570:	000b8a63          	beqz	s7,5584 <number+0x12c>
    5574:	00800713          	li	a4,8
    5578:	18e48e63          	beq	s1,a4,5714 <number+0x2bc>
    557c:	01000713          	li	a4,16
    5580:	14e48a63          	beq	s1,a4,56d4 <number+0x27c>
    5584:	020c1063          	bnez	s8,55a4 <number+0x14c>
    5588:	1b205463          	blez	s2,5730 <number+0x2d8>
    558c:	00c12583          	lw	a1,12(sp)
    5590:	00090613          	mv	a2,s2
    5594:	00040513          	mv	a0,s0
    5598:	d25fe0ef          	jal	42bc <memset>
    559c:	01240433          	add	s0,s0,s2
    55a0:	fff00913          	li	s2,-1
    55a4:	014d5e63          	bge	s10,s4,55c0 <number+0x168>
    55a8:	41aa0a33          	sub	s4,s4,s10
    55ac:	00040513          	mv	a0,s0
    55b0:	000a0613          	mv	a2,s4
    55b4:	03000593          	li	a1,48
    55b8:	d05fe0ef          	jal	42bc <memset>
    55bc:	01440433          	add	s0,s0,s4
    55c0:	013d87b3          	add	a5,s11,s3
    55c4:	00040713          	mv	a4,s0
    55c8:	0007c603          	lbu	a2,0(a5)
    55cc:	00078693          	mv	a3,a5
    55d0:	00170713          	add	a4,a4,1
    55d4:	fec70fa3          	sb	a2,-1(a4)
    55d8:	fff78793          	add	a5,a5,-1
    55dc:	fedd96e3          	bne	s11,a3,55c8 <number+0x170>
    55e0:	00198993          	add	s3,s3,1
    55e4:	01340433          	add	s0,s0,s3
    55e8:	01205c63          	blez	s2,5600 <number+0x1a8>
    55ec:	00040513          	mv	a0,s0
    55f0:	00090613          	mv	a2,s2
    55f4:	02000593          	li	a1,32
